

Microchip MPLAB XC8 Assembler V2.20 build 20200408173844 
                                                                                               Sun Feb 28 23:39:41 2021

Microchip MPLAB XC8 C Compiler v2.20 (Free license) build 20200408173844 Og1 
     1                           	processor	16F887
     2                           	pagewidth 120
     3                           	opt	flic
     4                           	psect	cinit,global,class=CODE,merge=1,delta=2
     5                           	psect	bssCOMMON,global,class=COMMON,space=1,delta=1,noexec
     6                           	psect	bssBANK0,global,class=BANK0,space=1,delta=1,noexec
     7                           	psect	cstackCOMMON,global,class=COMMON,space=1,delta=1,noexec
     8                           	psect	cstackBANK0,global,class=BANK0,space=1,delta=1,noexec
     9                           	psect	maintext,global,class=CODE,split=1,delta=2
    10                           	psect	text1,local,class=CODE,merge=1,delta=2
    11                           	psect	text2,local,class=CODE,merge=1,delta=2
    12                           	psect	text3,local,class=CODE,merge=1,delta=2
    13                           	psect	text4,local,class=CODE,merge=1,delta=2
    14                           	psect	text5,local,class=CODE,merge=1,delta=2,group=1
    15                           	psect	text6,local,class=CODE,merge=1,delta=2
    16                           	psect	text7,local,class=CODE,merge=1,delta=2
    17                           	psect	text8,local,class=CODE,merge=1,delta=2
    18                           	psect	text9,local,class=CODE,merge=1,delta=2
    19                           	psect	text10,local,class=CODE,merge=1,delta=2
    20                           	psect	text11,local,class=CODE,merge=1,delta=2
    21                           	psect	text12,local,class=CODE,merge=1,delta=2
    22                           	psect	text13,local,class=CODE,merge=1,delta=2
    23                           	psect	intentry,global,class=CODE,delta=2
    24                           	psect	text14,local,class=CODE,merge=1,delta=2
    25                           	psect	text15,local,class=CODE,merge=1,delta=2
    26                           	psect	config,global,abs,ovrld,class=CONFIG,space=4,delta=2,noexec
    27                           	dabs	1,0x7E,2
    28  0000                     
    29                           ; Version 2.20
    30                           ; Generated 09/04/2020 GMT
    31                           ; 
    32                           ; Copyright © 2020, Microchip Technology Inc. and its subsidiaries ("Microchip")
    33                           ; All rights reserved.
    34                           ; 
    35                           ; This software is developed by Microchip Technology Inc. and its subsidiaries ("Microch
      +                          ip").
    36                           ; 
    37                           ; Redistribution and use in source and binary forms, with or without modification, are
    38                           ; permitted provided that the following conditions are met:
    39                           ; 
    40                           ;     1. Redistributions of source code must retain the above copyright notice, this lis
      +                          t of
    41                           ;        conditions and the following disclaimer.
    42                           ; 
    43                           ;     2. Redistributions in binary form must reproduce the above copyright notice, this 
      +                          list
    44                           ;        of conditions and the following disclaimer in the documentation and/or other
    45                           ;        materials provided with the distribution.
    46                           ; 
    47                           ;     3. Microchip's name may not be used to endorse or promote products derived from th
      +                          is
    48                           ;        software without specific prior written permission.
    49                           ; 
    50                           ; THIS SOFTWARE IS PROVIDED BY MICROCHIP "AS IS" AND ANY EXPRESS OR IMPLIED WARRANTIES,
    51                           ; INCLUDING, BUT NOT LIMITED TO, THE IMPLIED WARRANTIES OF MERCHANTABILITY AND FITNESS F
      +                          OR
    52                           ; PURPOSE ARE DISCLAIMED.  IN NO EVENT SHALL MICROCHIP BE LIABLE FOR ANY DIRECT, INDIREC
      +                          T,
    53                           ; INCIDENTAL, SPECIAL, EXEMPLARY, OR CONSEQUENTIAL DAMAGES (INCLUDING BUT NOT LIMITED TO
    54                           ; PROCUREMENT OF SUBSTITUTE GOODS OR SERVICES; LOSS OF USE, DATA OR PROFITS; OR BUSINESS
    55                           ; INTERRUPTION) HOWSOEVER CAUSED AND ON ANY THEORY OF LIABILITY, WHETHER IN CONTRACT, ST
      +                          RICT
    56                           ; LIABILITY, OR TORT (INCLUDING NEGLIGENCE OR OTHERWISE) ARISING IN ANY WAY OUT OF THE U
      +                          SE OF
    57                           ; THIS SOFTWARE, EVEN IF ADVISED OF THE POSSIBILITY OF SUCH DAMAGE.
    58                           ; 
    59                           ; 
    60                           ; Code-generator required, PIC16F887 Definitions
    61                           ; 
    62                           ; SFR Addresses
    63  0000                     	;# 
    64  0001                     	;# 
    65  0002                     	;# 
    66  0003                     	;# 
    67  0004                     	;# 
    68  0005                     	;# 
    69  0006                     	;# 
    70  0007                     	;# 
    71  0008                     	;# 
    72  0009                     	;# 
    73  000A                     	;# 
    74  000B                     	;# 
    75  000C                     	;# 
    76  000D                     	;# 
    77  000E                     	;# 
    78  000E                     	;# 
    79  000F                     	;# 
    80  0010                     	;# 
    81  0011                     	;# 
    82  0012                     	;# 
    83  0013                     	;# 
    84  0014                     	;# 
    85  0015                     	;# 
    86  0015                     	;# 
    87  0016                     	;# 
    88  0017                     	;# 
    89  0018                     	;# 
    90  0019                     	;# 
    91  001A                     	;# 
    92  001B                     	;# 
    93  001B                     	;# 
    94  001C                     	;# 
    95  001D                     	;# 
    96  001E                     	;# 
    97  001F                     	;# 
    98  0081                     	;# 
    99  0085                     	;# 
   100  0086                     	;# 
   101  0087                     	;# 
   102  0088                     	;# 
   103  0089                     	;# 
   104  008C                     	;# 
   105  008D                     	;# 
   106  008E                     	;# 
   107  008F                     	;# 
   108  0090                     	;# 
   109  0091                     	;# 
   110  0092                     	;# 
   111  0093                     	;# 
   112  0093                     	;# 
   113  0093                     	;# 
   114  0094                     	;# 
   115  0095                     	;# 
   116  0096                     	;# 
   117  0097                     	;# 
   118  0098                     	;# 
   119  0099                     	;# 
   120  009A                     	;# 
   121  009B                     	;# 
   122  009C                     	;# 
   123  009D                     	;# 
   124  009E                     	;# 
   125  009F                     	;# 
   126  0105                     	;# 
   127  0107                     	;# 
   128  0108                     	;# 
   129  0109                     	;# 
   130  010C                     	;# 
   131  010C                     	;# 
   132  010D                     	;# 
   133  010E                     	;# 
   134  010F                     	;# 
   135  0185                     	;# 
   136  0187                     	;# 
   137  0188                     	;# 
   138  0189                     	;# 
   139  018C                     	;# 
   140  018D                     	;# 
   141  0000                     	;# 
   142  0001                     	;# 
   143  0002                     	;# 
   144  0003                     	;# 
   145  0004                     	;# 
   146  0005                     	;# 
   147  0006                     	;# 
   148  0007                     	;# 
   149  0008                     	;# 
   150  0009                     	;# 
   151  000A                     	;# 
   152  000B                     	;# 
   153  000C                     	;# 
   154  000D                     	;# 
   155  000E                     	;# 
   156  000E                     	;# 
   157  000F                     	;# 
   158  0010                     	;# 
   159  0011                     	;# 
   160  0012                     	;# 
   161  0013                     	;# 
   162  0014                     	;# 
   163  0015                     	;# 
   164  0015                     	;# 
   165  0016                     	;# 
   166  0017                     	;# 
   167  0018                     	;# 
   168  0019                     	;# 
   169  001A                     	;# 
   170  001B                     	;# 
   171  001B                     	;# 
   172  001C                     	;# 
   173  001D                     	;# 
   174  001E                     	;# 
   175  001F                     	;# 
   176  0081                     	;# 
   177  0085                     	;# 
   178  0086                     	;# 
   179  0087                     	;# 
   180  0088                     	;# 
   181  0089                     	;# 
   182  008C                     	;# 
   183  008D                     	;# 
   184  008E                     	;# 
   185  008F                     	;# 
   186  0090                     	;# 
   187  0091                     	;# 
   188  0092                     	;# 
   189  0093                     	;# 
   190  0093                     	;# 
   191  0093                     	;# 
   192  0094                     	;# 
   193  0095                     	;# 
   194  0096                     	;# 
   195  0097                     	;# 
   196  0098                     	;# 
   197  0099                     	;# 
   198  009A                     	;# 
   199  009B                     	;# 
   200  009C                     	;# 
   201  009D                     	;# 
   202  009E                     	;# 
   203  009F                     	;# 
   204  0105                     	;# 
   205  0107                     	;# 
   206  0108                     	;# 
   207  0109                     	;# 
   208  010C                     	;# 
   209  010C                     	;# 
   210  010D                     	;# 
   211  010E                     	;# 
   212  010F                     	;# 
   213  0185                     	;# 
   214  0187                     	;# 
   215  0188                     	;# 
   216  0189                     	;# 
   217  018C                     	;# 
   218  018D                     	;# 
   219  0000                     	;# 
   220  0001                     	;# 
   221  0002                     	;# 
   222  0003                     	;# 
   223  0004                     	;# 
   224  0005                     	;# 
   225  0006                     	;# 
   226  0007                     	;# 
   227  0008                     	;# 
   228  0009                     	;# 
   229  000A                     	;# 
   230  000B                     	;# 
   231  000C                     	;# 
   232  000D                     	;# 
   233  000E                     	;# 
   234  000E                     	;# 
   235  000F                     	;# 
   236  0010                     	;# 
   237  0011                     	;# 
   238  0012                     	;# 
   239  0013                     	;# 
   240  0014                     	;# 
   241  0015                     	;# 
   242  0015                     	;# 
   243  0016                     	;# 
   244  0017                     	;# 
   245  0018                     	;# 
   246  0019                     	;# 
   247  001A                     	;# 
   248  001B                     	;# 
   249  001B                     	;# 
   250  001C                     	;# 
   251  001D                     	;# 
   252  001E                     	;# 
   253  001F                     	;# 
   254  0081                     	;# 
   255  0085                     	;# 
   256  0086                     	;# 
   257  0087                     	;# 
   258  0088                     	;# 
   259  0089                     	;# 
   260  008C                     	;# 
   261  008D                     	;# 
   262  008E                     	;# 
   263  008F                     	;# 
   264  0090                     	;# 
   265  0091                     	;# 
   266  0092                     	;# 
   267  0093                     	;# 
   268  0093                     	;# 
   269  0093                     	;# 
   270  0094                     	;# 
   271  0095                     	;# 
   272  0096                     	;# 
   273  0097                     	;# 
   274  0098                     	;# 
   275  0099                     	;# 
   276  009A                     	;# 
   277  009B                     	;# 
   278  009C                     	;# 
   279  009D                     	;# 
   280  009E                     	;# 
   281  009F                     	;# 
   282  0105                     	;# 
   283  0107                     	;# 
   284  0108                     	;# 
   285  0109                     	;# 
   286  010C                     	;# 
   287  010C                     	;# 
   288  010D                     	;# 
   289  010E                     	;# 
   290  010F                     	;# 
   291  0185                     	;# 
   292  0187                     	;# 
   293  0188                     	;# 
   294  0189                     	;# 
   295  018C                     	;# 
   296  018D                     	;# 
   297  0000                     	;# 
   298  0001                     	;# 
   299  0002                     	;# 
   300  0003                     	;# 
   301  0004                     	;# 
   302  0005                     	;# 
   303  0006                     	;# 
   304  0007                     	;# 
   305  0008                     	;# 
   306  0009                     	;# 
   307  000A                     	;# 
   308  000B                     	;# 
   309  000C                     	;# 
   310  000D                     	;# 
   311  000E                     	;# 
   312  000E                     	;# 
   313  000F                     	;# 
   314  0010                     	;# 
   315  0011                     	;# 
   316  0012                     	;# 
   317  0013                     	;# 
   318  0014                     	;# 
   319  0015                     	;# 
   320  0015                     	;# 
   321  0016                     	;# 
   322  0017                     	;# 
   323  0018                     	;# 
   324  0019                     	;# 
   325  001A                     	;# 
   326  001B                     	;# 
   327  001B                     	;# 
   328  001C                     	;# 
   329  001D                     	;# 
   330  001E                     	;# 
   331  001F                     	;# 
   332  0081                     	;# 
   333  0085                     	;# 
   334  0086                     	;# 
   335  0087                     	;# 
   336  0088                     	;# 
   337  0089                     	;# 
   338  008C                     	;# 
   339  008D                     	;# 
   340  008E                     	;# 
   341  008F                     	;# 
   342  0090                     	;# 
   343  0091                     	;# 
   344  0092                     	;# 
   345  0093                     	;# 
   346  0093                     	;# 
   347  0093                     	;# 
   348  0094                     	;# 
   349  0095                     	;# 
   350  0096                     	;# 
   351  0097                     	;# 
   352  0098                     	;# 
   353  0099                     	;# 
   354  009A                     	;# 
   355  009B                     	;# 
   356  009C                     	;# 
   357  009D                     	;# 
   358  009E                     	;# 
   359  009F                     	;# 
   360  0105                     	;# 
   361  0107                     	;# 
   362  0108                     	;# 
   363  0109                     	;# 
   364  010C                     	;# 
   365  010C                     	;# 
   366  010D                     	;# 
   367  010E                     	;# 
   368  010F                     	;# 
   369  0185                     	;# 
   370  0187                     	;# 
   371  0188                     	;# 
   372  0189                     	;# 
   373  018C                     	;# 
   374  018D                     	;# 
   375  0000                     	;# 
   376  0001                     	;# 
   377  0002                     	;# 
   378  0003                     	;# 
   379  0004                     	;# 
   380  0005                     	;# 
   381  0006                     	;# 
   382  0007                     	;# 
   383  0008                     	;# 
   384  0009                     	;# 
   385  000A                     	;# 
   386  000B                     	;# 
   387  000C                     	;# 
   388  000D                     	;# 
   389  000E                     	;# 
   390  000E                     	;# 
   391  000F                     	;# 
   392  0010                     	;# 
   393  0011                     	;# 
   394  0012                     	;# 
   395  0013                     	;# 
   396  0014                     	;# 
   397  0015                     	;# 
   398  0015                     	;# 
   399  0016                     	;# 
   400  0017                     	;# 
   401  0018                     	;# 
   402  0019                     	;# 
   403  001A                     	;# 
   404  001B                     	;# 
   405  001B                     	;# 
   406  001C                     	;# 
   407  001D                     	;# 
   408  001E                     	;# 
   409  001F                     	;# 
   410  0081                     	;# 
   411  0085                     	;# 
   412  0086                     	;# 
   413  0087                     	;# 
   414  0088                     	;# 
   415  0089                     	;# 
   416  008C                     	;# 
   417  008D                     	;# 
   418  008E                     	;# 
   419  008F                     	;# 
   420  0090                     	;# 
   421  0091                     	;# 
   422  0092                     	;# 
   423  0093                     	;# 
   424  0093                     	;# 
   425  0093                     	;# 
   426  0094                     	;# 
   427  0095                     	;# 
   428  0096                     	;# 
   429  0097                     	;# 
   430  0098                     	;# 
   431  0099                     	;# 
   432  009A                     	;# 
   433  009B                     	;# 
   434  009C                     	;# 
   435  009D                     	;# 
   436  009E                     	;# 
   437  009F                     	;# 
   438  0105                     	;# 
   439  0107                     	;# 
   440  0108                     	;# 
   441  0109                     	;# 
   442  010C                     	;# 
   443  010C                     	;# 
   444  010D                     	;# 
   445  010E                     	;# 
   446  010F                     	;# 
   447  0185                     	;# 
   448  0187                     	;# 
   449  0188                     	;# 
   450  0189                     	;# 
   451  018C                     	;# 
   452  018D                     	;# 
   453  0000                     	;# 
   454  0001                     	;# 
   455  0002                     	;# 
   456  0003                     	;# 
   457  0004                     	;# 
   458  0005                     	;# 
   459  0006                     	;# 
   460  0007                     	;# 
   461  0008                     	;# 
   462  0009                     	;# 
   463  000A                     	;# 
   464  000B                     	;# 
   465  000C                     	;# 
   466  000D                     	;# 
   467  000E                     	;# 
   468  000E                     	;# 
   469  000F                     	;# 
   470  0010                     	;# 
   471  0011                     	;# 
   472  0012                     	;# 
   473  0013                     	;# 
   474  0014                     	;# 
   475  0015                     	;# 
   476  0015                     	;# 
   477  0016                     	;# 
   478  0017                     	;# 
   479  0018                     	;# 
   480  0019                     	;# 
   481  001A                     	;# 
   482  001B                     	;# 
   483  001B                     	;# 
   484  001C                     	;# 
   485  001D                     	;# 
   486  001E                     	;# 
   487  001F                     	;# 
   488  0081                     	;# 
   489  0085                     	;# 
   490  0086                     	;# 
   491  0087                     	;# 
   492  0088                     	;# 
   493  0089                     	;# 
   494  008C                     	;# 
   495  008D                     	;# 
   496  008E                     	;# 
   497  008F                     	;# 
   498  0090                     	;# 
   499  0091                     	;# 
   500  0092                     	;# 
   501  0093                     	;# 
   502  0093                     	;# 
   503  0093                     	;# 
   504  0094                     	;# 
   505  0095                     	;# 
   506  0096                     	;# 
   507  0097                     	;# 
   508  0098                     	;# 
   509  0099                     	;# 
   510  009A                     	;# 
   511  009B                     	;# 
   512  009C                     	;# 
   513  009D                     	;# 
   514  009E                     	;# 
   515  009F                     	;# 
   516  0105                     	;# 
   517  0107                     	;# 
   518  0108                     	;# 
   519  0109                     	;# 
   520  010C                     	;# 
   521  010C                     	;# 
   522  010D                     	;# 
   523  010E                     	;# 
   524  010F                     	;# 
   525  0185                     	;# 
   526  0187                     	;# 
   527  0188                     	;# 
   528  0189                     	;# 
   529  018C                     	;# 
   530  018D                     	;# 
   531  0005                     _PORTA	set	5
   532  0009                     _PORTE	set	9
   533  0006                     _PORTB	set	6
   534  0008                     _PORTD	set	8
   535  0007                     _PORTC	set	7
   536  000C                     _PIR1bits	set	12
   537  0001                     _TMR0	set	1
   538  000B                     _INTCONbits	set	11
   539  0018                     _RCSTAbits	set	24
   540  0013                     _SSPBUF	set	19
   541  0014                     _SSPCON	set	20
   542  0019                     _TXREG	set	25
   543  0063                     _SSPIF	set	99
   544  005E                     _PEIE	set	94
   545  005F                     _GIE	set	95
   546  0086                     _TRISB	set	134
   547  0085                     _TRISA	set	133
   548  0089                     _TRISE	set	137
   549  0088                     _TRISD	set	136
   550  0081                     _OPTION_REG	set	129
   551  008C                     _PIE1bits	set	140
   552  009A                     _SPBRGH	set	154
   553  0099                     _SPBRG	set	153
   554  0098                     _TXSTAbits	set	152
   555  008F                     _OSCCONbits	set	143
   556  0087                     _TRISCbits	set	135
   557  0094                     _SSPSTAT	set	148
   558  0093                     _SSPADD	set	147
   559  0091                     _SSPCON2bits	set	145
   560  0091                     _SSPCON2	set	145
   561  0463                     _SSPIE	set	1123
   562  043C                     _TRISC4	set	1084
   563  043B                     _TRISC3	set	1083
   564  0189                     _ANSELH	set	393
   565  0188                     _ANSEL	set	392
   566  0187                     _BAUDCTLbits	set	391
   567                           
   568                           	psect	cinit
   569  0015                     start_initialization:	
   570                           ; #config settings
   571                           
   572  0015                     __initialization:
   573                           
   574                           ; Clear objects allocated to COMMON
   575  0015  01FB               	clrf	__pbssCOMMON& (0+127)
   576  0016  01FC               	clrf	(__pbssCOMMON+1)& (0+127)
   577  0017  01FD               	clrf	(__pbssCOMMON+2)& (0+127)
   578                           
   579                           ; Clear objects allocated to BANK0
   580  0018  1283               	bcf	3,5	;RP0=0, select bank0
   581  0019  1303               	bcf	3,6	;RP1=0, select bank0
   582  001A  01B6               	clrf	__pbssBANK0& (0+127)
   583  001B  01B7               	clrf	(__pbssBANK0+1)& (0+127)
   584  001C  01B8               	clrf	(__pbssBANK0+2)& (0+127)
   585  001D  01B9               	clrf	(__pbssBANK0+3)& (0+127)
   586  001E  01BA               	clrf	(__pbssBANK0+4)& (0+127)
   587  001F  01BB               	clrf	(__pbssBANK0+5)& (0+127)
   588  0020  01BC               	clrf	(__pbssBANK0+6)& (0+127)
   589  0021  01BD               	clrf	(__pbssBANK0+7)& (0+127)
   590  0022  01BE               	clrf	(__pbssBANK0+8)& (0+127)
   591  0023  01BF               	clrf	(__pbssBANK0+9)& (0+127)
   592  0024  01C0               	clrf	(__pbssBANK0+10)& (0+127)
   593  0025  01C1               	clrf	(__pbssBANK0+11)& (0+127)
   594  0026  01C2               	clrf	(__pbssBANK0+12)& (0+127)
   595  0027  01C3               	clrf	(__pbssBANK0+13)& (0+127)
   596  0028                     end_of_initialization:	
   597                           ;End of C runtime variable initialization code
   598                           
   599  0028                     __end_of__initialization:
   600  0028  0183               	clrf	3
   601  0029  120A  118A  2967   	ljmp	_main	;jump to C main() function
   602                           
   603                           	psect	bssCOMMON
   604  007B                     __pbssCOMMON:
   605  007B                     _segundos:
   606  007B                     	ds	2
   607  007D                     _controles:
   608  007D                     	ds	1
   609                           
   610                           	psect	bssBANK0
   611  0036                     __pbssBANK0:
   612  0036                     _var_envio:
   613  0036                     	ds	2
   614  0038                     _year:
   615  0038                     	ds	2
   616  003A                     _mes:
   617  003A                     	ds	2
   618  003C                     _dia:
   619  003C                     	ds	2
   620  003E                     _dia_S:
   621  003E                     	ds	2
   622  0040                     _horas:
   623  0040                     	ds	2
   624  0042                     _minutos:
   625  0042                     	ds	2
   626                           
   627                           	psect	cstackCOMMON
   628  0070                     __pcstackCOMMON:
   629  0070                     ?_envio:
   630  0070                     ?_setup:	
   631                           ; 1 bytes @ 0x0
   632                           
   633  0070                     ?_TX_GO:	
   634                           ; 1 bytes @ 0x0
   635                           
   636  0070                     ?_I2C_Master_Wait:	
   637                           ; 1 bytes @ 0x0
   638                           
   639  0070                     ?_I2C_Master_Start:	
   640                           ; 1 bytes @ 0x0
   641                           
   642  0070                     ?_I2C_Master_RepeatedStart:	
   643                           ; 1 bytes @ 0x0
   644                           
   645  0070                     ?_I2C_Master_Stop:	
   646                           ; 1 bytes @ 0x0
   647                           
   648  0070                     ?_initOsc:	
   649                           ; 1 bytes @ 0x0
   650                           
   651  0070                     ?_initUSART:	
   652                           ; 1 bytes @ 0x0
   653                           
   654  0070                     ?_tabla_hex:	
   655                           ; 1 bytes @ 0x0
   656                           
   657  0070                     ?_isr:	
   658                           ; 1 bytes @ 0x0
   659                           
   660  0070                     ?_main:	
   661                           ; 1 bytes @ 0x0
   662                           
   663  0070                     tabla_hex@port:	
   664                           ; 1 bytes @ 0x0
   665                           
   666                           
   667                           ; 2 bytes @ 0x0
   668  0070                     	ds	2
   669  0072                     ??_tabla_hex:
   670                           
   671                           ; 1 bytes @ 0x2
   672  0072                     	ds	2
   673  0074                     tabla_hex@selector:
   674                           
   675                           ; 1 bytes @ 0x4
   676  0074                     	ds	1
   677  0075                     ??_envio:
   678                           
   679                           ; 1 bytes @ 0x5
   680  0075                     	ds	2
   681  0077                     ??_isr:
   682                           
   683                           ; 1 bytes @ 0x7
   684  0077                     	ds	4
   685                           
   686                           	psect	cstackBANK0
   687  0020                     __pcstackBANK0:
   688  0020                     ??_TX_GO:
   689  0020                     ??_I2C_Master_Wait:	
   690                           ; 1 bytes @ 0x0
   691                           
   692  0020                     ??_I2C_Master_Start:	
   693                           ; 1 bytes @ 0x0
   694                           
   695  0020                     ??_I2C_Master_RepeatedStart:	
   696                           ; 1 bytes @ 0x0
   697                           
   698  0020                     ??_I2C_Master_Stop:	
   699                           ; 1 bytes @ 0x0
   700                           
   701  0020                     ?_I2C_Master_Write:	
   702                           ; 1 bytes @ 0x0
   703                           
   704  0020                     ??_initOsc:	
   705                           ; 1 bytes @ 0x0
   706                           
   707  0020                     ??_initUSART:	
   708                           ; 1 bytes @ 0x0
   709                           
   710  0020                     ?_I2C_Master_Read:	
   711                           ; 1 bytes @ 0x0
   712                           
   713  0020                     ?___lldiv:	
   714                           ; 2 bytes @ 0x0
   715                           
   716  0020                     I2C_Master_Write@d:	
   717                           ; 4 bytes @ 0x0
   718                           
   719  0020                     I2C_Master_Read@a:	
   720                           ; 2 bytes @ 0x0
   721                           
   722  0020                     ___lldiv@divisor:	
   723                           ; 2 bytes @ 0x0
   724                           
   725                           
   726                           ; 4 bytes @ 0x0
   727  0020                     	ds	2
   728  0022                     ??_I2C_Master_Write:
   729  0022                     ??_I2C_Master_Read:	
   730                           ; 1 bytes @ 0x2
   731                           
   732  0022                     initOsc@option:	
   733                           ; 1 bytes @ 0x2
   734                           
   735                           
   736                           ; 1 bytes @ 0x2
   737  0022                     	ds	2
   738  0024                     I2C_Master_Read@temp:
   739  0024                     ___lldiv@dividend:	
   740                           ; 2 bytes @ 0x4
   741                           
   742                           
   743                           ; 4 bytes @ 0x4
   744  0024                     	ds	4
   745  0028                     ??___lldiv:
   746                           
   747                           ; 1 bytes @ 0x8
   748  0028                     	ds	1
   749  0029                     ___lldiv@quotient:
   750                           
   751                           ; 4 bytes @ 0x9
   752  0029                     	ds	4
   753  002D                     ___lldiv@counter:
   754                           
   755                           ; 1 bytes @ 0xD
   756  002D                     	ds	1
   757  002E                     ?_I2C_Master_Init:
   758  002E                     I2C_Master_Init@c:	
   759                           ; 1 bytes @ 0xE
   760                           
   761                           
   762                           ; 4 bytes @ 0xE
   763  002E                     	ds	4
   764  0032                     ??_I2C_Master_Init:
   765                           
   766                           ; 1 bytes @ 0x12
   767  0032                     	ds	4
   768  0036                     ??_setup:
   769  0036                     ??_main:	
   770                           ; 1 bytes @ 0x16
   771                           
   772                           
   773                           	psect	maintext
   774  0167                     __pmaintext:	
   775                           ; 1 bytes @ 0x16
   776 ;;
   777 ;;Main: autosize = 0, tempsize = 0, incstack = 0, save=0
   778 ;;
   779 ;; *************** function _main *****************
   780 ;; Defined at:
   781 ;;		line 72 in file "C:/MPlab_Digital2/Digital_2/Proyecto2Digital2.X/main.c"
   782 ;; Parameters:    Size  Location     Type
   783 ;;		None
   784 ;; Auto vars:     Size  Location     Type
   785 ;;		None
   786 ;; Return value:  Size  Location     Type
   787 ;;                  1    wreg      void 
   788 ;; Registers used:
   789 ;;		wreg, fsr0l, fsr0h, status,2, status,0, btemp+1, pclath, cstack
   790 ;; Tracked objects:
   791 ;;		On entry : B00/0
   792 ;;		On exit  : 0/0
   793 ;;		Unchanged: 0/0
   794 ;; Data sizes:     COMMON   BANK0   BANK1   BANK3   BANK2
   795 ;;      Params:         0       0       0       0       0
   796 ;;      Locals:         0       0       0       0       0
   797 ;;      Temps:          0       0       0       0       0
   798 ;;      Totals:         0       0       0       0       0
   799 ;;Total ram usage:        0 bytes
   800 ;; Hardware stack levels required when called:    6
   801 ;; This function calls:
   802 ;;		_I2C_Master_Read
   803 ;;		_I2C_Master_RepeatedStart
   804 ;;		_I2C_Master_Start
   805 ;;		_I2C_Master_Stop
   806 ;;		_I2C_Master_Write
   807 ;;		_TX_GO
   808 ;;		_setup
   809 ;; This function is called by:
   810 ;;		Startup code after reset
   811 ;; This function uses a non-reentrant model
   812 ;;
   813                           
   814                           
   815                           ;psect for function _main
   816  0167                     _main:
   817  0167                     l1502:	
   818                           ;incstack = 0
   819                           ; Regs used in _main: [wreg-fsr0h+status,2+status,0+btemp+1+pclath+cstack]
   820                           
   821                           
   822                           ;C:/MPlab_Digital2/Digital_2/Proyecto2Digital2.X/main.c: 73: 
   823  0167  120A  118A  240A  120A  118A  	fcall	_setup
   824  016C                     l1504:
   825                           
   826                           ;C:/MPlab_Digital2/Digital_2/Proyecto2Digital2.X/main.c: 74: 
   827  016C  120A  118A  251B  120A  118A  	fcall	_I2C_Master_Start
   828  0171                     l1506:
   829                           
   830                           ;C:/MPlab_Digital2/Digital_2/Proyecto2Digital2.X/main.c: 75: void setup(void) {
   831  0171  30D0               	movlw	208
   832  0172  1283               	bcf	3,5	;RP0=0, select bank0
   833  0173  1303               	bcf	3,6	;RP1=0, select bank0
   834  0174  00A0               	movwf	I2C_Master_Write@d
   835  0175  3000               	movlw	0
   836  0176  00A1               	movwf	I2C_Master_Write@d+1
   837  0177  120A  118A  2508  120A  118A  	fcall	_I2C_Master_Write
   838  017C                     l1508:
   839                           
   840                           ;C:/MPlab_Digital2/Digital_2/Proyecto2Digital2.X/main.c: 76:     initUSART();
   841  017C  3000               	movlw	0
   842  017D  1283               	bcf	3,5	;RP0=0, select bank0
   843  017E  1303               	bcf	3,6	;RP1=0, select bank0
   844  017F  00A0               	movwf	I2C_Master_Write@d
   845  0180  00A1               	movwf	I2C_Master_Write@d+1
   846  0181  120A  118A  2508  120A  118A  	fcall	_I2C_Master_Write
   847  0186                     l1510:
   848                           
   849                           ;C:/MPlab_Digital2/Digital_2/Proyecto2Digital2.X/main.c: 77:     initOsc(6);
   850  0186  3000               	movlw	0
   851  0187  1283               	bcf	3,5	;RP0=0, select bank0
   852  0188  1303               	bcf	3,6	;RP1=0, select bank0
   853  0189  00A0               	movwf	I2C_Master_Write@d
   854  018A  00A1               	movwf	I2C_Master_Write@d+1
   855  018B  120A  118A  2508  120A  118A  	fcall	_I2C_Master_Write
   856  0190                     l1512:
   857                           
   858                           ;C:/MPlab_Digital2/Digital_2/Proyecto2Digital2.X/main.c: 78:     OPTION_REG = 0b11010111
      +                          ;
   859  0190  3000               	movlw	0
   860  0191  1283               	bcf	3,5	;RP0=0, select bank0
   861  0192  1303               	bcf	3,6	;RP1=0, select bank0
   862  0193  00A0               	movwf	I2C_Master_Write@d
   863  0194  00A1               	movwf	I2C_Master_Write@d+1
   864  0195  120A  118A  2508  120A  118A  	fcall	_I2C_Master_Write
   865  019A                     l1514:
   866                           
   867                           ;C:/MPlab_Digital2/Digital_2/Proyecto2Digital2.X/main.c: 79:     ANSEL = 0;
   868  019A  3018               	movlw	24
   869  019B  1283               	bcf	3,5	;RP0=0, select bank0
   870  019C  1303               	bcf	3,6	;RP1=0, select bank0
   871  019D  00A0               	movwf	I2C_Master_Write@d
   872  019E  3000               	movlw	0
   873  019F  00A1               	movwf	I2C_Master_Write@d+1
   874  01A0  120A  118A  2508  120A  118A  	fcall	_I2C_Master_Write
   875  01A5                     l1516:
   876                           
   877                           ;C:/MPlab_Digital2/Digital_2/Proyecto2Digital2.X/main.c: 80:     ANSELH = 0;
   878  01A5  3004               	movlw	4
   879  01A6  1283               	bcf	3,5	;RP0=0, select bank0
   880  01A7  1303               	bcf	3,6	;RP1=0, select bank0
   881  01A8  00A0               	movwf	I2C_Master_Write@d
   882  01A9  3000               	movlw	0
   883  01AA  00A1               	movwf	I2C_Master_Write@d+1
   884  01AB  120A  118A  2508  120A  118A  	fcall	_I2C_Master_Write
   885  01B0                     l1518:
   886                           
   887                           ;C:/MPlab_Digital2/Digital_2/Proyecto2Digital2.X/main.c: 81:     PORTC = 0;
   888  01B0  3025               	movlw	37
   889  01B1  1283               	bcf	3,5	;RP0=0, select bank0
   890  01B2  1303               	bcf	3,6	;RP1=0, select bank0
   891  01B3  00A0               	movwf	I2C_Master_Write@d
   892  01B4  3000               	movlw	0
   893  01B5  00A1               	movwf	I2C_Master_Write@d+1
   894  01B6  120A  118A  2508  120A  118A  	fcall	_I2C_Master_Write
   895  01BB                     l1520:
   896                           
   897                           ;C:/MPlab_Digital2/Digital_2/Proyecto2Digital2.X/main.c: 82:     PORTD = 0;
   898  01BB  3002               	movlw	2
   899  01BC  1283               	bcf	3,5	;RP0=0, select bank0
   900  01BD  1303               	bcf	3,6	;RP1=0, select bank0
   901  01BE  00A0               	movwf	I2C_Master_Write@d
   902  01BF  3000               	movlw	0
   903  01C0  00A1               	movwf	I2C_Master_Write@d+1
   904  01C1  120A  118A  2508  120A  118A  	fcall	_I2C_Master_Write
   905  01C6                     l1522:
   906                           
   907                           ;C:/MPlab_Digital2/Digital_2/Proyecto2Digital2.X/main.c: 83:     TRISD = 0;
   908  01C6  3021               	movlw	33
   909  01C7  1283               	bcf	3,5	;RP0=0, select bank0
   910  01C8  1303               	bcf	3,6	;RP1=0, select bank0
   911  01C9  00A0               	movwf	I2C_Master_Write@d
   912  01CA  3000               	movlw	0
   913  01CB  00A1               	movwf	I2C_Master_Write@d+1
   914  01CC  120A  118A  2508  120A  118A  	fcall	_I2C_Master_Write
   915  01D1                     l1524:
   916                           
   917                           ;C:/MPlab_Digital2/Digital_2/Proyecto2Digital2.X/main.c: 84:     PORTB = 0;
   918  01D1  120A  118A  2512  120A  118A  	fcall	_I2C_Master_Stop
   919  01D6                     l1526:
   920                           
   921                           ;C:/MPlab_Digital2/Digital_2/Proyecto2Digital2.X/main.c: 89:     TRISB = 0;
   922  01D6  120A  118A  24FD  120A  118A  	fcall	_TX_GO
   923  01DB                     l1528:
   924                           
   925                           ;C:/MPlab_Digital2/Digital_2/Proyecto2Digital2.X/main.c: 90: 
   926  01DB  120A  118A  251B  120A  118A  	fcall	_I2C_Master_Start
   927  01E0                     l1530:
   928                           
   929                           ;C:/MPlab_Digital2/Digital_2/Proyecto2Digital2.X/main.c: 91:     I2C_Master_Init(100000)
      +                          ;
   930  01E0  30D0               	movlw	208
   931  01E1  1283               	bcf	3,5	;RP0=0, select bank0
   932  01E2  1303               	bcf	3,6	;RP1=0, select bank0
   933  01E3  00A0               	movwf	I2C_Master_Write@d
   934  01E4  3000               	movlw	0
   935  01E5  00A1               	movwf	I2C_Master_Write@d+1
   936  01E6  120A  118A  2508  120A  118A  	fcall	_I2C_Master_Write
   937  01EB                     l1532:
   938                           
   939                           ;C:/MPlab_Digital2/Digital_2/Proyecto2Digital2.X/main.c: 92: 
   940  01EB  3000               	movlw	0
   941  01EC  1283               	bcf	3,5	;RP0=0, select bank0
   942  01ED  1303               	bcf	3,6	;RP1=0, select bank0
   943  01EE  00A0               	movwf	I2C_Master_Write@d
   944  01EF  00A1               	movwf	I2C_Master_Write@d+1
   945  01F0  120A  118A  2508  120A  118A  	fcall	_I2C_Master_Write
   946  01F5                     l1534:
   947                           
   948                           ;C:/MPlab_Digital2/Digital_2/Proyecto2Digital2.X/main.c: 93:     INTCONbits.GIE = 1;
   949  01F5  120A  118A  2524  120A  118A  	fcall	_I2C_Master_RepeatedStart
   950  01FA                     l1536:
   951                           
   952                           ;C:/MPlab_Digital2/Digital_2/Proyecto2Digital2.X/main.c: 94:     INTCONbits.PEIE = 1;
   953  01FA  30D1               	movlw	209
   954  01FB  1283               	bcf	3,5	;RP0=0, select bank0
   955  01FC  1303               	bcf	3,6	;RP1=0, select bank0
   956  01FD  00A0               	movwf	I2C_Master_Write@d
   957  01FE  3000               	movlw	0
   958  01FF  00A1               	movwf	I2C_Master_Write@d+1
   959  0200  120A  118A  2508  120A  118A  	fcall	_I2C_Master_Write
   960  0205                     l1538:
   961                           
   962                           ;C:/MPlab_Digital2/Digital_2/Proyecto2Digital2.X/main.c: 95:     INTCONbits.TMR0IE = 1;
   963  0205  3000               	movlw	0
   964  0206  1283               	bcf	3,5	;RP0=0, select bank0
   965  0207  1303               	bcf	3,6	;RP1=0, select bank0
   966  0208  00A0               	movwf	I2C_Master_Read@a
   967  0209  00A1               	movwf	I2C_Master_Read@a+1
   968  020A  120A  118A  2487  120A  118A  	fcall	_I2C_Master_Read
   969  020F  1283               	bcf	3,5	;RP0=0, select bank0
   970  0210  1303               	bcf	3,6	;RP1=0, select bank0
   971  0211  0821               	movf	?_I2C_Master_Read+1,w
   972  0212  00FC               	movwf	_segundos+1
   973  0213  0820               	movf	?_I2C_Master_Read,w
   974  0214  00FB               	movwf	_segundos
   975  0215                     l1540:
   976                           
   977                           ;C:/MPlab_Digital2/Digital_2/Proyecto2Digital2.X/main.c: 96:     INTCONbits.T0IF = 0;
   978  0215  3000               	movlw	0
   979  0216  00A0               	movwf	I2C_Master_Read@a
   980  0217  00A1               	movwf	I2C_Master_Read@a+1
   981  0218  120A  118A  2487  120A  118A  	fcall	_I2C_Master_Read
   982  021D  1283               	bcf	3,5	;RP0=0, select bank0
   983  021E  1303               	bcf	3,6	;RP1=0, select bank0
   984  021F  0821               	movf	?_I2C_Master_Read+1,w
   985  0220  00C3               	movwf	_minutos+1
   986  0221  0820               	movf	?_I2C_Master_Read,w
   987  0222  00C2               	movwf	_minutos
   988  0223                     l1542:
   989                           
   990                           ;C:/MPlab_Digital2/Digital_2/Proyecto2Digital2.X/main.c: 97:     PIE1bits.TXIE = 1;
   991  0223  3000               	movlw	0
   992  0224  00A0               	movwf	I2C_Master_Read@a
   993  0225  00A1               	movwf	I2C_Master_Read@a+1
   994  0226  120A  118A  2487  120A  118A  	fcall	_I2C_Master_Read
   995  022B  1283               	bcf	3,5	;RP0=0, select bank0
   996  022C  1303               	bcf	3,6	;RP1=0, select bank0
   997  022D  0821               	movf	?_I2C_Master_Read+1,w
   998  022E  00C1               	movwf	_horas+1
   999  022F  0820               	movf	?_I2C_Master_Read,w
  1000  0230  00C0               	movwf	_horas
  1001  0231                     l1544:
  1002                           
  1003                           ;C:/MPlab_Digital2/Digital_2/Proyecto2Digital2.X/main.c: 98:     PIR1bits.TXIF = 0;
  1004  0231  3000               	movlw	0
  1005  0232  00A0               	movwf	I2C_Master_Read@a
  1006  0233  00A1               	movwf	I2C_Master_Read@a+1
  1007  0234  120A  118A  2487  120A  118A  	fcall	_I2C_Master_Read
  1008  0239  1283               	bcf	3,5	;RP0=0, select bank0
  1009  023A  1303               	bcf	3,6	;RP1=0, select bank0
  1010  023B  0821               	movf	?_I2C_Master_Read+1,w
  1011  023C  00BF               	movwf	_dia_S+1
  1012  023D  0820               	movf	?_I2C_Master_Read,w
  1013  023E  00BE               	movwf	_dia_S
  1014  023F                     l1546:
  1015                           
  1016                           ;C:/MPlab_Digital2/Digital_2/Proyecto2Digital2.X/main.c: 99: }
  1017  023F  3000               	movlw	0
  1018  0240  00A0               	movwf	I2C_Master_Read@a
  1019  0241  00A1               	movwf	I2C_Master_Read@a+1
  1020  0242  120A  118A  2487  120A  118A  	fcall	_I2C_Master_Read
  1021  0247  1283               	bcf	3,5	;RP0=0, select bank0
  1022  0248  1303               	bcf	3,6	;RP1=0, select bank0
  1023  0249  0821               	movf	?_I2C_Master_Read+1,w
  1024  024A  00BD               	movwf	_dia+1
  1025  024B  0820               	movf	?_I2C_Master_Read,w
  1026  024C  00BC               	movwf	_dia
  1027  024D                     l1548:
  1028                           
  1029                           ;C:/MPlab_Digital2/Digital_2/Proyecto2Digital2.X/main.c: 100: void TX_GO (void){
  1030  024D  3000               	movlw	0
  1031  024E  00A0               	movwf	I2C_Master_Read@a
  1032  024F  00A1               	movwf	I2C_Master_Read@a+1
  1033  0250  120A  118A  2487  120A  118A  	fcall	_I2C_Master_Read
  1034  0255  1283               	bcf	3,5	;RP0=0, select bank0
  1035  0256  1303               	bcf	3,6	;RP1=0, select bank0
  1036  0257  0821               	movf	?_I2C_Master_Read+1,w
  1037  0258  00BB               	movwf	_mes+1
  1038  0259  0820               	movf	?_I2C_Master_Read,w
  1039  025A  00BA               	movwf	_mes
  1040  025B                     l1550:
  1041                           
  1042                           ;C:/MPlab_Digital2/Digital_2/Proyecto2Digital2.X/main.c: 101:     if (controles>10){
  1043  025B  3001               	movlw	1
  1044  025C  00A0               	movwf	I2C_Master_Read@a
  1045  025D  3000               	movlw	0
  1046  025E  00A1               	movwf	I2C_Master_Read@a+1
  1047  025F  120A  118A  2487  120A  118A  	fcall	_I2C_Master_Read
  1048  0264  1283               	bcf	3,5	;RP0=0, select bank0
  1049  0265  1303               	bcf	3,6	;RP1=0, select bank0
  1050  0266  0821               	movf	?_I2C_Master_Read+1,w
  1051  0267  00B9               	movwf	_year+1
  1052  0268  0820               	movf	?_I2C_Master_Read,w
  1053  0269  00B8               	movwf	_year
  1054  026A  29D1               	goto	l1524
  1055  026B  120A  118A  2812   	ljmp	start
  1056  026E                     __end_of_main:
  1057                           
  1058                           	psect	text1
  1059  040A                     __ptext1:	
  1060 ;; *************** function _setup *****************
  1061 ;; Defined at:
  1062 ;;		line 111 in file "C:/MPlab_Digital2/Digital_2/Proyecto2Digital2.X/main.c"
  1063 ;; Parameters:    Size  Location     Type
  1064 ;;		None
  1065 ;; Auto vars:     Size  Location     Type
  1066 ;;		None
  1067 ;; Return value:  Size  Location     Type
  1068 ;;                  1    wreg      void 
  1069 ;; Registers used:
  1070 ;;		wreg, fsr0l, fsr0h, status,2, status,0, btemp+1, pclath, cstack
  1071 ;; Tracked objects:
  1072 ;;		On entry : 0/0
  1073 ;;		On exit  : 0/0
  1074 ;;		Unchanged: 0/0
  1075 ;; Data sizes:     COMMON   BANK0   BANK1   BANK3   BANK2
  1076 ;;      Params:         0       0       0       0       0
  1077 ;;      Locals:         0       0       0       0       0
  1078 ;;      Temps:          0       0       0       0       0
  1079 ;;      Totals:         0       0       0       0       0
  1080 ;;Total ram usage:        0 bytes
  1081 ;; Hardware stack levels used:    1
  1082 ;; Hardware stack levels required when called:    5
  1083 ;; This function calls:
  1084 ;;		_I2C_Master_Init
  1085 ;;		_initOsc
  1086 ;;		_initUSART
  1087 ;; This function is called by:
  1088 ;;		_main
  1089 ;; This function uses a non-reentrant model
  1090 ;;
  1091                           
  1092                           
  1093                           ;psect for function _setup
  1094  040A                     _setup:
  1095  040A                     l1440:	
  1096                           ;incstack = 0
  1097                           ; Regs used in _setup: [wreg-fsr0h+status,2+status,0+btemp+1+pclath+cstack]
  1098                           
  1099                           
  1100                           ;C:/MPlab_Digital2/Digital_2/Proyecto2Digital2.X/main.c: 112:         case 1:
  1101  040A  120A  118A  24DC  120A  118A  	fcall	_initUSART
  1102  040F                     l1442:
  1103                           
  1104                           ;C:/MPlab_Digital2/Digital_2/Proyecto2Digital2.X/main.c: 113:             tabla_hex((hor
      +                          as & 0x0F), &TXREG);
  1105  040F  3006               	movlw	6
  1106  0410  120A  118A  23B3  120A  118A  	fcall	_initOsc
  1107  0415                     l1444:
  1108                           
  1109                           ;C:/MPlab_Digital2/Digital_2/Proyecto2Digital2.X/main.c: 114:             var_envio++;
  1110  0415  30D7               	movlw	215
  1111  0416  1683               	bsf	3,5	;RP0=1, select bank1
  1112  0417  1303               	bcf	3,6	;RP1=0, select bank1
  1113  0418  0081               	movwf	1	;volatile
  1114  0419                     l1446:
  1115                           
  1116                           ;C:/MPlab_Digital2/Digital_2/Proyecto2Digital2.X/main.c: 115:             break;
  1117  0419  1683               	bsf	3,5	;RP0=1, select bank3
  1118  041A  1703               	bsf	3,6	;RP1=1, select bank3
  1119  041B  0188               	clrf	8	;volatile
  1120  041C                     l1448:
  1121                           
  1122                           ;C:/MPlab_Digital2/Digital_2/Proyecto2Digital2.X/main.c: 116:         case 2:
  1123  041C  0189               	clrf	9	;volatile
  1124  041D                     l1450:
  1125                           
  1126                           ;C:/MPlab_Digital2/Digital_2/Proyecto2Digital2.X/main.c: 117:             TXREG = 58;
  1127  041D  1283               	bcf	3,5	;RP0=0, select bank0
  1128  041E  1303               	bcf	3,6	;RP1=0, select bank0
  1129  041F  0187               	clrf	7	;volatile
  1130  0420                     l1452:
  1131                           
  1132                           ;C:/MPlab_Digital2/Digital_2/Proyecto2Digital2.X/main.c: 118:             var_envio++;
  1133  0420  0188               	clrf	8	;volatile
  1134  0421                     l1454:
  1135                           
  1136                           ;C:/MPlab_Digital2/Digital_2/Proyecto2Digital2.X/main.c: 119:             break;
  1137  0421  1683               	bsf	3,5	;RP0=1, select bank1
  1138  0422  1303               	bcf	3,6	;RP1=0, select bank1
  1139  0423  0188               	clrf	8	;volatile
  1140  0424                     l1456:
  1141                           
  1142                           ;C:/MPlab_Digital2/Digital_2/Proyecto2Digital2.X/main.c: 120:         case 3:
  1143  0424  1283               	bcf	3,5	;RP0=0, select bank0
  1144  0425  1303               	bcf	3,6	;RP1=0, select bank0
  1145  0426  0186               	clrf	6	;volatile
  1146  0427                     l1458:
  1147                           
  1148                           ;C:/MPlab_Digital2/Digital_2/Proyecto2Digital2.X/main.c: 121:             tabla_hex(((mi
      +                          nutos & 0xF0)>>4), &TXREG);
  1149  0427  1683               	bsf	3,5	;RP0=1, select bank1
  1150  0428  1303               	bcf	3,6	;RP1=0, select bank1
  1151  0429  0189               	clrf	9	;volatile
  1152  042A                     l1460:
  1153                           
  1154                           ;C:/MPlab_Digital2/Digital_2/Proyecto2Digital2.X/main.c: 122:             var_envio++;
  1155  042A  1283               	bcf	3,5	;RP0=0, select bank0
  1156  042B  1303               	bcf	3,6	;RP1=0, select bank0
  1157  042C  0189               	clrf	9	;volatile
  1158  042D                     l1462:
  1159                           
  1160                           ;C:/MPlab_Digital2/Digital_2/Proyecto2Digital2.X/main.c: 123:             break;
  1161  042D  0185               	clrf	5	;volatile
  1162  042E                     l1464:
  1163                           
  1164                           ;C:/MPlab_Digital2/Digital_2/Proyecto2Digital2.X/main.c: 124:         case 4:
  1165  042E  1683               	bsf	3,5	;RP0=1, select bank1
  1166  042F  1303               	bcf	3,6	;RP1=0, select bank1
  1167  0430  0185               	clrf	5	;volatile
  1168  0431                     l1466:
  1169                           
  1170                           ;C:/MPlab_Digital2/Digital_2/Proyecto2Digital2.X/main.c: 125:             tabla_hex((min
      +                          utos & 0x0F), &TXREG);
  1171  0431  0186               	clrf	6	;volatile
  1172  0432                     l1468:
  1173                           
  1174                           ;C:/MPlab_Digital2/Digital_2/Proyecto2Digital2.X/main.c: 127:             break;
  1175  0432  3000               	movlw	0
  1176  0433  1283               	bcf	3,5	;RP0=0, select bank0
  1177  0434  1303               	bcf	3,6	;RP1=0, select bank0
  1178  0435  00B1               	movwf	I2C_Master_Init@c+3
  1179  0436  3001               	movlw	1
  1180  0437  00B0               	movwf	I2C_Master_Init@c+2
  1181  0438  3086               	movlw	134
  1182  0439  00AF               	movwf	I2C_Master_Init@c+1
  1183  043A  30A0               	movlw	160
  1184  043B  00AE               	movwf	I2C_Master_Init@c
  1185  043C  120A  118A  244C  120A  118A  	fcall	_I2C_Master_Init
  1186  0441                     l1470:
  1187                           
  1188                           ;C:/MPlab_Digital2/Digital_2/Proyecto2Digital2.X/main.c: 129:             TXREG = 58;
  1189  0441  178B               	bsf	11,7	;volatile
  1190  0442                     l1472:
  1191                           
  1192                           ;C:/MPlab_Digital2/Digital_2/Proyecto2Digital2.X/main.c: 130:             var_envio++;
  1193  0442  170B               	bsf	11,6	;volatile
  1194  0443                     l1474:
  1195                           
  1196                           ;C:/MPlab_Digital2/Digital_2/Proyecto2Digital2.X/main.c: 131:             break;
  1197  0443  168B               	bsf	11,5	;volatile
  1198  0444                     l1476:
  1199                           
  1200                           ;C:/MPlab_Digital2/Digital_2/Proyecto2Digital2.X/main.c: 132:         case 6:
  1201  0444  110B               	bcf	11,2	;volatile
  1202  0445                     l1478:
  1203                           
  1204                           ;C:/MPlab_Digital2/Digital_2/Proyecto2Digital2.X/main.c: 133:             tabla_hex(((se
      +                          gundos & 0xF0)>>4), &TXREG);
  1205  0445  1683               	bsf	3,5	;RP0=1, select bank1
  1206  0446  1303               	bcf	3,6	;RP1=0, select bank1
  1207  0447  160C               	bsf	12,4	;volatile
  1208  0448                     l1480:
  1209                           
  1210                           ;C:/MPlab_Digital2/Digital_2/Proyecto2Digital2.X/main.c: 134:             var_envio++;
  1211  0448  1283               	bcf	3,5	;RP0=0, select bank0
  1212  0449  1303               	bcf	3,6	;RP1=0, select bank0
  1213  044A  120C               	bcf	12,4	;volatile
  1214  044B                     l199:
  1215  044B  0008               	return
  1216  044C                     __end_of_setup:
  1217                           
  1218                           	psect	text2
  1219  04DC                     __ptext2:	
  1220 ;; *************** function _initUSART *****************
  1221 ;; Defined at:
  1222 ;;		line 12 in file "C:/MPlab_Digital2/Digital_2/Proyecto2Digital2.X/usart9600.c"
  1223 ;; Parameters:    Size  Location     Type
  1224 ;;		None
  1225 ;; Auto vars:     Size  Location     Type
  1226 ;;		None
  1227 ;; Return value:  Size  Location     Type
  1228 ;;                  1    wreg      void 
  1229 ;; Registers used:
  1230 ;;		wreg, status,2
  1231 ;; Tracked objects:
  1232 ;;		On entry : 0/0
  1233 ;;		On exit  : 0/0
  1234 ;;		Unchanged: 0/0
  1235 ;; Data sizes:     COMMON   BANK0   BANK1   BANK3   BANK2
  1236 ;;      Params:         0       0       0       0       0
  1237 ;;      Locals:         0       0       0       0       0
  1238 ;;      Temps:          0       0       0       0       0
  1239 ;;      Totals:         0       0       0       0       0
  1240 ;;Total ram usage:        0 bytes
  1241 ;; Hardware stack levels used:    1
  1242 ;; Hardware stack levels required when called:    3
  1243 ;; This function calls:
  1244 ;;		Nothing
  1245 ;; This function is called by:
  1246 ;;		_setup
  1247 ;; This function uses a non-reentrant model
  1248 ;;
  1249                           
  1250                           
  1251                           ;psect for function _initUSART
  1252  04DC                     _initUSART:
  1253  04DC                     l1278:	
  1254                           ;incstack = 0
  1255                           ; Regs used in _initUSART: [wreg+status,2]
  1256                           
  1257                           
  1258                           ;C:/MPlab_Digital2/Digital_2/Proyecto2Digital2.X/usart9600.c: 13:     TXSTAbits.TX9 = 0;
  1259  04DC  1683               	bsf	3,5	;RP0=1, select bank1
  1260  04DD  1303               	bcf	3,6	;RP1=0, select bank1
  1261  04DE  1318               	bcf	24,6	;volatile
  1262                           
  1263                           ;C:/MPlab_Digital2/Digital_2/Proyecto2Digital2.X/usart9600.c: 14:     TXSTAbits.SYNC = 0
      +                          ;
  1264  04DF  1218               	bcf	24,4	;volatile
  1265                           
  1266                           ;C:/MPlab_Digital2/Digital_2/Proyecto2Digital2.X/usart9600.c: 15:     TXSTAbits.BRGH = 1
      +                          ;
  1267  04E0  1518               	bsf	24,2	;volatile
  1268                           
  1269                           ;C:/MPlab_Digital2/Digital_2/Proyecto2Digital2.X/usart9600.c: 16:     BAUDCTLbits.BRG16 
      +                          = 0;
  1270  04E1  1683               	bsf	3,5	;RP0=1, select bank3
  1271  04E2  1703               	bsf	3,6	;RP1=1, select bank3
  1272  04E3  1187               	bcf	7,3	;volatile
  1273  04E4                     l1280:
  1274                           
  1275                           ;C:/MPlab_Digital2/Digital_2/Proyecto2Digital2.X/usart9600.c: 17:     SPBRG = 25;
  1276  04E4  3019               	movlw	25
  1277  04E5  1683               	bsf	3,5	;RP0=1, select bank1
  1278  04E6  1303               	bcf	3,6	;RP1=0, select bank1
  1279  04E7  0099               	movwf	25	;volatile
  1280  04E8                     l1282:
  1281                           
  1282                           ;C:/MPlab_Digital2/Digital_2/Proyecto2Digital2.X/usart9600.c: 18:     SPBRGH = 0;
  1283  04E8  019A               	clrf	26	;volatile
  1284  04E9                     l1284:
  1285                           
  1286                           ;C:/MPlab_Digital2/Digital_2/Proyecto2Digital2.X/usart9600.c: 19:     TXSTAbits.TXEN = 1
      +                          ;
  1287  04E9  1698               	bsf	24,5	;volatile
  1288  04EA                     l1286:
  1289                           
  1290                           ;C:/MPlab_Digital2/Digital_2/Proyecto2Digital2.X/usart9600.c: 20:     RCSTAbits.SPEN = 1
      +                          ;
  1291  04EA  1283               	bcf	3,5	;RP0=0, select bank0
  1292  04EB  1303               	bcf	3,6	;RP1=0, select bank0
  1293  04EC  1798               	bsf	24,7	;volatile
  1294  04ED                     l1288:
  1295                           
  1296                           ;C:/MPlab_Digital2/Digital_2/Proyecto2Digital2.X/usart9600.c: 21:     RCSTAbits.RX9 = 0;
  1297  04ED  1318               	bcf	24,6	;volatile
  1298  04EE                     l1290:
  1299                           
  1300                           ;C:/MPlab_Digital2/Digital_2/Proyecto2Digital2.X/usart9600.c: 22:     RCSTAbits.CREN = 1
      +                          ;
  1301  04EE  1618               	bsf	24,4	;volatile
  1302  04EF                     l83:
  1303  04EF  0008               	return
  1304  04F0                     __end_of_initUSART:
  1305                           
  1306                           	psect	text3
  1307  03B3                     __ptext3:	
  1308 ;; *************** function _initOsc *****************
  1309 ;; Defined at:
  1310 ;;		line 8 in file "C:/MPlab_Digital2/Digital_2/Proyecto2Digital2.X/librerias2.c"
  1311 ;; Parameters:    Size  Location     Type
  1312 ;;  option          1    wreg     unsigned char 
  1313 ;; Auto vars:     Size  Location     Type
  1314 ;;  option          1    2[BANK0 ] unsigned char 
  1315 ;; Return value:  Size  Location     Type
  1316 ;;                  1    wreg      void 
  1317 ;; Registers used:
  1318 ;;		wreg, fsr0l, fsr0h, status,2, status,0
  1319 ;; Tracked objects:
  1320 ;;		On entry : 0/0
  1321 ;;		On exit  : 0/0
  1322 ;;		Unchanged: 0/0
  1323 ;; Data sizes:     COMMON   BANK0   BANK1   BANK3   BANK2
  1324 ;;      Params:         0       0       0       0       0
  1325 ;;      Locals:         0       1       0       0       0
  1326 ;;      Temps:          0       2       0       0       0
  1327 ;;      Totals:         0       3       0       0       0
  1328 ;;Total ram usage:        3 bytes
  1329 ;; Hardware stack levels used:    1
  1330 ;; Hardware stack levels required when called:    3
  1331 ;; This function calls:
  1332 ;;		Nothing
  1333 ;; This function is called by:
  1334 ;;		_setup
  1335 ;; This function uses a non-reentrant model
  1336 ;;
  1337                           
  1338                           
  1339                           ;psect for function _initOsc
  1340  03B3                     _initOsc:
  1341                           
  1342                           ;incstack = 0
  1343                           ; Regs used in _initOsc: [wreg-fsr0h+status,2+status,0]
  1344                           ;initOsc@option stored from wreg
  1345  03B3  1283               	bcf	3,5	;RP0=0, select bank0
  1346  03B4  1303               	bcf	3,6	;RP1=0, select bank0
  1347  03B5  00A2               	movwf	initOsc@option
  1348  03B6                     l1266:
  1349                           
  1350                           ;C:/MPlab_Digital2/Digital_2/Proyecto2Digital2.X/librerias2.c: 9:     switch (option){
  1351  03B6  2BE7               	goto	l1270
  1352  03B7                     l61:	
  1353                           ;C:/MPlab_Digital2/Digital_2/Proyecto2Digital2.X/librerias2.c: 10:         case 0:
  1354                           
  1355                           
  1356                           ;C:/MPlab_Digital2/Digital_2/Proyecto2Digital2.X/librerias2.c: 11:             OSCCONbit
      +                          s.IRCF2 = 0;
  1357  03B7  1683               	bsf	3,5	;RP0=1, select bank1
  1358  03B8  1303               	bcf	3,6	;RP1=0, select bank1
  1359  03B9  130F               	bcf	15,6	;volatile
  1360                           
  1361                           ;C:/MPlab_Digital2/Digital_2/Proyecto2Digital2.X/librerias2.c: 12:             OSCCONbit
      +                          s.IRCF1 = 0;
  1362  03BA  128F               	bcf	15,5	;volatile
  1363                           
  1364                           ;C:/MPlab_Digital2/Digital_2/Proyecto2Digital2.X/librerias2.c: 13:             OSCCONbit
      +                          s.IRCF0 = 0;
  1365  03BB  120F               	bcf	15,4	;volatile
  1366                           
  1367                           ;C:/MPlab_Digital2/Digital_2/Proyecto2Digital2.X/librerias2.c: 14:             break;
  1368  03BC  2C09               	goto	l70
  1369  03BD                     l63:	
  1370                           ;C:/MPlab_Digital2/Digital_2/Proyecto2Digital2.X/librerias2.c: 15:         case 1:
  1371                           
  1372                           
  1373                           ;C:/MPlab_Digital2/Digital_2/Proyecto2Digital2.X/librerias2.c: 16:             OSCCONbit
      +                          s.IRCF2 = 0;
  1374  03BD  1683               	bsf	3,5	;RP0=1, select bank1
  1375  03BE  1303               	bcf	3,6	;RP1=0, select bank1
  1376  03BF  130F               	bcf	15,6	;volatile
  1377                           
  1378                           ;C:/MPlab_Digital2/Digital_2/Proyecto2Digital2.X/librerias2.c: 17:             OSCCONbit
      +                          s.IRCF1 = 0;
  1379  03C0  128F               	bcf	15,5	;volatile
  1380                           
  1381                           ;C:/MPlab_Digital2/Digital_2/Proyecto2Digital2.X/librerias2.c: 18:             OSCCONbit
      +                          s.IRCF0 = 1;
  1382  03C1  160F               	bsf	15,4	;volatile
  1383                           
  1384                           ;C:/MPlab_Digital2/Digital_2/Proyecto2Digital2.X/librerias2.c: 19:             break;
  1385  03C2  2C09               	goto	l70
  1386  03C3                     l64:	
  1387                           ;C:/MPlab_Digital2/Digital_2/Proyecto2Digital2.X/librerias2.c: 20:         case 2:
  1388                           
  1389                           
  1390                           ;C:/MPlab_Digital2/Digital_2/Proyecto2Digital2.X/librerias2.c: 21:             OSCCONbit
      +                          s.IRCF2 = 0;
  1391  03C3  1683               	bsf	3,5	;RP0=1, select bank1
  1392  03C4  1303               	bcf	3,6	;RP1=0, select bank1
  1393  03C5  130F               	bcf	15,6	;volatile
  1394                           
  1395                           ;C:/MPlab_Digital2/Digital_2/Proyecto2Digital2.X/librerias2.c: 22:             OSCCONbit
      +                          s.IRCF1 = 1;
  1396  03C6  168F               	bsf	15,5	;volatile
  1397                           
  1398                           ;C:/MPlab_Digital2/Digital_2/Proyecto2Digital2.X/librerias2.c: 23:             OSCCONbit
      +                          s.IRCF0 = 0;
  1399  03C7  120F               	bcf	15,4	;volatile
  1400                           
  1401                           ;C:/MPlab_Digital2/Digital_2/Proyecto2Digital2.X/librerias2.c: 24:             break;
  1402  03C8  2C09               	goto	l70
  1403  03C9                     l65:	
  1404                           ;C:/MPlab_Digital2/Digital_2/Proyecto2Digital2.X/librerias2.c: 25:         case 3:
  1405                           
  1406                           
  1407                           ;C:/MPlab_Digital2/Digital_2/Proyecto2Digital2.X/librerias2.c: 26:             OSCCONbit
      +                          s.IRCF2 = 0;
  1408  03C9  1683               	bsf	3,5	;RP0=1, select bank1
  1409  03CA  1303               	bcf	3,6	;RP1=0, select bank1
  1410  03CB  130F               	bcf	15,6	;volatile
  1411                           
  1412                           ;C:/MPlab_Digital2/Digital_2/Proyecto2Digital2.X/librerias2.c: 27:             OSCCONbit
      +                          s.IRCF1 = 1;
  1413  03CC  168F               	bsf	15,5	;volatile
  1414                           
  1415                           ;C:/MPlab_Digital2/Digital_2/Proyecto2Digital2.X/librerias2.c: 28:             OSCCONbit
      +                          s.IRCF0 = 1;
  1416  03CD  160F               	bsf	15,4	;volatile
  1417                           
  1418                           ;C:/MPlab_Digital2/Digital_2/Proyecto2Digital2.X/librerias2.c: 29:             break;
  1419  03CE  2C09               	goto	l70
  1420  03CF                     l66:	
  1421                           ;C:/MPlab_Digital2/Digital_2/Proyecto2Digital2.X/librerias2.c: 30:         case 4:
  1422                           
  1423                           
  1424                           ;C:/MPlab_Digital2/Digital_2/Proyecto2Digital2.X/librerias2.c: 31:             OSCCONbit
      +                          s.IRCF2 = 1;
  1425  03CF  1683               	bsf	3,5	;RP0=1, select bank1
  1426  03D0  1303               	bcf	3,6	;RP1=0, select bank1
  1427  03D1  170F               	bsf	15,6	;volatile
  1428                           
  1429                           ;C:/MPlab_Digital2/Digital_2/Proyecto2Digital2.X/librerias2.c: 32:             OSCCONbit
      +                          s.IRCF1 = 0;
  1430  03D2  128F               	bcf	15,5	;volatile
  1431                           
  1432                           ;C:/MPlab_Digital2/Digital_2/Proyecto2Digital2.X/librerias2.c: 33:             OSCCONbit
      +                          s.IRCF0 = 0;
  1433  03D3  120F               	bcf	15,4	;volatile
  1434                           
  1435                           ;C:/MPlab_Digital2/Digital_2/Proyecto2Digital2.X/librerias2.c: 34:             break;
  1436  03D4  2C09               	goto	l70
  1437  03D5                     l67:	
  1438                           ;C:/MPlab_Digital2/Digital_2/Proyecto2Digital2.X/librerias2.c: 35:         case 5:
  1439                           
  1440                           
  1441                           ;C:/MPlab_Digital2/Digital_2/Proyecto2Digital2.X/librerias2.c: 36:             OSCCONbit
      +                          s.IRCF2 = 1;
  1442  03D5  1683               	bsf	3,5	;RP0=1, select bank1
  1443  03D6  1303               	bcf	3,6	;RP1=0, select bank1
  1444  03D7  170F               	bsf	15,6	;volatile
  1445                           
  1446                           ;C:/MPlab_Digital2/Digital_2/Proyecto2Digital2.X/librerias2.c: 37:             OSCCONbit
      +                          s.IRCF1 = 0;
  1447  03D8  128F               	bcf	15,5	;volatile
  1448                           
  1449                           ;C:/MPlab_Digital2/Digital_2/Proyecto2Digital2.X/librerias2.c: 38:             OSCCONbit
      +                          s.IRCF0 = 1;
  1450  03D9  160F               	bsf	15,4	;volatile
  1451                           
  1452                           ;C:/MPlab_Digital2/Digital_2/Proyecto2Digital2.X/librerias2.c: 39:             break;
  1453  03DA  2C09               	goto	l70
  1454  03DB                     l68:	
  1455                           ;C:/MPlab_Digital2/Digital_2/Proyecto2Digital2.X/librerias2.c: 40:         case 6:
  1456                           
  1457                           
  1458                           ;C:/MPlab_Digital2/Digital_2/Proyecto2Digital2.X/librerias2.c: 41:             OSCCONbit
      +                          s.IRCF2 = 1;
  1459  03DB  1683               	bsf	3,5	;RP0=1, select bank1
  1460  03DC  1303               	bcf	3,6	;RP1=0, select bank1
  1461  03DD  170F               	bsf	15,6	;volatile
  1462                           
  1463                           ;C:/MPlab_Digital2/Digital_2/Proyecto2Digital2.X/librerias2.c: 42:             OSCCONbit
      +                          s.IRCF1 = 1;
  1464  03DE  168F               	bsf	15,5	;volatile
  1465                           
  1466                           ;C:/MPlab_Digital2/Digital_2/Proyecto2Digital2.X/librerias2.c: 43:             OSCCONbit
      +                          s.IRCF0 = 0;
  1467  03DF  120F               	bcf	15,4	;volatile
  1468                           
  1469                           ;C:/MPlab_Digital2/Digital_2/Proyecto2Digital2.X/librerias2.c: 44:             break;
  1470  03E0  2C09               	goto	l70
  1471  03E1                     l69:	
  1472                           ;C:/MPlab_Digital2/Digital_2/Proyecto2Digital2.X/librerias2.c: 45:         case 7:
  1473                           
  1474                           
  1475                           ;C:/MPlab_Digital2/Digital_2/Proyecto2Digital2.X/librerias2.c: 46:             OSCCONbit
      +                          s.IRCF2 = 1;
  1476  03E1  1683               	bsf	3,5	;RP0=1, select bank1
  1477  03E2  1303               	bcf	3,6	;RP1=0, select bank1
  1478  03E3  170F               	bsf	15,6	;volatile
  1479                           
  1480                           ;C:/MPlab_Digital2/Digital_2/Proyecto2Digital2.X/librerias2.c: 47:             OSCCONbit
      +                          s.IRCF1 = 1;
  1481  03E4  168F               	bsf	15,5	;volatile
  1482                           
  1483                           ;C:/MPlab_Digital2/Digital_2/Proyecto2Digital2.X/librerias2.c: 48:             OSCCONbit
      +                          s.IRCF0 = 1;
  1484  03E5  160F               	bsf	15,4	;volatile
  1485                           
  1486                           ;C:/MPlab_Digital2/Digital_2/Proyecto2Digital2.X/librerias2.c: 49:             break;
  1487  03E6  2C09               	goto	l70
  1488  03E7                     l1270:
  1489  03E7  0822               	movf	initOsc@option,w
  1490  03E8  00A0               	movwf	??_initOsc
  1491  03E9  01A1               	clrf	??_initOsc+1
  1492                           
  1493                           ; Switch on 2 bytes has been partitioned into a top level switch of size 1, and 1 sub-sw
      +                          itches
  1494                           ; Switch size 1, requested type "simple"
  1495                           ; Number of cases is 1, Range of values is 0 to 0
  1496                           ; switch strategies available:
  1497                           ; Name         Instructions Cycles
  1498                           ; simple_byte            4     3 (average)
  1499                           ; direct_byte           11     8 (fixed)
  1500                           ; jumptable            260     6 (fixed)
  1501                           ;	Chosen strategy is simple_byte
  1502  03EA  0821               	movf	??_initOsc+1,w
  1503  03EB  3A00               	xorlw	0	; case 0
  1504  03EC  1903               	skipnz
  1505  03ED  2BEF               	goto	l1624
  1506  03EE  2C09               	goto	l70
  1507  03EF                     l1624:
  1508                           
  1509                           ; Switch size 1, requested type "simple"
  1510                           ; Number of cases is 8, Range of values is 0 to 7
  1511                           ; switch strategies available:
  1512                           ; Name         Instructions Cycles
  1513                           ; simple_byte           25    13 (average)
  1514                           ; direct_byte           32     8 (fixed)
  1515                           ; jumptable            260     6 (fixed)
  1516                           ;	Chosen strategy is simple_byte
  1517  03EF  0820               	movf	??_initOsc,w
  1518  03F0  3A00               	xorlw	0	; case 0
  1519  03F1  1903               	skipnz
  1520  03F2  2BB7               	goto	l61
  1521  03F3  3A01               	xorlw	1	; case 1
  1522  03F4  1903               	skipnz
  1523  03F5  2BBD               	goto	l63
  1524  03F6  3A03               	xorlw	3	; case 2
  1525  03F7  1903               	skipnz
  1526  03F8  2BC3               	goto	l64
  1527  03F9  3A01               	xorlw	1	; case 3
  1528  03FA  1903               	skipnz
  1529  03FB  2BC9               	goto	l65
  1530  03FC  3A07               	xorlw	7	; case 4
  1531  03FD  1903               	skipnz
  1532  03FE  2BCF               	goto	l66
  1533  03FF  3A01               	xorlw	1	; case 5
  1534  0400  1903               	skipnz
  1535  0401  2BD5               	goto	l67
  1536  0402  3A03               	xorlw	3	; case 6
  1537  0403  1903               	skipnz
  1538  0404  2BDB               	goto	l68
  1539  0405  3A01               	xorlw	1	; case 7
  1540  0406  1903               	skipnz
  1541  0407  2BE1               	goto	l69
  1542  0408  2C09               	goto	l70
  1543  0409                     l70:
  1544  0409  0008               	return
  1545  040A                     __end_of_initOsc:
  1546                           
  1547                           	psect	text4
  1548  044C                     __ptext4:	
  1549 ;; *************** function _I2C_Master_Init *****************
  1550 ;; Defined at:
  1551 ;;		line 17 in file "C:/MPlab_Digital2/Digital_2/Proyecto2Digital2.X/I2C.c"
  1552 ;; Parameters:    Size  Location     Type
  1553 ;;  c               4   14[BANK0 ] const unsigned long 
  1554 ;; Auto vars:     Size  Location     Type
  1555 ;;		None
  1556 ;; Return value:  Size  Location     Type
  1557 ;;                  1    wreg      void 
  1558 ;; Registers used:
  1559 ;;		wreg, status,2, status,0, btemp+1, pclath, cstack
  1560 ;; Tracked objects:
  1561 ;;		On entry : 0/0
  1562 ;;		On exit  : 0/0
  1563 ;;		Unchanged: 0/0
  1564 ;; Data sizes:     COMMON   BANK0   BANK1   BANK3   BANK2
  1565 ;;      Params:         0       4       0       0       0
  1566 ;;      Locals:         0       0       0       0       0
  1567 ;;      Temps:          0       4       0       0       0
  1568 ;;      Totals:         0       8       0       0       0
  1569 ;;Total ram usage:        8 bytes
  1570 ;; Hardware stack levels used:    1
  1571 ;; Hardware stack levels required when called:    4
  1572 ;; This function calls:
  1573 ;;		___lldiv
  1574 ;; This function is called by:
  1575 ;;		_setup
  1576 ;; This function uses a non-reentrant model
  1577 ;;
  1578                           
  1579                           
  1580                           ;psect for function _I2C_Master_Init
  1581  044C                     _I2C_Master_Init:
  1582  044C                     l1248:	
  1583                           ;incstack = 0
  1584                           ; Regs used in _I2C_Master_Init: [wreg+status,2+status,0+btemp+1+pclath+cstack]
  1585                           
  1586                           
  1587                           ;C:/MPlab_Digital2/Digital_2/Proyecto2Digital2.X/I2C.c: 17: void I2C_Master_Init(const u
      +                          nsigned long c);C:/MPlab_Digital2/Digital_2/Proyecto2Digital2.X/I2C.c: 18: {;C:/MPlab_Di
      +                          gital2/Digital_2/Proyecto2Digital2.X/I2C.c: 19:     SSPCON = 0b00101000;
  1588  044C  3028               	movlw	40
  1589  044D  1283               	bcf	3,5	;RP0=0, select bank0
  1590  044E  1303               	bcf	3,6	;RP1=0, select bank0
  1591  044F  0094               	movwf	20	;volatile
  1592  0450                     l1250:
  1593                           
  1594                           ;C:/MPlab_Digital2/Digital_2/Proyecto2Digital2.X/I2C.c: 20:     SSPCON2 = 0;
  1595  0450  1683               	bsf	3,5	;RP0=1, select bank1
  1596  0451  1303               	bcf	3,6	;RP1=0, select bank1
  1597  0452  0191               	clrf	17	;volatile
  1598  0453                     l1252:
  1599                           
  1600                           ;C:/MPlab_Digital2/Digital_2/Proyecto2Digital2.X/I2C.c: 21:     SSPCON2bits.ACKSTAT = 0;
  1601  0453  1311               	bcf	17,6	;volatile
  1602  0454                     l1254:
  1603                           
  1604                           ;C:/MPlab_Digital2/Digital_2/Proyecto2Digital2.X/I2C.c: 22:     SSPADD = (4000000/(4*c))
      +                          -1;
  1605  0454  1283               	bcf	3,5	;RP0=0, select bank0
  1606  0455  1303               	bcf	3,6	;RP1=0, select bank0
  1607  0456  082E               	movf	I2C_Master_Init@c,w
  1608  0457  00B2               	movwf	??_I2C_Master_Init
  1609  0458  082F               	movf	I2C_Master_Init@c+1,w
  1610  0459  00B3               	movwf	??_I2C_Master_Init+1
  1611  045A  0830               	movf	I2C_Master_Init@c+2,w
  1612  045B  00B4               	movwf	??_I2C_Master_Init+2
  1613  045C  0831               	movf	I2C_Master_Init@c+3,w
  1614  045D  00B5               	movwf	??_I2C_Master_Init+3
  1615  045E  3002               	movlw	2
  1616  045F                     u285:
  1617  045F  1003               	clrc
  1618  0460  0DB2               	rlf	??_I2C_Master_Init,f
  1619  0461  0DB3               	rlf	??_I2C_Master_Init+1,f
  1620  0462  0DB4               	rlf	??_I2C_Master_Init+2,f
  1621  0463  0DB5               	rlf	??_I2C_Master_Init+3,f
  1622  0464                     u280:
  1623  0464  3EFF               	addlw	-1
  1624  0465  1D03               	skipz
  1625  0466  2C5F               	goto	u285
  1626  0467  0835               	movf	??_I2C_Master_Init+3,w
  1627  0468  00A3               	movwf	___lldiv@divisor+3
  1628  0469  0834               	movf	??_I2C_Master_Init+2,w
  1629  046A  00A2               	movwf	___lldiv@divisor+2
  1630  046B  0833               	movf	??_I2C_Master_Init+1,w
  1631  046C  00A1               	movwf	___lldiv@divisor+1
  1632  046D  0832               	movf	??_I2C_Master_Init,w
  1633  046E  00A0               	movwf	___lldiv@divisor
  1634  046F  3000               	movlw	0
  1635  0470  00A7               	movwf	___lldiv@dividend+3
  1636  0471  303D               	movlw	61
  1637  0472  00A6               	movwf	___lldiv@dividend+2
  1638  0473  3009               	movlw	9
  1639  0474  00A5               	movwf	___lldiv@dividend+1
  1640  0475  3000               	movlw	0
  1641  0476  00A4               	movwf	___lldiv@dividend
  1642  0477  120A  118A  234B  120A  118A  	fcall	___lldiv
  1643  047C  1283               	bcf	3,5	;RP0=0, select bank0
  1644  047D  1303               	bcf	3,6	;RP1=0, select bank0
  1645  047E  0820               	movf	?___lldiv,w
  1646  047F  3EFF               	addlw	255
  1647  0480  1683               	bsf	3,5	;RP0=1, select bank1
  1648  0481  1303               	bcf	3,6	;RP1=0, select bank1
  1649  0482  0093               	movwf	19	;volatile
  1650  0483                     l1256:
  1651                           
  1652                           ;C:/MPlab_Digital2/Digital_2/Proyecto2Digital2.X/I2C.c: 23:     SSPSTAT = 0;
  1653  0483  0194               	clrf	20	;volatile
  1654  0484                     l1258:
  1655                           
  1656                           ;C:/MPlab_Digital2/Digital_2/Proyecto2Digital2.X/I2C.c: 24:     TRISCbits.TRISC3 = 1;
  1657  0484  1587               	bsf	7,3	;volatile
  1658  0485                     l1260:
  1659                           
  1660                           ;C:/MPlab_Digital2/Digital_2/Proyecto2Digital2.X/I2C.c: 25:     TRISCbits.TRISC4 = 1;
  1661  0485  1607               	bsf	7,4	;volatile
  1662  0486                     l29:
  1663  0486  0008               	return
  1664  0487                     __end_of_I2C_Master_Init:
  1665                           
  1666                           	psect	text5
  1667  034B                     __ptext5:	
  1668 ;; *************** function ___lldiv *****************
  1669 ;; Defined at:
  1670 ;;		line 5 in file "C:\Program Files\Microchip\xc8\v2.20\pic\sources\c90\common\__lldiv.c"
  1671 ;; Parameters:    Size  Location     Type
  1672 ;;  divisor         4    0[BANK0 ] unsigned long 
  1673 ;;  dividend        4    4[BANK0 ] unsigned long 
  1674 ;; Auto vars:     Size  Location     Type
  1675 ;;  quotient        4    9[BANK0 ] unsigned long 
  1676 ;;  counter         1   13[BANK0 ] unsigned char 
  1677 ;; Return value:  Size  Location     Type
  1678 ;;                  4    0[BANK0 ] unsigned long 
  1679 ;; Registers used:
  1680 ;;		wreg, status,2, status,0, btemp+1
  1681 ;; Tracked objects:
  1682 ;;		On entry : 0/0
  1683 ;;		On exit  : 0/0
  1684 ;;		Unchanged: 0/0
  1685 ;; Data sizes:     COMMON   BANK0   BANK1   BANK3   BANK2
  1686 ;;      Params:         0       8       0       0       0
  1687 ;;      Locals:         0       5       0       0       0
  1688 ;;      Temps:          0       1       0       0       0
  1689 ;;      Totals:         0      14       0       0       0
  1690 ;;Total ram usage:       14 bytes
  1691 ;; Hardware stack levels used:    1
  1692 ;; Hardware stack levels required when called:    3
  1693 ;; This function calls:
  1694 ;;		Nothing
  1695 ;; This function is called by:
  1696 ;;		_I2C_Master_Init
  1697 ;; This function uses a non-reentrant model
  1698 ;;
  1699                           
  1700                           
  1701                           ;psect for function ___lldiv
  1702  034B                     ___lldiv:
  1703  034B                     l1222:	
  1704                           ;incstack = 0
  1705                           ; Regs used in ___lldiv: [wreg+status,2+status,0+btemp+1]
  1706                           
  1707  034B  3000               	movlw	0
  1708  034C  1283               	bcf	3,5	;RP0=0, select bank0
  1709  034D  1303               	bcf	3,6	;RP1=0, select bank0
  1710  034E  00AC               	movwf	___lldiv@quotient+3
  1711  034F  3000               	movlw	0
  1712  0350  00AB               	movwf	___lldiv@quotient+2
  1713  0351  3000               	movlw	0
  1714  0352  00AA               	movwf	___lldiv@quotient+1
  1715  0353  3000               	movlw	0
  1716  0354  00A9               	movwf	___lldiv@quotient
  1717  0355  0823               	movf	___lldiv@divisor+3,w
  1718  0356  0422               	iorwf	___lldiv@divisor+2,w
  1719  0357  0421               	iorwf	___lldiv@divisor+1,w
  1720  0358  0420               	iorwf	___lldiv@divisor,w
  1721  0359  1903               	skipnz
  1722  035A  2B5C               	goto	u211
  1723  035B  2B5D               	goto	u210
  1724  035C                     u211:
  1725  035C  2BAA               	goto	l1244
  1726  035D                     u210:
  1727  035D                     l1224:
  1728  035D  01AD               	clrf	___lldiv@counter
  1729  035E  0AAD               	incf	___lldiv@counter,f
  1730  035F  2B6D               	goto	l1230
  1731  0360                     l1226:
  1732  0360  3001               	movlw	1
  1733  0361  00A8               	movwf	??___lldiv
  1734  0362                     u225:
  1735  0362  1003               	clrc
  1736  0363  0DA0               	rlf	___lldiv@divisor,f
  1737  0364  0DA1               	rlf	___lldiv@divisor+1,f
  1738  0365  0DA2               	rlf	___lldiv@divisor+2,f
  1739  0366  0DA3               	rlf	___lldiv@divisor+3,f
  1740  0367  0BA8               	decfsz	??___lldiv,f
  1741  0368  2B62               	goto	u225
  1742  0369                     l1228:
  1743  0369  3001               	movlw	1
  1744  036A  00FF               	movwf	btemp+1
  1745  036B  087F               	movf	btemp+1,w
  1746  036C  07AD               	addwf	___lldiv@counter,f
  1747  036D                     l1230:
  1748  036D  1FA3               	btfss	___lldiv@divisor+3,7
  1749  036E  2B70               	goto	u231
  1750  036F  2B71               	goto	u230
  1751  0370                     u231:
  1752  0370  2B60               	goto	l1226
  1753  0371                     u230:
  1754  0371                     l1232:
  1755  0371  3001               	movlw	1
  1756  0372  00A8               	movwf	??___lldiv
  1757  0373                     u245:
  1758  0373  1003               	clrc
  1759  0374  0DA9               	rlf	___lldiv@quotient,f
  1760  0375  0DAA               	rlf	___lldiv@quotient+1,f
  1761  0376  0DAB               	rlf	___lldiv@quotient+2,f
  1762  0377  0DAC               	rlf	___lldiv@quotient+3,f
  1763  0378  0BA8               	decfsz	??___lldiv,f
  1764  0379  2B73               	goto	u245
  1765  037A                     l1234:
  1766  037A  0823               	movf	___lldiv@divisor+3,w
  1767  037B  0227               	subwf	___lldiv@dividend+3,w
  1768  037C  1D03               	skipz
  1769  037D  2B88               	goto	u255
  1770  037E  0822               	movf	___lldiv@divisor+2,w
  1771  037F  0226               	subwf	___lldiv@dividend+2,w
  1772  0380  1D03               	skipz
  1773  0381  2B88               	goto	u255
  1774  0382  0821               	movf	___lldiv@divisor+1,w
  1775  0383  0225               	subwf	___lldiv@dividend+1,w
  1776  0384  1D03               	skipz
  1777  0385  2B88               	goto	u255
  1778  0386  0820               	movf	___lldiv@divisor,w
  1779  0387  0224               	subwf	___lldiv@dividend,w
  1780  0388                     u255:
  1781  0388  1C03               	skipc
  1782  0389  2B8B               	goto	u251
  1783  038A  2B8C               	goto	u250
  1784  038B                     u251:
  1785  038B  2B9B               	goto	l1240
  1786  038C                     u250:
  1787  038C                     l1236:
  1788  038C  0820               	movf	___lldiv@divisor,w
  1789  038D  02A4               	subwf	___lldiv@dividend,f
  1790  038E  0821               	movf	___lldiv@divisor+1,w
  1791  038F  1C03               	skipc
  1792  0390  0F21               	incfsz	___lldiv@divisor+1,w
  1793  0391  02A5               	subwf	___lldiv@dividend+1,f
  1794  0392  0822               	movf	___lldiv@divisor+2,w
  1795  0393  1C03               	skipc
  1796  0394  0F22               	incfsz	___lldiv@divisor+2,w
  1797  0395  02A6               	subwf	___lldiv@dividend+2,f
  1798  0396  0823               	movf	___lldiv@divisor+3,w
  1799  0397  1C03               	skipc
  1800  0398  0F23               	incfsz	___lldiv@divisor+3,w
  1801  0399  02A7               	subwf	___lldiv@dividend+3,f
  1802  039A                     l1238:
  1803  039A  1429               	bsf	___lldiv@quotient,0
  1804  039B                     l1240:
  1805  039B  3001               	movlw	1
  1806  039C                     u265:
  1807  039C  1003               	clrc
  1808  039D  0CA3               	rrf	___lldiv@divisor+3,f
  1809  039E  0CA2               	rrf	___lldiv@divisor+2,f
  1810  039F  0CA1               	rrf	___lldiv@divisor+1,f
  1811  03A0  0CA0               	rrf	___lldiv@divisor,f
  1812  03A1  3EFF               	addlw	-1
  1813  03A2  1D03               	skipz
  1814  03A3  2B9C               	goto	u265
  1815  03A4                     l1242:
  1816  03A4  3001               	movlw	1
  1817  03A5  02AD               	subwf	___lldiv@counter,f
  1818  03A6  1D03               	btfss	3,2
  1819  03A7  2BA9               	goto	u271
  1820  03A8  2BAA               	goto	u270
  1821  03A9                     u271:
  1822  03A9  2B71               	goto	l1232
  1823  03AA                     u270:
  1824  03AA                     l1244:
  1825  03AA  082C               	movf	___lldiv@quotient+3,w
  1826  03AB  00A3               	movwf	?___lldiv+3
  1827  03AC  082B               	movf	___lldiv@quotient+2,w
  1828  03AD  00A2               	movwf	?___lldiv+2
  1829  03AE  082A               	movf	___lldiv@quotient+1,w
  1830  03AF  00A1               	movwf	?___lldiv+1
  1831  03B0  0829               	movf	___lldiv@quotient,w
  1832  03B1  00A0               	movwf	?___lldiv
  1833  03B2                     l348:
  1834  03B2  0008               	return
  1835  03B3                     __end_of___lldiv:
  1836                           
  1837                           	psect	text6
  1838  04FD                     __ptext6:	
  1839 ;; *************** function _TX_GO *****************
  1840 ;; Defined at:
  1841 ;;		line 136 in file "C:/MPlab_Digital2/Digital_2/Proyecto2Digital2.X/main.c"
  1842 ;; Parameters:    Size  Location     Type
  1843 ;;		None
  1844 ;; Auto vars:     Size  Location     Type
  1845 ;;		None
  1846 ;; Return value:  Size  Location     Type
  1847 ;;                  1    wreg      void 
  1848 ;; Registers used:
  1849 ;;		wreg, status,2
  1850 ;; Tracked objects:
  1851 ;;		On entry : 0/0
  1852 ;;		On exit  : 0/0
  1853 ;;		Unchanged: 0/0
  1854 ;; Data sizes:     COMMON   BANK0   BANK1   BANK3   BANK2
  1855 ;;      Params:         0       0       0       0       0
  1856 ;;      Locals:         0       0       0       0       0
  1857 ;;      Temps:          0       0       0       0       0
  1858 ;;      Totals:         0       0       0       0       0
  1859 ;;Total ram usage:        0 bytes
  1860 ;; Hardware stack levels used:    1
  1861 ;; Hardware stack levels required when called:    3
  1862 ;; This function calls:
  1863 ;;		Nothing
  1864 ;; This function is called by:
  1865 ;;		_main
  1866 ;; This function uses a non-reentrant model
  1867 ;;
  1868                           
  1869                           
  1870                           ;psect for function _TX_GO
  1871  04FD                     _TX_GO:
  1872  04FD                     l1482:	
  1873                           ;incstack = 0
  1874                           ; Regs used in _TX_GO: [wreg+status,2]
  1875                           
  1876                           
  1877                           ;C:/MPlab_Digital2/Digital_2/Proyecto2Digital2.X/main.c: 137:             tabla_hex((seg
      +                          undos & 0x0F), &TXREG);
  1878  04FD  300B               	movlw	11
  1879  04FE  027D               	subwf	_controles,w
  1880  04FF  1C03               	skipc
  1881  0500  2D02               	goto	u381
  1882  0501  2D03               	goto	u380
  1883  0502                     u381:
  1884  0502  2D07               	goto	l203
  1885  0503                     u380:
  1886  0503                     l1484:
  1887                           
  1888                           ;C:/MPlab_Digital2/Digital_2/Proyecto2Digital2.X/main.c: 138:             var_envio++;
  1889  0503  01FD               	clrf	_controles
  1890  0504                     l1486:
  1891                           
  1892                           ;C:/MPlab_Digital2/Digital_2/Proyecto2Digital2.X/main.c: 139:             break;
  1893  0504  1683               	bsf	3,5	;RP0=1, select bank1
  1894  0505  1303               	bcf	3,6	;RP1=0, select bank1
  1895  0506  160C               	bsf	12,4	;volatile
  1896  0507                     l203:
  1897  0507  0008               	return
  1898  0508                     __end_of_TX_GO:
  1899                           
  1900                           	psect	text7
  1901  0508                     __ptext7:	
  1902 ;; *************** function _I2C_Master_Write *****************
  1903 ;; Defined at:
  1904 ;;		line 67 in file "C:/MPlab_Digital2/Digital_2/Proyecto2Digital2.X/I2C.c"
  1905 ;; Parameters:    Size  Location     Type
  1906 ;;  d               2    0[BANK0 ] unsigned int 
  1907 ;; Auto vars:     Size  Location     Type
  1908 ;;		None
  1909 ;; Return value:  Size  Location     Type
  1910 ;;                  1    wreg      void 
  1911 ;; Registers used:
  1912 ;;		wreg, status,2, status,0, pclath, cstack
  1913 ;; Tracked objects:
  1914 ;;		On entry : 0/0
  1915 ;;		On exit  : 0/0
  1916 ;;		Unchanged: 0/0
  1917 ;; Data sizes:     COMMON   BANK0   BANK1   BANK3   BANK2
  1918 ;;      Params:         0       2       0       0       0
  1919 ;;      Locals:         0       0       0       0       0
  1920 ;;      Temps:          0       0       0       0       0
  1921 ;;      Totals:         0       2       0       0       0
  1922 ;;Total ram usage:        2 bytes
  1923 ;; Hardware stack levels used:    1
  1924 ;; Hardware stack levels required when called:    4
  1925 ;; This function calls:
  1926 ;;		_I2C_Master_Wait
  1927 ;; This function is called by:
  1928 ;;		_main
  1929 ;; This function uses a non-reentrant model
  1930 ;;
  1931                           
  1932                           
  1933                           ;psect for function _I2C_Master_Write
  1934  0508                     _I2C_Master_Write:
  1935  0508                     l1348:	
  1936                           ;incstack = 0
  1937                           ; Regs used in _I2C_Master_Write: [wreg+status,2+status,0+pclath+cstack]
  1938                           
  1939                           
  1940                           ;C:/MPlab_Digital2/Digital_2/Proyecto2Digital2.X/I2C.c: 67: void I2C_Master_Write(unsign
      +                          ed d);C:/MPlab_Digital2/Digital_2/Proyecto2Digital2.X/I2C.c: 68: {;C:/MPlab_Digital2/Dig
      +                          ital_2/Proyecto2Digital2.X/I2C.c: 69:     I2C_Master_Wait();
  1941  0508  120A  118A  24F0  120A  118A  	fcall	_I2C_Master_Wait
  1942  050D                     l1350:
  1943                           
  1944                           ;C:/MPlab_Digital2/Digital_2/Proyecto2Digital2.X/I2C.c: 70:     SSPBUF = d;
  1945  050D  1283               	bcf	3,5	;RP0=0, select bank0
  1946  050E  1303               	bcf	3,6	;RP1=0, select bank0
  1947  050F  0820               	movf	I2C_Master_Write@d,w
  1948  0510  0093               	movwf	19	;volatile
  1949  0511                     l47:
  1950  0511  0008               	return
  1951  0512                     __end_of_I2C_Master_Write:
  1952                           
  1953                           	psect	text8
  1954  0512                     __ptext8:	
  1955 ;; *************** function _I2C_Master_Stop *****************
  1956 ;; Defined at:
  1957 ;;		line 57 in file "C:/MPlab_Digital2/Digital_2/Proyecto2Digital2.X/I2C.c"
  1958 ;; Parameters:    Size  Location     Type
  1959 ;;		None
  1960 ;; Auto vars:     Size  Location     Type
  1961 ;;		None
  1962 ;; Return value:  Size  Location     Type
  1963 ;;                  1    wreg      void 
  1964 ;; Registers used:
  1965 ;;		wreg, status,2, status,0, pclath, cstack
  1966 ;; Tracked objects:
  1967 ;;		On entry : 0/0
  1968 ;;		On exit  : 0/0
  1969 ;;		Unchanged: 0/0
  1970 ;; Data sizes:     COMMON   BANK0   BANK1   BANK3   BANK2
  1971 ;;      Params:         0       0       0       0       0
  1972 ;;      Locals:         0       0       0       0       0
  1973 ;;      Temps:          0       0       0       0       0
  1974 ;;      Totals:         0       0       0       0       0
  1975 ;;Total ram usage:        0 bytes
  1976 ;; Hardware stack levels used:    1
  1977 ;; Hardware stack levels required when called:    4
  1978 ;; This function calls:
  1979 ;;		_I2C_Master_Wait
  1980 ;; This function is called by:
  1981 ;;		_main
  1982 ;; This function uses a non-reentrant model
  1983 ;;
  1984                           
  1985                           
  1986                           ;psect for function _I2C_Master_Stop
  1987  0512                     _I2C_Master_Stop:
  1988  0512                     l1344:	
  1989                           ;incstack = 0
  1990                           ; Regs used in _I2C_Master_Stop: [wreg+status,2+status,0+pclath+cstack]
  1991                           
  1992                           
  1993                           ;C:/MPlab_Digital2/Digital_2/Proyecto2Digital2.X/I2C.c: 59:     I2C_Master_Wait();
  1994  0512  120A  118A  24F0  120A  118A  	fcall	_I2C_Master_Wait
  1995  0517                     l1346:
  1996                           
  1997                           ;C:/MPlab_Digital2/Digital_2/Proyecto2Digital2.X/I2C.c: 60:     SSPCON2bits.PEN = 1;
  1998  0517  1683               	bsf	3,5	;RP0=1, select bank1
  1999  0518  1303               	bcf	3,6	;RP1=0, select bank1
  2000  0519  1511               	bsf	17,2	;volatile
  2001  051A                     l44:
  2002  051A  0008               	return
  2003  051B                     __end_of_I2C_Master_Stop:
  2004                           
  2005                           	psect	text9
  2006  051B                     __ptext9:	
  2007 ;; *************** function _I2C_Master_Start *****************
  2008 ;; Defined at:
  2009 ;;		line 41 in file "C:/MPlab_Digital2/Digital_2/Proyecto2Digital2.X/I2C.c"
  2010 ;; Parameters:    Size  Location     Type
  2011 ;;		None
  2012 ;; Auto vars:     Size  Location     Type
  2013 ;;		None
  2014 ;; Return value:  Size  Location     Type
  2015 ;;                  1    wreg      void 
  2016 ;; Registers used:
  2017 ;;		wreg, status,2, status,0, pclath, cstack
  2018 ;; Tracked objects:
  2019 ;;		On entry : 0/0
  2020 ;;		On exit  : 0/0
  2021 ;;		Unchanged: 0/0
  2022 ;; Data sizes:     COMMON   BANK0   BANK1   BANK3   BANK2
  2023 ;;      Params:         0       0       0       0       0
  2024 ;;      Locals:         0       0       0       0       0
  2025 ;;      Temps:          0       0       0       0       0
  2026 ;;      Totals:         0       0       0       0       0
  2027 ;;Total ram usage:        0 bytes
  2028 ;; Hardware stack levels used:    1
  2029 ;; Hardware stack levels required when called:    4
  2030 ;; This function calls:
  2031 ;;		_I2C_Master_Wait
  2032 ;; This function is called by:
  2033 ;;		_main
  2034 ;; This function uses a non-reentrant model
  2035 ;;
  2036                           
  2037                           
  2038                           ;psect for function _I2C_Master_Start
  2039  051B                     _I2C_Master_Start:
  2040  051B                     l1336:	
  2041                           ;incstack = 0
  2042                           ; Regs used in _I2C_Master_Start: [wreg+status,2+status,0+pclath+cstack]
  2043                           
  2044                           
  2045                           ;C:/MPlab_Digital2/Digital_2/Proyecto2Digital2.X/I2C.c: 43:     I2C_Master_Wait();
  2046  051B  120A  118A  24F0  120A  118A  	fcall	_I2C_Master_Wait
  2047  0520                     l1338:
  2048                           
  2049                           ;C:/MPlab_Digital2/Digital_2/Proyecto2Digital2.X/I2C.c: 44:     SSPCON2bits.SEN = 1;
  2050  0520  1683               	bsf	3,5	;RP0=1, select bank1
  2051  0521  1303               	bcf	3,6	;RP1=0, select bank1
  2052  0522  1411               	bsf	17,0	;volatile
  2053  0523                     l38:
  2054  0523  0008               	return
  2055  0524                     __end_of_I2C_Master_Start:
  2056                           
  2057                           	psect	text10
  2058  0524                     __ptext10:	
  2059 ;; *************** function _I2C_Master_RepeatedStart *****************
  2060 ;; Defined at:
  2061 ;;		line 49 in file "C:/MPlab_Digital2/Digital_2/Proyecto2Digital2.X/I2C.c"
  2062 ;; Parameters:    Size  Location     Type
  2063 ;;		None
  2064 ;; Auto vars:     Size  Location     Type
  2065 ;;		None
  2066 ;; Return value:  Size  Location     Type
  2067 ;;                  1    wreg      void 
  2068 ;; Registers used:
  2069 ;;		wreg, status,2, status,0, pclath, cstack
  2070 ;; Tracked objects:
  2071 ;;		On entry : 0/0
  2072 ;;		On exit  : 0/0
  2073 ;;		Unchanged: 0/0
  2074 ;; Data sizes:     COMMON   BANK0   BANK1   BANK3   BANK2
  2075 ;;      Params:         0       0       0       0       0
  2076 ;;      Locals:         0       0       0       0       0
  2077 ;;      Temps:          0       0       0       0       0
  2078 ;;      Totals:         0       0       0       0       0
  2079 ;;Total ram usage:        0 bytes
  2080 ;; Hardware stack levels used:    1
  2081 ;; Hardware stack levels required when called:    4
  2082 ;; This function calls:
  2083 ;;		_I2C_Master_Wait
  2084 ;; This function is called by:
  2085 ;;		_main
  2086 ;; This function uses a non-reentrant model
  2087 ;;
  2088                           
  2089                           
  2090                           ;psect for function _I2C_Master_RepeatedStart
  2091  0524                     _I2C_Master_RepeatedStart:
  2092  0524                     l1340:	
  2093                           ;incstack = 0
  2094                           ; Regs used in _I2C_Master_RepeatedStart: [wreg+status,2+status,0+pclath+cstack]
  2095                           
  2096                           
  2097                           ;C:/MPlab_Digital2/Digital_2/Proyecto2Digital2.X/I2C.c: 51:     I2C_Master_Wait();
  2098  0524  120A  118A  24F0  120A  118A  	fcall	_I2C_Master_Wait
  2099  0529                     l1342:
  2100                           
  2101                           ;C:/MPlab_Digital2/Digital_2/Proyecto2Digital2.X/I2C.c: 52:     SSPCON2bits.RSEN = 1;
  2102  0529  1683               	bsf	3,5	;RP0=1, select bank1
  2103  052A  1303               	bcf	3,6	;RP1=0, select bank1
  2104  052B  1491               	bsf	17,1	;volatile
  2105  052C                     l41:
  2106  052C  0008               	return
  2107  052D                     __end_of_I2C_Master_RepeatedStart:
  2108                           
  2109                           	psect	text11
  2110  0487                     __ptext11:	
  2111 ;; *************** function _I2C_Master_Read *****************
  2112 ;; Defined at:
  2113 ;;		line 76 in file "C:/MPlab_Digital2/Digital_2/Proyecto2Digital2.X/I2C.c"
  2114 ;; Parameters:    Size  Location     Type
  2115 ;;  a               2    0[BANK0 ] unsigned short 
  2116 ;; Auto vars:     Size  Location     Type
  2117 ;;  temp            2    4[BANK0 ] unsigned short 
  2118 ;; Return value:  Size  Location     Type
  2119 ;;                  2    0[BANK0 ] unsigned short 
  2120 ;; Registers used:
  2121 ;;		wreg, status,2, status,0, pclath, cstack
  2122 ;; Tracked objects:
  2123 ;;		On entry : 0/0
  2124 ;;		On exit  : 0/0
  2125 ;;		Unchanged: 0/0
  2126 ;; Data sizes:     COMMON   BANK0   BANK1   BANK3   BANK2
  2127 ;;      Params:         0       2       0       0       0
  2128 ;;      Locals:         0       2       0       0       0
  2129 ;;      Temps:          0       2       0       0       0
  2130 ;;      Totals:         0       6       0       0       0
  2131 ;;Total ram usage:        6 bytes
  2132 ;; Hardware stack levels used:    1
  2133 ;; Hardware stack levels required when called:    4
  2134 ;; This function calls:
  2135 ;;		_I2C_Master_Wait
  2136 ;; This function is called by:
  2137 ;;		_main
  2138 ;; This function uses a non-reentrant model
  2139 ;;
  2140                           
  2141                           
  2142                           ;psect for function _I2C_Master_Read
  2143  0487                     _I2C_Master_Read:
  2144  0487                     l1352:	
  2145                           ;incstack = 0
  2146                           ; Regs used in _I2C_Master_Read: [wreg+status,2+status,0+pclath+cstack]
  2147                           
  2148                           
  2149                           ;C:/MPlab_Digital2/Digital_2/Proyecto2Digital2.X/I2C.c: 76: unsigned short I2C_Master_Re
      +                          ad(unsigned short a);C:/MPlab_Digital2/Digital_2/Proyecto2Digital2.X/I2C.c: 77: {;C:/MPl
      +                          ab_Digital2/Digital_2/Proyecto2Digital2.X/I2C.c: 78:     unsigned short temp;;C:/MPlab_D
      +                          igital2/Digital_2/Proyecto2Digital2.X/I2C.c: 79:     I2C_Master_Wait();
  2150  0487  120A  118A  24F0  120A  118A  	fcall	_I2C_Master_Wait
  2151  048C                     l1354:
  2152                           
  2153                           ;C:/MPlab_Digital2/Digital_2/Proyecto2Digital2.X/I2C.c: 80:     SSPCON2bits.RCEN = 1;
  2154  048C  1683               	bsf	3,5	;RP0=1, select bank1
  2155  048D  1303               	bcf	3,6	;RP1=0, select bank1
  2156  048E  1591               	bsf	17,3	;volatile
  2157                           
  2158                           ;C:/MPlab_Digital2/Digital_2/Proyecto2Digital2.X/I2C.c: 81:     I2C_Master_Wait();
  2159  048F  120A  118A  24F0  120A  118A  	fcall	_I2C_Master_Wait
  2160  0494                     l1356:
  2161                           
  2162                           ;C:/MPlab_Digital2/Digital_2/Proyecto2Digital2.X/I2C.c: 82:     temp = SSPBUF;
  2163  0494  1283               	bcf	3,5	;RP0=0, select bank0
  2164  0495  1303               	bcf	3,6	;RP1=0, select bank0
  2165  0496  0813               	movf	19,w	;volatile
  2166  0497  00A2               	movwf	??_I2C_Master_Read
  2167  0498  01A3               	clrf	??_I2C_Master_Read+1
  2168  0499  0822               	movf	??_I2C_Master_Read,w
  2169  049A  00A4               	movwf	I2C_Master_Read@temp
  2170  049B  0823               	movf	??_I2C_Master_Read+1,w
  2171  049C  00A5               	movwf	I2C_Master_Read@temp+1
  2172  049D                     l1358:
  2173                           
  2174                           ;C:/MPlab_Digital2/Digital_2/Proyecto2Digital2.X/I2C.c: 83:     I2C_Master_Wait();
  2175  049D  120A  118A  24F0  120A  118A  	fcall	_I2C_Master_Wait
  2176  04A2                     l1360:
  2177                           
  2178                           ;C:/MPlab_Digital2/Digital_2/Proyecto2Digital2.X/I2C.c: 84:     if(a == 1){
  2179  04A2  1283               	bcf	3,5	;RP0=0, select bank0
  2180  04A3  1303               	bcf	3,6	;RP1=0, select bank0
  2181  04A4  0320               	decf	I2C_Master_Read@a,w
  2182  04A5  0421               	iorwf	I2C_Master_Read@a+1,w
  2183  04A6  1D03               	btfss	3,2
  2184  04A7  2CA9               	goto	u311
  2185  04A8  2CAA               	goto	u310
  2186  04A9                     u311:
  2187  04A9  2CAE               	goto	l50
  2188  04AA                     u310:
  2189  04AA                     l1362:
  2190                           
  2191                           ;C:/MPlab_Digital2/Digital_2/Proyecto2Digital2.X/I2C.c: 85:         SSPCON2bits.ACKDT = 
      +                          0;
  2192  04AA  1683               	bsf	3,5	;RP0=1, select bank1
  2193  04AB  1303               	bcf	3,6	;RP1=0, select bank1
  2194  04AC  1291               	bcf	17,5	;volatile
  2195                           
  2196                           ;C:/MPlab_Digital2/Digital_2/Proyecto2Digital2.X/I2C.c: 86:     }else{
  2197  04AD  2CB1               	goto	l51
  2198  04AE                     l50:
  2199                           
  2200                           ;C:/MPlab_Digital2/Digital_2/Proyecto2Digital2.X/I2C.c: 87:         SSPCON2bits.ACKDT = 
      +                          1;
  2201  04AE  1683               	bsf	3,5	;RP0=1, select bank1
  2202  04AF  1303               	bcf	3,6	;RP1=0, select bank1
  2203  04B0  1691               	bsf	17,5	;volatile
  2204  04B1                     l51:	
  2205                           ;C:/MPlab_Digital2/Digital_2/Proyecto2Digital2.X/I2C.c: 88:     }
  2206                           
  2207                           
  2208                           ;C:/MPlab_Digital2/Digital_2/Proyecto2Digital2.X/I2C.c: 89:     SSPCON2bits.ACKEN = 1;
  2209  04B1  1611               	bsf	17,4	;volatile
  2210  04B2                     l1364:
  2211                           
  2212                           ;C:/MPlab_Digital2/Digital_2/Proyecto2Digital2.X/I2C.c: 90:     return temp;
  2213  04B2  1283               	bcf	3,5	;RP0=0, select bank0
  2214  04B3  1303               	bcf	3,6	;RP1=0, select bank0
  2215  04B4  0825               	movf	I2C_Master_Read@temp+1,w
  2216  04B5  00A1               	movwf	?_I2C_Master_Read+1
  2217  04B6  0824               	movf	I2C_Master_Read@temp,w
  2218  04B7  00A0               	movwf	?_I2C_Master_Read
  2219  04B8                     l52:
  2220  04B8  0008               	return
  2221  04B9                     __end_of_I2C_Master_Read:
  2222                           
  2223                           	psect	text12
  2224  04F0                     __ptext12:	
  2225 ;; *************** function _I2C_Master_Wait *****************
  2226 ;; Defined at:
  2227 ;;		line 34 in file "C:/MPlab_Digital2/Digital_2/Proyecto2Digital2.X/I2C.c"
  2228 ;; Parameters:    Size  Location     Type
  2229 ;;		None
  2230 ;; Auto vars:     Size  Location     Type
  2231 ;;		None
  2232 ;; Return value:  Size  Location     Type
  2233 ;;                  1    wreg      void 
  2234 ;; Registers used:
  2235 ;;		wreg, status,2
  2236 ;; Tracked objects:
  2237 ;;		On entry : 0/0
  2238 ;;		On exit  : 0/0
  2239 ;;		Unchanged: 0/0
  2240 ;; Data sizes:     COMMON   BANK0   BANK1   BANK3   BANK2
  2241 ;;      Params:         0       0       0       0       0
  2242 ;;      Locals:         0       0       0       0       0
  2243 ;;      Temps:          0       0       0       0       0
  2244 ;;      Totals:         0       0       0       0       0
  2245 ;;Total ram usage:        0 bytes
  2246 ;; Hardware stack levels used:    1
  2247 ;; Hardware stack levels required when called:    3
  2248 ;; This function calls:
  2249 ;;		Nothing
  2250 ;; This function is called by:
  2251 ;;		_I2C_Master_Start
  2252 ;;		_I2C_Master_RepeatedStart
  2253 ;;		_I2C_Master_Stop
  2254 ;;		_I2C_Master_Write
  2255 ;;		_I2C_Master_Read
  2256 ;; This function uses a non-reentrant model
  2257 ;;
  2258                           
  2259                           
  2260                           ;psect for function _I2C_Master_Wait
  2261  04F0                     _I2C_Master_Wait:
  2262  04F0                     l1262:	
  2263                           ;incstack = 0
  2264                           ; Regs used in _I2C_Master_Wait: [wreg+status,2]
  2265                           
  2266  04F0                     l32:	
  2267                           ;C:/MPlab_Digital2/Digital_2/Proyecto2Digital2.X/I2C.c: 36:     while ((SSPSTAT & 0x04) 
      +                          || (SSPCON2 & 0x1F));
  2268                           
  2269  04F0  1683               	bsf	3,5	;RP0=1, select bank1
  2270  04F1  1303               	bcf	3,6	;RP1=0, select bank1
  2271  04F2  1914               	btfsc	20,2	;volatile
  2272  04F3  2CF5               	goto	u291
  2273  04F4  2CF6               	goto	u290
  2274  04F5                     u291:
  2275  04F5  2CF0               	goto	l32
  2276  04F6                     u290:
  2277  04F6                     l1264:
  2278  04F6  0811               	movf	17,w	;volatile
  2279  04F7  391F               	andlw	31
  2280  04F8  1D03               	btfss	3,2
  2281  04F9  2CFB               	goto	u301
  2282  04FA  2CFC               	goto	u300
  2283  04FB                     u301:
  2284  04FB  2CF0               	goto	l32
  2285  04FC                     u300:
  2286  04FC                     l35:
  2287  04FC  0008               	return
  2288  04FD                     __end_of_I2C_Master_Wait:
  2289                           
  2290                           	psect	text13
  2291  04B9                     __ptext13:	
  2292 ;; *************** function _isr *****************
  2293 ;; Defined at:
  2294 ;;		line 57 in file "C:/MPlab_Digital2/Digital_2/Proyecto2Digital2.X/main.c"
  2295 ;; Parameters:    Size  Location     Type
  2296 ;;		None
  2297 ;; Auto vars:     Size  Location     Type
  2298 ;;		None
  2299 ;; Return value:  Size  Location     Type
  2300 ;;                  1    wreg      void 
  2301 ;; Registers used:
  2302 ;;		wreg, fsr0l, fsr0h, status,2, status,0, btemp+1, pclath, cstack
  2303 ;; Tracked objects:
  2304 ;;		On entry : 0/0
  2305 ;;		On exit  : 0/0
  2306 ;;		Unchanged: 0/0
  2307 ;; Data sizes:     COMMON   BANK0   BANK1   BANK3   BANK2
  2308 ;;      Params:         0       0       0       0       0
  2309 ;;      Locals:         0       0       0       0       0
  2310 ;;      Temps:          4       0       0       0       0
  2311 ;;      Totals:         4       0       0       0       0
  2312 ;;Total ram usage:        4 bytes
  2313 ;; Hardware stack levels used:    1
  2314 ;; Hardware stack levels required when called:    2
  2315 ;; This function calls:
  2316 ;;		_envio
  2317 ;; This function is called by:
  2318 ;;		Interrupt level 1
  2319 ;; This function uses a non-reentrant model
  2320 ;;
  2321                           
  2322                           
  2323                           ;psect for function _isr
  2324  04B9                     _isr:
  2325  04B9                     i1l1488:
  2326                           
  2327                           ;C:/MPlab_Digital2/Digital_2/Proyecto2Digital2.X/main.c: 58:         I2C_Master_Write(0x
      +                          D1);
  2328  04B9  1D0B               	btfss	11,2	;volatile
  2329  04BA  2CBC               	goto	u39_21
  2330  04BB  2CBD               	goto	u39_20
  2331  04BC                     u39_21:
  2332  04BC  2CC4               	goto	i1l1496
  2333  04BD                     u39_20:
  2334  04BD                     i1l1490:
  2335                           
  2336                           ;C:/MPlab_Digital2/Digital_2/Proyecto2Digital2.X/main.c: 59:         segundos = I2C_Mast
      +                          er_Read(0);
  2337  04BD  30EC               	movlw	236
  2338  04BE  0081               	movwf	1	;volatile
  2339  04BF                     i1l1492:
  2340                           
  2341                           ;C:/MPlab_Digital2/Digital_2/Proyecto2Digital2.X/main.c: 60:         minutos = I2C_Maste
      +                          r_Read(0);
  2342  04BF  3001               	movlw	1
  2343  04C0  00FF               	movwf	btemp+1
  2344  04C1  087F               	movf	btemp+1,w
  2345  04C2  07FD               	addwf	_controles,f
  2346  04C3                     i1l1494:
  2347                           
  2348                           ;C:/MPlab_Digital2/Digital_2/Proyecto2Digital2.X/main.c: 61:         horas = I2C_Master_
      +                          Read(0);
  2349  04C3  110B               	bcf	11,2	;volatile
  2350  04C4                     i1l1496:
  2351                           
  2352                           ;C:/MPlab_Digital2/Digital_2/Proyecto2Digital2.X/main.c: 63:         dia = I2C_Master_Re
      +                          ad(0);
  2353  04C4  1E0C               	btfss	12,4	;volatile
  2354  04C5  2CC7               	goto	u40_21
  2355  04C6  2CC8               	goto	u40_20
  2356  04C7                     u40_21:
  2357  04C7  2CD0               	goto	i1l188
  2358  04C8                     u40_20:
  2359  04C8                     i1l1498:
  2360                           
  2361                           ;C:/MPlab_Digital2/Digital_2/Proyecto2Digital2.X/main.c: 64:         mes = I2C_Master_Re
      +                          ad(0);
  2362  04C8  120A  118A  202C  120A  118A  	fcall	_envio
  2363  04CD                     i1l1500:
  2364                           
  2365                           ;C:/MPlab_Digital2/Digital_2/Proyecto2Digital2.X/main.c: 65:         year = I2C_Master_R
      +                          ead(1);
  2366  04CD  1683               	bsf	3,5	;RP0=1, select bank1
  2367  04CE  1303               	bcf	3,6	;RP1=0, select bank1
  2368  04CF  120C               	bcf	12,4	;volatile
  2369  04D0                     i1l188:
  2370  04D0  087A               	movf	??_isr+3,w
  2371  04D1  1283               	bcf	3,5	;RP0=0, select bank0
  2372  04D2  00FF               	movwf	btemp+1
  2373  04D3  0879               	movf	??_isr+2,w
  2374  04D4  008A               	movwf	10
  2375  04D5  0878               	movf	??_isr+1,w
  2376  04D6  0084               	movwf	4
  2377  04D7  0E77               	swapf	??_isr^(0+4294967168),w
  2378  04D8  0083               	movwf	3
  2379  04D9  0EFE               	swapf	btemp,f
  2380  04DA  0E7E               	swapf	btemp,w
  2381  04DB  0009               	retfie
  2382  04DC                     __end_of_isr:
  2383                           
  2384                           	psect	intentry
  2385  0004                     __pintentry:	
  2386                           ;incstack = 0
  2387                           ; Regs used in _isr: [wreg-fsr0h+status,2+status,0+btemp+1+pclath+cstack]
  2388                           
  2389  0004                     interrupt_function:
  2390  007E                     saved_w	set	btemp
  2391  0004  00FE               	movwf	btemp
  2392  0005  0E03               	swapf	3,w
  2393  0006  00F7               	movwf	??_isr
  2394  0007  0804               	movf	4,w
  2395  0008  00F8               	movwf	??_isr+1
  2396  0009  080A               	movf	10,w
  2397  000A  00F9               	movwf	??_isr+2
  2398  000B  1283               	bcf	3,5	;RP0=0, select bank0
  2399  000C  1303               	bcf	3,6	;RP1=0, select bank0
  2400  000D  087F               	movf	btemp+1,w
  2401  000E  00FA               	movwf	??_isr+3
  2402  000F  120A  118A  2CB9   	ljmp	_isr
  2403                           
  2404                           	psect	text14
  2405  002C                     __ptext14:	
  2406 ;; *************** function _envio *****************
  2407 ;; Defined at:
  2408 ;;		line 142 in file "C:/MPlab_Digital2/Digital_2/Proyecto2Digital2.X/main.c"
  2409 ;; Parameters:    Size  Location     Type
  2410 ;;		None
  2411 ;; Auto vars:     Size  Location     Type
  2412 ;;		None
  2413 ;; Return value:  Size  Location     Type
  2414 ;;                  1    wreg      void 
  2415 ;; Registers used:
  2416 ;;		wreg, fsr0l, fsr0h, status,2, status,0, btemp+1, pclath, cstack
  2417 ;; Tracked objects:
  2418 ;;		On entry : 0/0
  2419 ;;		On exit  : 0/0
  2420 ;;		Unchanged: 0/0
  2421 ;; Data sizes:     COMMON   BANK0   BANK1   BANK3   BANK2
  2422 ;;      Params:         0       0       0       0       0
  2423 ;;      Locals:         0       0       0       0       0
  2424 ;;      Temps:          2       0       0       0       0
  2425 ;;      Totals:         2       0       0       0       0
  2426 ;;Total ram usage:        2 bytes
  2427 ;; Hardware stack levels used:    1
  2428 ;; Hardware stack levels required when called:    1
  2429 ;; This function calls:
  2430 ;;		_tabla_hex
  2431 ;; This function is called by:
  2432 ;;		_isr
  2433 ;; This function uses a non-reentrant model
  2434 ;;
  2435                           
  2436                           
  2437                           ;psect for function _envio
  2438  002C                     _envio:
  2439  002C                     i1l1368:	
  2440                           ;incstack = 0
  2441                           ; Regs used in _envio: [wreg-fsr0h+status,2+status,0+btemp+1+pclath+cstack]
  2442                           
  2443                           
  2444                           ;C:/MPlab_Digital2/Digital_2/Proyecto2Digital2.X/main.c: 143:             break;
  2445  002C  2927               	goto	i1l1434
  2446  002D                     i1l1370:
  2447                           
  2448                           ;C:/MPlab_Digital2/Digital_2/Proyecto2Digital2.X/main.c: 145:             tabla_hex(((di
      +                          a & 0xF0)>>4), &TXREG);
  2449  002D  3019               	movlw	25
  2450  002E  00F0               	movwf	tabla_hex@port
  2451  002F  3000               	movlw	0
  2452  0030  00F1               	movwf	tabla_hex@port+1
  2453  0031  0841               	movf	_horas+1,w
  2454  0032  00F6               	movwf	??_envio+1
  2455  0033  0840               	movf	_horas,w
  2456  0034  00F5               	movwf	??_envio
  2457  0035  3004               	movlw	4
  2458  0036                     u32_25:
  2459  0036  1003               	clrc
  2460  0037  0CF6               	rrf	??_envio+1,f
  2461  0038  0CF5               	rrf	??_envio,f
  2462  0039  3EFF               	addlw	-1
  2463  003A  1D03               	skipz
  2464  003B  2836               	goto	u32_25
  2465  003C  0875               	movf	??_envio,w
  2466  003D  390F               	andlw	15
  2467  003E  120A  118A  226E  120A  118A  	fcall	_tabla_hex
  2468  0043                     i1l1372:
  2469                           
  2470                           ;C:/MPlab_Digital2/Digital_2/Proyecto2Digital2.X/main.c: 146:             var_envio++;
  2471  0043  3001               	movlw	1
  2472  0044  1283               	bcf	3,5	;RP0=0, select bank0
  2473  0045  1303               	bcf	3,6	;RP1=0, select bank0
  2474  0046  07B6               	addwf	_var_envio,f
  2475  0047  1803               	skipnc
  2476  0048  0AB7               	incf	_var_envio+1,f
  2477  0049  3000               	movlw	0
  2478  004A  07B7               	addwf	_var_envio+1,f
  2479                           
  2480                           ;C:/MPlab_Digital2/Digital_2/Proyecto2Digital2.X/main.c: 147:             break;
  2481  004B  2966               	goto	i1l226
  2482  004C                     i1l1374:
  2483                           
  2484                           ;C:/MPlab_Digital2/Digital_2/Proyecto2Digital2.X/main.c: 149:             tabla_hex((dia
      +                           & 0x0F), &TXREG);
  2485  004C  3019               	movlw	25
  2486  004D  00F0               	movwf	tabla_hex@port
  2487  004E  3000               	movlw	0
  2488  004F  00F1               	movwf	tabla_hex@port+1
  2489  0050  0840               	movf	_horas,w
  2490  0051  390F               	andlw	15
  2491  0052  120A  118A  226E  120A  118A  	fcall	_tabla_hex
  2492  0057  2843               	goto	i1l1372
  2493  0058                     i1l1378:
  2494                           
  2495                           ;C:/MPlab_Digital2/Digital_2/Proyecto2Digital2.X/main.c: 153:             TXREG = 47;
  2496  0058  303A               	movlw	58
  2497  0059  0099               	movwf	25	;volatile
  2498                           
  2499                           ;C:/MPlab_Digital2/Digital_2/Proyecto2Digital2.X/main.c: 154:             var_envio++;
  2500  005A  3001               	movlw	1
  2501  005B  07B6               	addwf	_var_envio,f
  2502  005C  1803               	skipnc
  2503  005D  0AB7               	incf	_var_envio+1,f
  2504  005E  3000               	movlw	0
  2505  005F  07B7               	addwf	_var_envio+1,f
  2506                           
  2507                           ;C:/MPlab_Digital2/Digital_2/Proyecto2Digital2.X/main.c: 155:             break;
  2508  0060  2966               	goto	i1l226
  2509  0061                     i1l1380:
  2510                           
  2511                           ;C:/MPlab_Digital2/Digital_2/Proyecto2Digital2.X/main.c: 157:             tabla_hex(((me
      +                          s & 0xF0)>>4), &TXREG);
  2512  0061  3019               	movlw	25
  2513  0062  00F0               	movwf	tabla_hex@port
  2514  0063  3000               	movlw	0
  2515  0064  00F1               	movwf	tabla_hex@port+1
  2516  0065  0843               	movf	_minutos+1,w
  2517  0066  00F6               	movwf	??_envio+1
  2518  0067  0842               	movf	_minutos,w
  2519  0068  00F5               	movwf	??_envio
  2520  0069  3004               	movlw	4
  2521  006A                     u33_25:
  2522  006A  1003               	clrc
  2523  006B  0CF6               	rrf	??_envio+1,f
  2524  006C  0CF5               	rrf	??_envio,f
  2525  006D  3EFF               	addlw	-1
  2526  006E  1D03               	skipz
  2527  006F  286A               	goto	u33_25
  2528  0070  0875               	movf	??_envio,w
  2529  0071  390F               	andlw	15
  2530  0072  120A  118A  226E  120A  118A  	fcall	_tabla_hex
  2531  0077  2843               	goto	i1l1372
  2532  0078                     i1l1384:
  2533                           
  2534                           ;C:/MPlab_Digital2/Digital_2/Proyecto2Digital2.X/main.c: 161:             tabla_hex((mes
      +                           & 0x0F), &TXREG);
  2535  0078  3019               	movlw	25
  2536  0079  00F0               	movwf	tabla_hex@port
  2537  007A  3000               	movlw	0
  2538  007B  00F1               	movwf	tabla_hex@port+1
  2539  007C  0842               	movf	_minutos,w
  2540  007D  390F               	andlw	15
  2541  007E  120A  118A  226E  120A  118A  	fcall	_tabla_hex
  2542  0083  2843               	goto	i1l1372
  2543  0084                     i1l1390:
  2544                           
  2545                           ;C:/MPlab_Digital2/Digital_2/Proyecto2Digital2.X/main.c: 169:             tabla_hex(((ye
      +                          ar & 0xF0)>>4), &TXREG);
  2546  0084  3019               	movlw	25
  2547  0085  00F0               	movwf	tabla_hex@port
  2548  0086  3000               	movlw	0
  2549  0087  00F1               	movwf	tabla_hex@port+1
  2550  0088  087C               	movf	_segundos+1,w
  2551  0089  00F6               	movwf	??_envio+1
  2552  008A  087B               	movf	_segundos,w
  2553  008B  00F5               	movwf	??_envio
  2554  008C  3004               	movlw	4
  2555  008D                     u34_25:
  2556  008D  1003               	clrc
  2557  008E  0CF6               	rrf	??_envio+1,f
  2558  008F  0CF5               	rrf	??_envio,f
  2559  0090  3EFF               	addlw	-1
  2560  0091  1D03               	skipz
  2561  0092  288D               	goto	u34_25
  2562  0093  0875               	movf	??_envio,w
  2563  0094  390F               	andlw	15
  2564  0095  120A  118A  226E  120A  118A  	fcall	_tabla_hex
  2565  009A  2843               	goto	i1l1372
  2566  009B                     i1l1394:
  2567                           
  2568                           ;C:/MPlab_Digital2/Digital_2/Proyecto2Digital2.X/main.c: 173:             tabla_hex((yea
      +                          r & 0x0F), &TXREG);
  2569  009B  3019               	movlw	25
  2570  009C  00F0               	movwf	tabla_hex@port
  2571  009D  3000               	movlw	0
  2572  009E  00F1               	movwf	tabla_hex@port+1
  2573  009F  087B               	movf	_segundos,w
  2574  00A0  390F               	andlw	15
  2575  00A1  120A  118A  226E  120A  118A  	fcall	_tabla_hex
  2576  00A6  2843               	goto	i1l1372
  2577  00A7                     i1l1398:
  2578                           
  2579                           ;C:/MPlab_Digital2/Digital_2/Proyecto2Digital2.X/main.c: 177:             TXREG = 10;
  2580  00A7  302C               	movlw	44
  2581  00A8  0099               	movwf	25	;volatile
  2582                           
  2583                           ;C:/MPlab_Digital2/Digital_2/Proyecto2Digital2.X/main.c: 178:             var_envio = 0;
  2584  00A9  3001               	movlw	1
  2585  00AA  07B6               	addwf	_var_envio,f
  2586  00AB  1803               	skipnc
  2587  00AC  0AB7               	incf	_var_envio+1,f
  2588  00AD  3000               	movlw	0
  2589  00AE  07B7               	addwf	_var_envio+1,f
  2590                           
  2591                           ;C:/MPlab_Digital2/Digital_2/Proyecto2Digital2.X/main.c: 179:             break;
  2592  00AF  2966               	goto	i1l226
  2593  00B0                     i1l1400:
  2594                           
  2595                           ;C:/MPlab_Digital2/Digital_2/Proyecto2Digital2.X/main.c: 181: }
  2596  00B0  3019               	movlw	25
  2597  00B1  00F0               	movwf	tabla_hex@port
  2598  00B2  3000               	movlw	0
  2599  00B3  00F1               	movwf	tabla_hex@port+1
  2600  00B4  083D               	movf	_dia+1,w
  2601  00B5  00F6               	movwf	??_envio+1
  2602  00B6  083C               	movf	_dia,w
  2603  00B7  00F5               	movwf	??_envio
  2604  00B8  3004               	movlw	4
  2605  00B9                     u35_25:
  2606  00B9  1003               	clrc
  2607  00BA  0CF6               	rrf	??_envio+1,f
  2608  00BB  0CF5               	rrf	??_envio,f
  2609  00BC  3EFF               	addlw	-1
  2610  00BD  1D03               	skipz
  2611  00BE  28B9               	goto	u35_25
  2612  00BF  0875               	movf	??_envio,w
  2613  00C0  390F               	andlw	15
  2614  00C1  120A  118A  226E  120A  118A  	fcall	_tabla_hex
  2615  00C6  2843               	goto	i1l1372
  2616  00C7                     i1l1404:
  2617  00C7  3019               	movlw	25
  2618  00C8  00F0               	movwf	tabla_hex@port
  2619  00C9  3000               	movlw	0
  2620  00CA  00F1               	movwf	tabla_hex@port+1
  2621  00CB  083C               	movf	_dia,w
  2622  00CC  390F               	andlw	15
  2623  00CD  120A  118A  226E  120A  118A  	fcall	_tabla_hex
  2624  00D2  2843               	goto	i1l1372
  2625  00D3                     i1l1408:
  2626  00D3  302F               	movlw	47
  2627  00D4  0099               	movwf	25	;volatile
  2628  00D5  3001               	movlw	1
  2629  00D6  07B6               	addwf	_var_envio,f
  2630  00D7  1803               	skipnc
  2631  00D8  0AB7               	incf	_var_envio+1,f
  2632  00D9  3000               	movlw	0
  2633  00DA  07B7               	addwf	_var_envio+1,f
  2634  00DB  2966               	goto	i1l226
  2635  00DC                     i1l1410:
  2636  00DC  3019               	movlw	25
  2637  00DD  00F0               	movwf	tabla_hex@port
  2638  00DE  3000               	movlw	0
  2639  00DF  00F1               	movwf	tabla_hex@port+1
  2640  00E0  083B               	movf	_mes+1,w
  2641  00E1  00F6               	movwf	??_envio+1
  2642  00E2  083A               	movf	_mes,w
  2643  00E3  00F5               	movwf	??_envio
  2644  00E4  3004               	movlw	4
  2645  00E5                     u36_25:
  2646  00E5  1003               	clrc
  2647  00E6  0CF6               	rrf	??_envio+1,f
  2648  00E7  0CF5               	rrf	??_envio,f
  2649  00E8  3EFF               	addlw	-1
  2650  00E9  1D03               	skipz
  2651  00EA  28E5               	goto	u36_25
  2652  00EB  0875               	movf	??_envio,w
  2653  00EC  390F               	andlw	15
  2654  00ED  120A  118A  226E  120A  118A  	fcall	_tabla_hex
  2655  00F2  2843               	goto	i1l1372
  2656  00F3                     i1l1414:
  2657  00F3  3019               	movlw	25
  2658  00F4  00F0               	movwf	tabla_hex@port
  2659  00F5  3000               	movlw	0
  2660  00F6  00F1               	movwf	tabla_hex@port+1
  2661  00F7  083A               	movf	_mes,w
  2662  00F8  390F               	andlw	15
  2663  00F9  120A  118A  226E  120A  118A  	fcall	_tabla_hex
  2664  00FE  2843               	goto	i1l1372
  2665  00FF                     i1l1420:
  2666  00FF  3019               	movlw	25
  2667  0100  00F0               	movwf	tabla_hex@port
  2668  0101  3000               	movlw	0
  2669  0102  00F1               	movwf	tabla_hex@port+1
  2670  0103  0839               	movf	_year+1,w
  2671  0104  00F6               	movwf	??_envio+1
  2672  0105  0838               	movf	_year,w
  2673  0106  00F5               	movwf	??_envio
  2674  0107  3004               	movlw	4
  2675  0108                     u37_25:
  2676  0108  1003               	clrc
  2677  0109  0CF6               	rrf	??_envio+1,f
  2678  010A  0CF5               	rrf	??_envio,f
  2679  010B  3EFF               	addlw	-1
  2680  010C  1D03               	skipz
  2681  010D  2908               	goto	u37_25
  2682  010E  0875               	movf	??_envio,w
  2683  010F  390F               	andlw	15
  2684  0110  120A  118A  226E  120A  118A  	fcall	_tabla_hex
  2685  0115  2843               	goto	i1l1372
  2686  0116                     i1l1424:
  2687  0116  3019               	movlw	25
  2688  0117  00F0               	movwf	tabla_hex@port
  2689  0118  3000               	movlw	0
  2690  0119  00F1               	movwf	tabla_hex@port+1
  2691  011A  0838               	movf	_year,w
  2692  011B  390F               	andlw	15
  2693  011C  120A  118A  226E  120A  118A  	fcall	_tabla_hex
  2694  0121  2843               	goto	i1l1372
  2695  0122                     i1l1428:
  2696  0122  300A               	movlw	10
  2697  0123  0099               	movwf	25	;volatile
  2698  0124                     i1l1430:
  2699  0124  01B6               	clrf	_var_envio
  2700  0125  01B7               	clrf	_var_envio+1
  2701  0126  2966               	goto	i1l226
  2702  0127                     i1l1434:
  2703                           
  2704                           ; Switch on 2 bytes has been partitioned into a top level switch of size 1, and 1 sub-sw
      +                          itches
  2705                           ; Switch size 1, requested type "simple"
  2706                           ; Number of cases is 1, Range of values is 0 to 0
  2707                           ; switch strategies available:
  2708                           ; Name         Instructions Cycles
  2709                           ; simple_byte            4     3 (average)
  2710                           ; direct_byte           11     8 (fixed)
  2711                           ; jumptable            260     6 (fixed)
  2712                           ;	Chosen strategy is simple_byte
  2713  0127  1283               	bcf	3,5	;RP0=0, select bank0
  2714  0128  1303               	bcf	3,6	;RP1=0, select bank0
  2715  0129  0837               	movf	_var_envio+1,w
  2716  012A  3A00               	xorlw	0	; case 0
  2717  012B  1903               	skipnz
  2718  012C  292E               	goto	i1l1626
  2719  012D  2966               	goto	i1l226
  2720  012E                     i1l1626:
  2721                           
  2722                           ; Switch size 1, requested type "simple"
  2723                           ; Number of cases is 18, Range of values is 0 to 17
  2724                           ; switch strategies available:
  2725                           ; Name         Instructions Cycles
  2726                           ; simple_byte           55    28 (average)
  2727                           ; direct_byte           62     8 (fixed)
  2728                           ; jumptable            260     6 (fixed)
  2729                           ;	Chosen strategy is simple_byte
  2730  012E  0836               	movf	_var_envio,w
  2731  012F  3A00               	xorlw	0	; case 0
  2732  0130  1903               	skipnz
  2733  0131  282D               	goto	i1l1370
  2734  0132  3A01               	xorlw	1	; case 1
  2735  0133  1903               	skipnz
  2736  0134  284C               	goto	i1l1374
  2737  0135  3A03               	xorlw	3	; case 2
  2738  0136  1903               	skipnz
  2739  0137  2858               	goto	i1l1378
  2740  0138  3A01               	xorlw	1	; case 3
  2741  0139  1903               	skipnz
  2742  013A  2861               	goto	i1l1380
  2743  013B  3A07               	xorlw	7	; case 4
  2744  013C  1903               	skipnz
  2745  013D  2878               	goto	i1l1384
  2746  013E  3A01               	xorlw	1	; case 5
  2747  013F  1903               	skipnz
  2748  0140  2858               	goto	i1l1378
  2749  0141  3A03               	xorlw	3	; case 6
  2750  0142  1903               	skipnz
  2751  0143  2884               	goto	i1l1390
  2752  0144  3A01               	xorlw	1	; case 7
  2753  0145  1903               	skipnz
  2754  0146  289B               	goto	i1l1394
  2755  0147  3A0F               	xorlw	15	; case 8
  2756  0148  1903               	skipnz
  2757  0149  28A7               	goto	i1l1398
  2758  014A  3A01               	xorlw	1	; case 9
  2759  014B  1903               	skipnz
  2760  014C  28B0               	goto	i1l1400
  2761  014D  3A03               	xorlw	3	; case 10
  2762  014E  1903               	skipnz
  2763  014F  28C7               	goto	i1l1404
  2764  0150  3A01               	xorlw	1	; case 11
  2765  0151  1903               	skipnz
  2766  0152  28D3               	goto	i1l1408
  2767  0153  3A07               	xorlw	7	; case 12
  2768  0154  1903               	skipnz
  2769  0155  28DC               	goto	i1l1410
  2770  0156  3A01               	xorlw	1	; case 13
  2771  0157  1903               	skipnz
  2772  0158  28F3               	goto	i1l1414
  2773  0159  3A03               	xorlw	3	; case 14
  2774  015A  1903               	skipnz
  2775  015B  28D3               	goto	i1l1408
  2776  015C  3A01               	xorlw	1	; case 15
  2777  015D  1903               	skipnz
  2778  015E  28FF               	goto	i1l1420
  2779  015F  3A1F               	xorlw	31	; case 16
  2780  0160  1903               	skipnz
  2781  0161  2916               	goto	i1l1424
  2782  0162  3A01               	xorlw	1	; case 17
  2783  0163  1903               	skipnz
  2784  0164  2922               	goto	i1l1428
  2785  0165  2966               	goto	i1l226
  2786  0166                     i1l226:
  2787  0166  0008               	return
  2788  0167                     __end_of_envio:
  2789                           
  2790                           	psect	text15
  2791  026E                     __ptext15:	
  2792 ;; *************** function _tabla_hex *****************
  2793 ;; Defined at:
  2794 ;;		line 11 in file "C:/MPlab_Digital2/Digital_2/Proyecto2Digital2.X/TablaACSII_HEX.c"
  2795 ;; Parameters:    Size  Location     Type
  2796 ;;  selector        1    wreg     unsigned char 
  2797 ;;  port            2    0[COMMON] PTR volatile unsigned ch
  2798 ;;		 -> TXREG(1), 
  2799 ;; Auto vars:     Size  Location     Type
  2800 ;;  selector        1    4[COMMON] unsigned char 
  2801 ;; Return value:  Size  Location     Type
  2802 ;;                  1    wreg      void 
  2803 ;; Registers used:
  2804 ;;		wreg, fsr0l, fsr0h, status,2, status,0, btemp+1
  2805 ;; Tracked objects:
  2806 ;;		On entry : 0/0
  2807 ;;		On exit  : 0/0
  2808 ;;		Unchanged: 0/0
  2809 ;; Data sizes:     COMMON   BANK0   BANK1   BANK3   BANK2
  2810 ;;      Params:         2       0       0       0       0
  2811 ;;      Locals:         1       0       0       0       0
  2812 ;;      Temps:          2       0       0       0       0
  2813 ;;      Totals:         5       0       0       0       0
  2814 ;;Total ram usage:        5 bytes
  2815 ;; Hardware stack levels used:    1
  2816 ;; This function calls:
  2817 ;;		Nothing
  2818 ;; This function is called by:
  2819 ;;		_envio
  2820 ;; This function uses a non-reentrant model
  2821 ;;
  2822                           
  2823                           
  2824                           ;psect for function _tabla_hex
  2825  026E                     _tabla_hex:
  2826                           
  2827                           ;incstack = 0
  2828                           ; Regs used in _tabla_hex: [wreg-fsr0h+status,2+status,0+btemp+1]
  2829                           ;tabla_hex@selector stored from wreg
  2830  026E  00F4               	movwf	tabla_hex@selector
  2831  026F                     i1l1292:
  2832                           
  2833                           ;C:/MPlab_Digital2/Digital_2/Proyecto2Digital2.X/TablaACSII_HEX.c: 12: switch (selector)
      +                          {
  2834  026F  2B10               	goto	i1l1330
  2835  0270                     i1l1294:
  2836                           
  2837                           ;C:/MPlab_Digital2/Digital_2/Proyecto2Digital2.X/TablaACSII_HEX.c: 14:             *port
      +                           = 48;
  2838  0270  3030               	movlw	48
  2839  0271  00FF               	movwf	btemp+1
  2840  0272  0870               	movf	tabla_hex@port,w
  2841  0273  0084               	movwf	4
  2842  0274  1783               	bsf	3,7
  2843  0275  1C71               	btfss	tabla_hex@port+1,0
  2844  0276  1383               	bcf	3,7
  2845  0277  087F               	movf	btemp+1,w
  2846  0278  0080               	movwf	0
  2847                           
  2848                           ;C:/MPlab_Digital2/Digital_2/Proyecto2Digital2.X/TablaACSII_HEX.c: 15:             break
      +                          ;
  2849  0279  2B4A               	goto	i1l105
  2850  027A                     i1l1296:
  2851                           
  2852                           ;C:/MPlab_Digital2/Digital_2/Proyecto2Digital2.X/TablaACSII_HEX.c: 17:             *port
      +                           = 49;
  2853  027A  3031               	movlw	49
  2854  027B  00FF               	movwf	btemp+1
  2855  027C  0870               	movf	tabla_hex@port,w
  2856  027D  0084               	movwf	4
  2857  027E  1783               	bsf	3,7
  2858  027F  1C71               	btfss	tabla_hex@port+1,0
  2859  0280  1383               	bcf	3,7
  2860  0281  087F               	movf	btemp+1,w
  2861  0282  0080               	movwf	0
  2862                           
  2863                           ;C:/MPlab_Digital2/Digital_2/Proyecto2Digital2.X/TablaACSII_HEX.c: 18:             break
      +                          ;
  2864  0283  2B4A               	goto	i1l105
  2865  0284                     i1l1298:
  2866                           
  2867                           ;C:/MPlab_Digital2/Digital_2/Proyecto2Digital2.X/TablaACSII_HEX.c: 20:             *port
      +                           = 50;
  2868  0284  3032               	movlw	50
  2869  0285  00FF               	movwf	btemp+1
  2870  0286  0870               	movf	tabla_hex@port,w
  2871  0287  0084               	movwf	4
  2872  0288  1783               	bsf	3,7
  2873  0289  1C71               	btfss	tabla_hex@port+1,0
  2874  028A  1383               	bcf	3,7
  2875  028B  087F               	movf	btemp+1,w
  2876  028C  0080               	movwf	0
  2877                           
  2878                           ;C:/MPlab_Digital2/Digital_2/Proyecto2Digital2.X/TablaACSII_HEX.c: 21:             break
      +                          ;
  2879  028D  2B4A               	goto	i1l105
  2880  028E                     i1l1300:
  2881                           
  2882                           ;C:/MPlab_Digital2/Digital_2/Proyecto2Digital2.X/TablaACSII_HEX.c: 23:             *port
      +                           = 51;
  2883  028E  3033               	movlw	51
  2884  028F  00FF               	movwf	btemp+1
  2885  0290  0870               	movf	tabla_hex@port,w
  2886  0291  0084               	movwf	4
  2887  0292  1783               	bsf	3,7
  2888  0293  1C71               	btfss	tabla_hex@port+1,0
  2889  0294  1383               	bcf	3,7
  2890  0295  087F               	movf	btemp+1,w
  2891  0296  0080               	movwf	0
  2892                           
  2893                           ;C:/MPlab_Digital2/Digital_2/Proyecto2Digital2.X/TablaACSII_HEX.c: 24:             break
      +                          ;
  2894  0297  2B4A               	goto	i1l105
  2895  0298                     i1l1302:
  2896                           
  2897                           ;C:/MPlab_Digital2/Digital_2/Proyecto2Digital2.X/TablaACSII_HEX.c: 26:            *port 
      +                          = 52;
  2898  0298  3034               	movlw	52
  2899  0299  00FF               	movwf	btemp+1
  2900  029A  0870               	movf	tabla_hex@port,w
  2901  029B  0084               	movwf	4
  2902  029C  1783               	bsf	3,7
  2903  029D  1C71               	btfss	tabla_hex@port+1,0
  2904  029E  1383               	bcf	3,7
  2905  029F  087F               	movf	btemp+1,w
  2906  02A0  0080               	movwf	0
  2907                           
  2908                           ;C:/MPlab_Digital2/Digital_2/Proyecto2Digital2.X/TablaACSII_HEX.c: 27:             break
      +                          ;
  2909  02A1  2B4A               	goto	i1l105
  2910  02A2                     i1l1304:
  2911                           
  2912                           ;C:/MPlab_Digital2/Digital_2/Proyecto2Digital2.X/TablaACSII_HEX.c: 29:             *port
      +                           = 53;
  2913  02A2  3035               	movlw	53
  2914  02A3  00FF               	movwf	btemp+1
  2915  02A4  0870               	movf	tabla_hex@port,w
  2916  02A5  0084               	movwf	4
  2917  02A6  1783               	bsf	3,7
  2918  02A7  1C71               	btfss	tabla_hex@port+1,0
  2919  02A8  1383               	bcf	3,7
  2920  02A9  087F               	movf	btemp+1,w
  2921  02AA  0080               	movwf	0
  2922                           
  2923                           ;C:/MPlab_Digital2/Digital_2/Proyecto2Digital2.X/TablaACSII_HEX.c: 30:             break
      +                          ;
  2924  02AB  2B4A               	goto	i1l105
  2925  02AC                     i1l1306:
  2926                           
  2927                           ;C:/MPlab_Digital2/Digital_2/Proyecto2Digital2.X/TablaACSII_HEX.c: 32:             *port
      +                           = 54;
  2928  02AC  3036               	movlw	54
  2929  02AD  00FF               	movwf	btemp+1
  2930  02AE  0870               	movf	tabla_hex@port,w
  2931  02AF  0084               	movwf	4
  2932  02B0  1783               	bsf	3,7
  2933  02B1  1C71               	btfss	tabla_hex@port+1,0
  2934  02B2  1383               	bcf	3,7
  2935  02B3  087F               	movf	btemp+1,w
  2936  02B4  0080               	movwf	0
  2937                           
  2938                           ;C:/MPlab_Digital2/Digital_2/Proyecto2Digital2.X/TablaACSII_HEX.c: 33:             break
      +                          ;
  2939  02B5  2B4A               	goto	i1l105
  2940  02B6                     i1l1308:
  2941                           
  2942                           ;C:/MPlab_Digital2/Digital_2/Proyecto2Digital2.X/TablaACSII_HEX.c: 35:             *port
      +                           = 55;
  2943  02B6  3037               	movlw	55
  2944  02B7  00FF               	movwf	btemp+1
  2945  02B8  0870               	movf	tabla_hex@port,w
  2946  02B9  0084               	movwf	4
  2947  02BA  1783               	bsf	3,7
  2948  02BB  1C71               	btfss	tabla_hex@port+1,0
  2949  02BC  1383               	bcf	3,7
  2950  02BD  087F               	movf	btemp+1,w
  2951  02BE  0080               	movwf	0
  2952                           
  2953                           ;C:/MPlab_Digital2/Digital_2/Proyecto2Digital2.X/TablaACSII_HEX.c: 36:             break
      +                          ;
  2954  02BF  2B4A               	goto	i1l105
  2955  02C0                     i1l1310:
  2956                           
  2957                           ;C:/MPlab_Digital2/Digital_2/Proyecto2Digital2.X/TablaACSII_HEX.c: 38:             *port
      +                           = 56;
  2958  02C0  3038               	movlw	56
  2959  02C1  00FF               	movwf	btemp+1
  2960  02C2  0870               	movf	tabla_hex@port,w
  2961  02C3  0084               	movwf	4
  2962  02C4  1783               	bsf	3,7
  2963  02C5  1C71               	btfss	tabla_hex@port+1,0
  2964  02C6  1383               	bcf	3,7
  2965  02C7  087F               	movf	btemp+1,w
  2966  02C8  0080               	movwf	0
  2967                           
  2968                           ;C:/MPlab_Digital2/Digital_2/Proyecto2Digital2.X/TablaACSII_HEX.c: 39:             break
      +                          ;
  2969  02C9  2B4A               	goto	i1l105
  2970  02CA                     i1l1312:
  2971                           
  2972                           ;C:/MPlab_Digital2/Digital_2/Proyecto2Digital2.X/TablaACSII_HEX.c: 41:             *port
      +                           = 57;
  2973  02CA  3039               	movlw	57
  2974  02CB  00FF               	movwf	btemp+1
  2975  02CC  0870               	movf	tabla_hex@port,w
  2976  02CD  0084               	movwf	4
  2977  02CE  1783               	bsf	3,7
  2978  02CF  1C71               	btfss	tabla_hex@port+1,0
  2979  02D0  1383               	bcf	3,7
  2980  02D1  087F               	movf	btemp+1,w
  2981  02D2  0080               	movwf	0
  2982                           
  2983                           ;C:/MPlab_Digital2/Digital_2/Proyecto2Digital2.X/TablaACSII_HEX.c: 42:             break
      +                          ;
  2984  02D3  2B4A               	goto	i1l105
  2985  02D4                     i1l1314:
  2986                           
  2987                           ;C:/MPlab_Digital2/Digital_2/Proyecto2Digital2.X/TablaACSII_HEX.c: 44:             *port
      +                           = 65;
  2988  02D4  3041               	movlw	65
  2989  02D5  00FF               	movwf	btemp+1
  2990  02D6  0870               	movf	tabla_hex@port,w
  2991  02D7  0084               	movwf	4
  2992  02D8  1783               	bsf	3,7
  2993  02D9  1C71               	btfss	tabla_hex@port+1,0
  2994  02DA  1383               	bcf	3,7
  2995  02DB  087F               	movf	btemp+1,w
  2996  02DC  0080               	movwf	0
  2997                           
  2998                           ;C:/MPlab_Digital2/Digital_2/Proyecto2Digital2.X/TablaACSII_HEX.c: 45:             break
      +                          ;
  2999  02DD  2B4A               	goto	i1l105
  3000  02DE                     i1l1316:
  3001                           
  3002                           ;C:/MPlab_Digital2/Digital_2/Proyecto2Digital2.X/TablaACSII_HEX.c: 47:             *port
      +                           = 66;
  3003  02DE  3042               	movlw	66
  3004  02DF  00FF               	movwf	btemp+1
  3005  02E0  0870               	movf	tabla_hex@port,w
  3006  02E1  0084               	movwf	4
  3007  02E2  1783               	bsf	3,7
  3008  02E3  1C71               	btfss	tabla_hex@port+1,0
  3009  02E4  1383               	bcf	3,7
  3010  02E5  087F               	movf	btemp+1,w
  3011  02E6  0080               	movwf	0
  3012                           
  3013                           ;C:/MPlab_Digital2/Digital_2/Proyecto2Digital2.X/TablaACSII_HEX.c: 48:             break
      +                          ;
  3014  02E7  2B4A               	goto	i1l105
  3015  02E8                     i1l1318:
  3016                           
  3017                           ;C:/MPlab_Digital2/Digital_2/Proyecto2Digital2.X/TablaACSII_HEX.c: 50:             *port
      +                           = 67;
  3018  02E8  3043               	movlw	67
  3019  02E9  00FF               	movwf	btemp+1
  3020  02EA  0870               	movf	tabla_hex@port,w
  3021  02EB  0084               	movwf	4
  3022  02EC  1783               	bsf	3,7
  3023  02ED  1C71               	btfss	tabla_hex@port+1,0
  3024  02EE  1383               	bcf	3,7
  3025  02EF  087F               	movf	btemp+1,w
  3026  02F0  0080               	movwf	0
  3027                           
  3028                           ;C:/MPlab_Digital2/Digital_2/Proyecto2Digital2.X/TablaACSII_HEX.c: 51:             break
      +                          ;
  3029  02F1  2B4A               	goto	i1l105
  3030  02F2                     i1l1320:
  3031                           
  3032                           ;C:/MPlab_Digital2/Digital_2/Proyecto2Digital2.X/TablaACSII_HEX.c: 53:             *port
      +                           = 68;
  3033  02F2  3044               	movlw	68
  3034  02F3  00FF               	movwf	btemp+1
  3035  02F4  0870               	movf	tabla_hex@port,w
  3036  02F5  0084               	movwf	4
  3037  02F6  1783               	bsf	3,7
  3038  02F7  1C71               	btfss	tabla_hex@port+1,0
  3039  02F8  1383               	bcf	3,7
  3040  02F9  087F               	movf	btemp+1,w
  3041  02FA  0080               	movwf	0
  3042                           
  3043                           ;C:/MPlab_Digital2/Digital_2/Proyecto2Digital2.X/TablaACSII_HEX.c: 54:             break
      +                          ;
  3044  02FB  2B4A               	goto	i1l105
  3045  02FC                     i1l1322:
  3046                           
  3047                           ;C:/MPlab_Digital2/Digital_2/Proyecto2Digital2.X/TablaACSII_HEX.c: 56:             *port
      +                           = 69;
  3048  02FC  3045               	movlw	69
  3049  02FD  00FF               	movwf	btemp+1
  3050  02FE  0870               	movf	tabla_hex@port,w
  3051  02FF  0084               	movwf	4
  3052  0300  1783               	bsf	3,7
  3053  0301  1C71               	btfss	tabla_hex@port+1,0
  3054  0302  1383               	bcf	3,7
  3055  0303  087F               	movf	btemp+1,w
  3056  0304  0080               	movwf	0
  3057                           
  3058                           ;C:/MPlab_Digital2/Digital_2/Proyecto2Digital2.X/TablaACSII_HEX.c: 57:             break
      +                          ;
  3059  0305  2B4A               	goto	i1l105
  3060  0306                     i1l1324:
  3061                           
  3062                           ;C:/MPlab_Digital2/Digital_2/Proyecto2Digital2.X/TablaACSII_HEX.c: 59:             *port
      +                           = 70;
  3063  0306  3046               	movlw	70
  3064  0307  00FF               	movwf	btemp+1
  3065  0308  0870               	movf	tabla_hex@port,w
  3066  0309  0084               	movwf	4
  3067  030A  1783               	bsf	3,7
  3068  030B  1C71               	btfss	tabla_hex@port+1,0
  3069  030C  1383               	bcf	3,7
  3070  030D  087F               	movf	btemp+1,w
  3071  030E  0080               	movwf	0
  3072                           
  3073                           ;C:/MPlab_Digital2/Digital_2/Proyecto2Digital2.X/TablaACSII_HEX.c: 60:             break
      +                          ;
  3074  030F  2B4A               	goto	i1l105
  3075  0310                     i1l1330:
  3076  0310  0874               	movf	tabla_hex@selector,w
  3077  0311  00F2               	movwf	??_tabla_hex
  3078  0312  01F3               	clrf	??_tabla_hex+1
  3079                           
  3080                           ; Switch on 2 bytes has been partitioned into a top level switch of size 1, and 1 sub-sw
      +                          itches
  3081                           ; Switch size 1, requested type "simple"
  3082                           ; Number of cases is 1, Range of values is 0 to 0
  3083                           ; switch strategies available:
  3084                           ; Name         Instructions Cycles
  3085                           ; simple_byte            4     3 (average)
  3086                           ; direct_byte           11     8 (fixed)
  3087                           ; jumptable            260     6 (fixed)
  3088                           ;	Chosen strategy is simple_byte
  3089  0313  0873               	movf	??_tabla_hex+1,w
  3090  0314  3A00               	xorlw	0	; case 0
  3091  0315  1903               	skipnz
  3092  0316  2B18               	goto	i1l1628
  3093  0317  2A70               	goto	i1l1294
  3094  0318                     i1l1628:
  3095                           
  3096                           ; Switch size 1, requested type "simple"
  3097                           ; Number of cases is 16, Range of values is 0 to 15
  3098                           ; switch strategies available:
  3099                           ; Name         Instructions Cycles
  3100                           ; simple_byte           49    25 (average)
  3101                           ; direct_byte           56     8 (fixed)
  3102                           ; jumptable            260     6 (fixed)
  3103                           ;	Chosen strategy is simple_byte
  3104  0318  0872               	movf	??_tabla_hex,w
  3105  0319  3A00               	xorlw	0	; case 0
  3106  031A  1903               	skipnz
  3107  031B  2A70               	goto	i1l1294
  3108  031C  3A01               	xorlw	1	; case 1
  3109  031D  1903               	skipnz
  3110  031E  2A7A               	goto	i1l1296
  3111  031F  3A03               	xorlw	3	; case 2
  3112  0320  1903               	skipnz
  3113  0321  2A84               	goto	i1l1298
  3114  0322  3A01               	xorlw	1	; case 3
  3115  0323  1903               	skipnz
  3116  0324  2A8E               	goto	i1l1300
  3117  0325  3A07               	xorlw	7	; case 4
  3118  0326  1903               	skipnz
  3119  0327  2A98               	goto	i1l1302
  3120  0328  3A01               	xorlw	1	; case 5
  3121  0329  1903               	skipnz
  3122  032A  2AA2               	goto	i1l1304
  3123  032B  3A03               	xorlw	3	; case 6
  3124  032C  1903               	skipnz
  3125  032D  2AAC               	goto	i1l1306
  3126  032E  3A01               	xorlw	1	; case 7
  3127  032F  1903               	skipnz
  3128  0330  2AB6               	goto	i1l1308
  3129  0331  3A0F               	xorlw	15	; case 8
  3130  0332  1903               	skipnz
  3131  0333  2AC0               	goto	i1l1310
  3132  0334  3A01               	xorlw	1	; case 9
  3133  0335  1903               	skipnz
  3134  0336  2ACA               	goto	i1l1312
  3135  0337  3A03               	xorlw	3	; case 10
  3136  0338  1903               	skipnz
  3137  0339  2AD4               	goto	i1l1314
  3138  033A  3A01               	xorlw	1	; case 11
  3139  033B  1903               	skipnz
  3140  033C  2ADE               	goto	i1l1316
  3141  033D  3A07               	xorlw	7	; case 12
  3142  033E  1903               	skipnz
  3143  033F  2AE8               	goto	i1l1318
  3144  0340  3A01               	xorlw	1	; case 13
  3145  0341  1903               	skipnz
  3146  0342  2AF2               	goto	i1l1320
  3147  0343  3A03               	xorlw	3	; case 14
  3148  0344  1903               	skipnz
  3149  0345  2AFC               	goto	i1l1322
  3150  0346  3A01               	xorlw	1	; case 15
  3151  0347  1903               	skipnz
  3152  0348  2B06               	goto	i1l1324
  3153  0349  2A70               	goto	i1l1294
  3154  034A                     i1l105:
  3155  034A  0008               	return
  3156  034B                     __end_of_tabla_hex:
  3157  007E                     btemp	set	126	;btemp
  3158  007E                     wtemp0	set	126
  3159                           
  3160                           	psect	config
  3161                           
  3162                           ;Config register CONFIG1 @ 0x2007
  3163                           ;	Oscillator Selection bits
  3164                           ;	FOSC = INTRC_NOCLKOUT, INTOSCIO oscillator: I/O function on RA6/OSC2/CLKOUT pin, I/O f
      +                          unction on RA7/OSC1/CLKIN
  3165                           ;	Watchdog Timer Enable bit
  3166                           ;	WDTE = OFF, WDT disabled and can be enabled by SWDTEN bit of the WDTCON register
  3167                           ;	Power-up Timer Enable bit
  3168                           ;	PWRTE = OFF, PWRT disabled
  3169                           ;	RE3/MCLR pin function select bit
  3170                           ;	MCLRE = OFF, RE3/MCLR pin function is digital input, MCLR internally tied to VDD
  3171                           ;	Code Protection bit
  3172                           ;	CP = OFF, Program memory code protection is disabled
  3173                           ;	Data Code Protection bit
  3174                           ;	CPD = OFF, Data memory code protection is disabled
  3175                           ;	Brown Out Reset Selection bits
  3176                           ;	BOREN = OFF, BOR disabled
  3177                           ;	Internal External Switchover bit
  3178                           ;	IESO = OFF, Internal/External Switchover mode is disabled
  3179                           ;	Fail-Safe Clock Monitor Enabled bit
  3180                           ;	FCMEN = OFF, Fail-Safe Clock Monitor is disabled
  3181                           ;	Low Voltage Programming Enable bit
  3182                           ;	LVP = OFF, RB3 pin has digital I/O, HV on MCLR must be used for programming
  3183                           ;	In-Circuit Debugger Mode bit
  3184                           ;	DEBUG = 0x1, unprogrammed default
  3185  2007                     	org	8199
  3186  2007  20D4               	dw	8404
  3187                           
  3188                           ;Config register CONFIG2 @ 0x2008
  3189                           ;	Brown-out Reset Selection bit
  3190                           ;	BOR4V = BOR40V, Brown-out Reset set to 4.0V
  3191                           ;	Flash Program Memory Self Write Enable bits
  3192                           ;	WRT = OFF, Write protection off
  3193  2008                     	org	8200
  3194  2008  3FFF               	dw	16383

Data Sizes:
    Strings     0
    Constant    0
    Data        0
    BSS         17
    Persistent  0
    Stack       0

Auto Spaces:
    Space          Size  Autos    Used
    COMMON           14     11      14
    BANK0            80     22      36
    BANK1            80      0       0
    BANK3            96      0       0
    BANK2            96      0       0

Pointer List with Targets:

    tabla_hex@port	PTR volatile unsigned char  size(2) Largest target is 1
		 -> TXREG(SFR0[1]), 


Critical Paths under _main in COMMON

    None.

Critical Paths under _isr in COMMON

    _isr->_envio
    _envio->_tabla_hex

Critical Paths under _main in BANK0

    _setup->_I2C_Master_Init
    _I2C_Master_Init->___lldiv

Critical Paths under _isr in BANK0

    None.

Critical Paths under _main in BANK1

    None.

Critical Paths under _isr in BANK1

    None.

Critical Paths under _main in BANK3

    None.

Critical Paths under _isr in BANK3

    None.

Critical Paths under _main in BANK2

    None.

Critical Paths under _isr in BANK2

    None.

Call Graph Tables:

 ---------------------------------------------------------------------------------
 (Depth) Function   	        Calls       Base Space   Used Autos Params    Refs
 ---------------------------------------------------------------------------------
 (0) _main                                                 0     0      0    1945
                    _I2C_Master_Read
           _I2C_Master_RepeatedStart
                   _I2C_Master_Start
                    _I2C_Master_Stop
                   _I2C_Master_Write
                              _TX_GO
                              _setup
 ---------------------------------------------------------------------------------
 (1) _setup                                                0     0      0     434
                    _I2C_Master_Init
                            _initOsc
                          _initUSART
 ---------------------------------------------------------------------------------
 (2) _initUSART                                            0     0      0       0
 ---------------------------------------------------------------------------------
 (2) _initOsc                                              3     3      0      22
                                              0 BANK0      3     3      0
 ---------------------------------------------------------------------------------
 (2) _I2C_Master_Init                                      8     4      4     412
                                             14 BANK0      8     4      4
                            ___lldiv
 ---------------------------------------------------------------------------------
 (3) ___lldiv                                             14     6      8     314
                                              0 BANK0     14     6      8
 ---------------------------------------------------------------------------------
 (1) _TX_GO                                                0     0      0       0
 ---------------------------------------------------------------------------------
 (1) _I2C_Master_Write                                     2     0      2     934
                                              0 BANK0      2     0      2
                    _I2C_Master_Wait
 ---------------------------------------------------------------------------------
 (1) _I2C_Master_Stop                                      0     0      0       0
                    _I2C_Master_Wait
 ---------------------------------------------------------------------------------
 (1) _I2C_Master_Start                                     0     0      0       0
                    _I2C_Master_Wait
 ---------------------------------------------------------------------------------
 (1) _I2C_Master_RepeatedStart                             0     0      0       0
                    _I2C_Master_Wait
 ---------------------------------------------------------------------------------
 (1) _I2C_Master_Read                                      6     4      2     577
                                              0 BANK0      6     4      2
                    _I2C_Master_Wait
 ---------------------------------------------------------------------------------
 (2) _I2C_Master_Wait                                      0     0      0       0
 ---------------------------------------------------------------------------------
 Estimated maximum stack depth 3
 ---------------------------------------------------------------------------------
 (Depth) Function   	        Calls       Base Space   Used Autos Params    Refs
 ---------------------------------------------------------------------------------
 (4) _isr                                                  4     4      0    1308
                                              7 COMMON     4     4      0
                              _envio
 ---------------------------------------------------------------------------------
 (5) _envio                                                2     2      0    1308
                                              5 COMMON     2     2      0
                          _tabla_hex
 ---------------------------------------------------------------------------------
 (6) _tabla_hex                                            5     3      2    1308
                                              0 COMMON     5     3      2
 ---------------------------------------------------------------------------------
 Estimated maximum stack depth 6
 ---------------------------------------------------------------------------------

 Call Graph Graphs:

 _main (ROOT)
   _I2C_Master_Read
     _I2C_Master_Wait
   _I2C_Master_RepeatedStart
     _I2C_Master_Wait
   _I2C_Master_Start
     _I2C_Master_Wait
   _I2C_Master_Stop
     _I2C_Master_Wait
   _I2C_Master_Write
     _I2C_Master_Wait
   _TX_GO
   _setup
     _I2C_Master_Init
       ___lldiv
     _initOsc
     _initUSART

 _isr (ROOT)
   _envio
     _tabla_hex

 Address spaces:
Name               Size   Autos  Total    Cost      Usage
BITCOMMON            E      0       0       0        0.0%
EEDATA             100      0       0       0        0.0%
NULL                 0      0       0       0        0.0%
CODE                 0      0       0       0        0.0%
COMMON               E      B       E       1      100.0%
BITSFR0              0      0       0       1        0.0%
SFR0                 0      0       0       1        0.0%
BITSFR1              0      0       0       2        0.0%
SFR1                 0      0       0       2        0.0%
STACK                0      0       0       2        0.0%
ABS                  0      0      32       3        0.0%
BITBANK0            50      0       0       4        0.0%
BITSFR3              0      0       0       4        0.0%
SFR3                 0      0       0       4        0.0%
BANK0               50     16      24       5       45.0%
BITSFR2              0      0       0       5        0.0%
SFR2                 0      0       0       5        0.0%
BITBANK1            50      0       0       6        0.0%
BANK1               50      0       0       7        0.0%
BITBANK3            60      0       0       8        0.0%
BANK3               60      0       0       9        0.0%
BITBANK2            60      0       0      10        0.0%
BANK2               60      0       0      11        0.0%
DATA                 0      0      32      12        0.0%


Microchip Technology PIC Macro Assembler V2.20 build 20200408173844 
Symbol Table                                                                                   Sun Feb 28 23:39:41 2021

                               l32 04F0                                 l41 052C  
                               l50 04AE                                 l35 04FC  
                               l51 04B1                                 l52 04B8  
                               l44 051A                                 l29 0486  
                               l61 03B7                                 l38 0523  
                               l70 0409                                 l47 0511  
                               l63 03BD                                 l64 03C3  
                               l65 03C9                                 l66 03CF  
                               l67 03D5                                 l83 04EF  
                               l68 03DB                                 l69 03E1  
                              l203 0507                                l348 03B2  
                              l199 044B                                _GIE 005F  
                              u210 035D                                u211 035C  
                              u300 04FC                                u301 04FB  
                              u310 04AA                                u230 0371  
                              u311 04A9                                u231 0370  
                              u225 0362                                u250 038C  
                              u251 038B                                u245 0373  
                              u270 03AA                                u271 03A9  
                              u255 0388                                u280 0464  
                              u265 039C                                u290 04F6  
                              u291 04F5                                u380 0503  
                              u381 0502                                u285 045F  
                              _dia 003C                                _mes 003A  
                              _isr 04B9                                fsr0 0004  
                              indf 0000                               l1230 036D  
                             l1222 034B                               l1240 039B  
                             l1232 0371                               l1224 035D  
                             l1242 03A4                               l1234 037A  
                             l1226 0360                               l1250 0450  
                             l1340 0524                               l1236 038C  
                             l1228 0369                               l1244 03AA  
                             l1260 0485                               l1252 0453  
                             l1262 04F0                               l1342 0529  
                             l1350 050D                               l1238 039A  
                             l1254 0454                               l1270 03E7  
                             l1510 0186                               l1502 0167  
                             l1264 04F6                               l1360 04A2  
                             l1352 0487                               l1336 051B  
                             l1344 0512                               l1256 0483  
                             l1248 044C                               l1280 04E4  
                             l1440 040A                               l1520 01BB  
                             l1512 0190                               l1504 016C  
                             l1362 04AA                               l1354 048C  
                             l1338 0520                               l1346 0517  
                             l1258 0484                               l1266 03B6  
                             l1290 04EE                               l1282 04E8  
                             l1450 041D                               l1442 040F  
                             l1530 01E0                               l1522 01C6  
                             l1514 019A                               l1506 0171  
                             l1364 04B2                               l1356 0494  
                             l1348 0508                               l1284 04E9  
                             l1460 042A                               l1452 0420  
                             l1444 0415                               l1540 0215  
                             l1532 01EB                               l1524 01D1  
                             l1516 01A5                               l1508 017C  
                             l1358 049D                               l1286 04EA  
                             l1278 04DC                               l1470 0441  
                             l1462 042D                               l1454 0421  
                             l1446 0419                               l1550 025B  
                             l1542 0223                               l1534 01F5  
                             l1526 01D6                               l1518 01B0  
                             l1624 03EF                               l1288 04ED  
                             l1480 0448                               l1472 0442  
                             l1464 042E                               l1456 0424  
                             l1448 041C                               l1544 0231  
                             l1536 01FA                               l1528 01DB  
                             l1482 04FD                               l1474 0443  
                             l1466 0431                               l1458 0427  
                             l1546 023F                               l1538 0205  
                             l1484 0503                               l1476 0444  
                             l1468 0432                               l1548 024D  
                             l1486 0504                               l1478 0445  
                             ?_isr 0070                               _PEIE 005E  
                             _TMR0 0001   __end_of_I2C_Master_RepeatedStart 052D  
                             _main 0167                               _year 0038  
                             btemp 007E                               start 0012  
                            ??_isr 0077                   ?_I2C_Master_Init 002E  
                 ?_I2C_Master_Read 0020                   ?_I2C_Master_Wait 0070  
                 ?_I2C_Master_Stop 0070                      tabla_hex@port 0070  
                            ?_main 0070                              _ANSEL 0188  
                  __end_of___lldiv 03B3                              i1l105 034A  
                            i1l226 0166                              i1l188 04D0  
                            u40_20 04C8                              u40_21 04C7  
                            u32_25 0036                              u33_25 006A  
                            _SPBRG 0099                              u34_25 008D  
                            _PORTA 0005                              _PORTB 0006  
                            _PORTC 0007                              _PORTD 0008  
                            u35_25 00B9                              _PORTE 0009  
                            u36_25 00E5                              u37_25 0108  
                            u39_20 04BD                              u39_21 04BC  
                            _TRISA 0085                              _TRISB 0086  
                            _TRISD 0088                              _SSPIE 0463  
                            _TRISE 0089                              _SSPIF 0063  
                            _TXREG 0019                              _TX_GO 04FD  
                            _dia_S 003E                    __end_of_initOsc 040A  
                            _envio 002C                              _horas 0040  
                            _setup 040A                              pclath 000A  
                            status 0003                              wtemp0 007E  
                  __initialization 0015                       __end_of_main 026E  
                           ??_main 0036                             ?_TX_GO 0070  
                ?_I2C_Master_Start 0070                  ?_I2C_Master_Write 0020  
               ??_I2C_Master_Start 0020                 ??_I2C_Master_Write 0022  
                           ?_envio 0070                             ?_setup 0070  
                           _ANSELH 0189                             i1l1300 028E  
                           i1l1310 02C0                             i1l1302 0298  
                           i1l1320 02F2                             i1l1312 02CA  
                           i1l1304 02A2                             i1l1400 00B0  
                           i1l1322 02FC                             i1l1314 02D4  
                           i1l1306 02AC                             i1l1330 0310  
                           i1l1410 00DC                             i1l1324 0306  
                           i1l1316 02DE                             i1l1308 02B6  
                           i1l1420 00FF                             i1l1404 00C7  
                           i1l1500 04CD                             i1l1318 02E8  
                           i1l1430 0124                             i1l1414 00F3  
                           i1l1424 0116                             i1l1408 00D3  
                           i1l1370 002D                             i1l1434 0127  
                           i1l1292 026F                             i1l1428 0122  
                           i1l1380 0061                             i1l1372 0043  
                           i1l1294 0270                             i1l1390 0084  
                           i1l1374 004C                             i1l1296 027A  
                           i1l1384 0078                             i1l1368 002C  
                           i1l1298 0284                             i1l1626 012E  
                           i1l1394 009B                             i1l1378 0058  
                           i1l1490 04BD                             i1l1628 0318  
                           i1l1492 04BF                             i1l1398 00A7  
                           i1l1494 04C3                             i1l1496 04C4  
                           i1l1488 04B9                             i1l1498 04C8  
                           _SPBRGH 009A                             _SSPADD 0093  
                           _TRISC3 043B                             _TRISC4 043C  
                           _SSPCON 0014                             _SSPBUF 0013  
         _I2C_Master_RepeatedStart 0524                          ??___lldiv 0028  
                        ??_initOsc 0020                             saved_w 007E  
          __end_of__initialization 0028                      __end_of_TX_GO 0508  
                   __pcstackCOMMON 0070                      __end_of_envio 0167  
                    __end_of_setup 044C                            ??_TX_GO 0020  
                          ??_envio 0075                            ??_setup 0036  
                tabla_hex@selector 0074                         __pbssBANK0 0036  
               __size_of_initUSART 0014                 __size_of_tabla_hex 00DD  
                       __pmaintext 0167                         __pintentry 0004  
                          _SSPCON2 0091                            _SSPSTAT 0094  
                          ___lldiv 034B                  __end_of_initUSART 04F0  
                          __ptext1 040A                            __ptext2 04DC  
                          __ptext3 03B3                            __ptext4 044C  
                          __ptext5 034B                            __ptext6 04FD  
                          __ptext7 0508                            __ptext8 0512  
                          __ptext9 051B                            _initOsc 03B3  
                     __size_of_isr 0023                            _minutos 0042  
         __size_of_I2C_Master_Init 003B           __size_of_I2C_Master_Read 0032  
                __end_of_tabla_hex 034B           __size_of_I2C_Master_Wait 000D  
         __size_of_I2C_Master_Stop 0009               end_of_initialization 0028  
       ??_I2C_Master_RepeatedStart 0020          __size_of_I2C_Master_Start 0009  
        __size_of_I2C_Master_Write 000A                    ___lldiv@divisor 0020  
                  ___lldiv@counter 002D                          _RCSTAbits 0018  
                 I2C_Master_Init@c 002E                   I2C_Master_Read@a 0020  
                        _TRISCbits 0087                          _TXSTAbits 0098  
                      _BAUDCTLbits 0187                start_initialization 0015  
                      __end_of_isr 04DC                  ??_I2C_Master_Init 0032  
                ??_I2C_Master_Read 0022                  ??_I2C_Master_Wait 0020  
                ??_I2C_Master_Stop 0020                        __pbssCOMMON 007B  
                        ___latbits 0002                      __pcstackBANK0 0020  
                 _I2C_Master_Start 051B                   _I2C_Master_Write 0508  
                         ?___lldiv 0020                           ?_initOsc 0070  
                        _controles 007D                     __size_of_TX_GO 000B  
                        _initUSART 04DC                     __size_of_envio 013B  
                   __size_of_setup 0042                          _tabla_hex 026E  
                interrupt_function 0004                           _PIE1bits 008C  
                         _PIR1bits 000C                          _var_envio 0036  
                    initOsc@option 0022                         ?_initUSART 0070  
              I2C_Master_Read@temp 0024                         ?_tabla_hex 0070  
__size_of_I2C_Master_RepeatedStart 0009          ?_I2C_Master_RepeatedStart 0070  
                 __size_of___lldiv 0068                    _I2C_Master_Init 044C  
                  _I2C_Master_Read 0487                    _I2C_Master_Wait 04F0  
                  _I2C_Master_Stop 0512                   __size_of_initOsc 0057  
                         __ptext10 0524                           __ptext11 0487  
                         __ptext12 04F0                           __ptext13 04B9  
                         __ptext14 002C                           __ptext15 026E  
                    __size_of_main 0107                           _segundos 007B  
         __end_of_I2C_Master_Start 0524           __end_of_I2C_Master_Write 0512  
                       _INTCONbits 000B                        ??_initUSART 0020  
                         intlevel1 0000                        ??_tabla_hex 0072  
                 ___lldiv@dividend 0024                         _OSCCONbits 008F  
          __end_of_I2C_Master_Init 0487            __end_of_I2C_Master_Read 04B9  
          __end_of_I2C_Master_Wait 04FD            __end_of_I2C_Master_Stop 051B  
                       _OPTION_REG 0081                   ___lldiv@quotient 0029  
                I2C_Master_Write@d 0020                        _SSPCON2bits 0091  
