

Microchip MPLAB XC8 Assembler V2.20 build 20200408173844 
                                                                                               Fri Feb 12 03:04:06 2021

Microchip MPLAB XC8 C Compiler v2.20 (Free license) build 20200408173844 Og1 
     1                           	processor	16F887
     2                           	pagewidth 120
     3                           	opt	flic
     4                           	psect	strings,global,class=STRING,delta=2,noexec
     5                           	psect	cinit,global,class=CODE,merge=1,delta=2
     6                           	psect	bssCOMMON,global,class=COMMON,space=1,delta=1,noexec
     7                           	psect	bssBANK0,global,class=BANK0,space=1,delta=1,noexec
     8                           	psect	cstackCOMMON,global,class=COMMON,space=1,delta=1,noexec
     9                           	psect	cstackBANK0,global,class=BANK0,space=1,delta=1,noexec
    10                           	psect	maintext,global,class=CODE,split=1,delta=2
    11                           	psect	text1,local,class=CODE,merge=1,delta=2
    12                           	psect	text2,local,class=CODE,merge=1,delta=2
    13                           	psect	text3,local,class=CODE,merge=1,delta=2
    14                           	psect	text4,local,class=CODE,merge=1,delta=2
    15                           	psect	text5,local,class=CODE,merge=1,delta=2
    16                           	psect	text6,local,class=CODE,merge=1,delta=2
    17                           	psect	text7,local,class=CODE,merge=1,delta=2,group=1
    18                           	psect	text8,local,class=CODE,merge=1,delta=2,group=1
    19                           	psect	text9,local,class=CODE,merge=1,delta=2,group=1
    20                           	psect	text10,local,class=CODE,merge=1,delta=2,group=1
    21                           	psect	text11,local,class=CODE,merge=1,delta=2
    22                           	psect	text12,local,class=CODE,merge=1,delta=2
    23                           	psect	text13,local,class=CODE,merge=1,delta=2
    24                           	psect	text14,local,class=CODE,merge=1,delta=2
    25                           	psect	text15,local,class=CODE,merge=1,delta=2
    26                           	psect	text16,local,class=CODE,merge=1,delta=2
    27                           	psect	text17,local,class=CODE,merge=1,delta=2
    28                           	psect	text18,local,class=CODE,merge=1,delta=2
    29                           	psect	text19,local,class=CODE,merge=1,delta=2
    30                           	psect	text20,local,class=CODE,merge=1,delta=2
    31                           	psect	text21,local,class=CODE,merge=1,delta=2
    32                           	psect	intentry,global,class=CODE,delta=2
    33                           	psect	text22,local,class=CODE,merge=1,delta=2
    34                           	psect	text23,local,class=CODE,merge=1,delta=2
    35                           	psect	config,global,abs,ovrld,class=CONFIG,space=4,delta=2,noexec
    36                           	dabs	1,0x7E,2
    37  0000                     
    38                           ; Version 2.20
    39                           ; Generated 09/04/2020 GMT
    40                           ; 
    41                           ; Copyright © 2020, Microchip Technology Inc. and its subsidiaries ("Microchip")
    42                           ; All rights reserved.
    43                           ; 
    44                           ; This software is developed by Microchip Technology Inc. and its subsidiaries ("Microch
      +                          ip").
    45                           ; 
    46                           ; Redistribution and use in source and binary forms, with or without modification, are
    47                           ; permitted provided that the following conditions are met:
    48                           ; 
    49                           ;     1. Redistributions of source code must retain the above copyright notice, this lis
      +                          t of
    50                           ;        conditions and the following disclaimer.
    51                           ; 
    52                           ;     2. Redistributions in binary form must reproduce the above copyright notice, this 
      +                          list
    53                           ;        of conditions and the following disclaimer in the documentation and/or other
    54                           ;        materials provided with the distribution.
    55                           ; 
    56                           ;     3. Microchip's name may not be used to endorse or promote products derived from th
      +                          is
    57                           ;        software without specific prior written permission.
    58                           ; 
    59                           ; THIS SOFTWARE IS PROVIDED BY MICROCHIP "AS IS" AND ANY EXPRESS OR IMPLIED WARRANTIES,
    60                           ; INCLUDING, BUT NOT LIMITED TO, THE IMPLIED WARRANTIES OF MERCHANTABILITY AND FITNESS F
      +                          OR
    61                           ; PURPOSE ARE DISCLAIMED.  IN NO EVENT SHALL MICROCHIP BE LIABLE FOR ANY DIRECT, INDIREC
      +                          T,
    62                           ; INCIDENTAL, SPECIAL, EXEMPLARY, OR CONSEQUENTIAL DAMAGES (INCLUDING BUT NOT LIMITED TO
    63                           ; PROCUREMENT OF SUBSTITUTE GOODS OR SERVICES; LOSS OF USE, DATA OR PROFITS; OR BUSINESS
    64                           ; INTERRUPTION) HOWSOEVER CAUSED AND ON ANY THEORY OF LIABILITY, WHETHER IN CONTRACT, ST
      +                          RICT
    65                           ; LIABILITY, OR TORT (INCLUDING NEGLIGENCE OR OTHERWISE) ARISING IN ANY WAY OUT OF THE U
      +                          SE OF
    66                           ; THIS SOFTWARE, EVEN IF ADVISED OF THE POSSIBILITY OF SUCH DAMAGE.
    67                           ; 
    68                           ; 
    69                           ; Code-generator required, PIC16F887 Definitions
    70                           ; 
    71                           ; SFR Addresses
    72  0000                     	;# 
    73  0001                     	;# 
    74  0002                     	;# 
    75  0003                     	;# 
    76  0004                     	;# 
    77  0005                     	;# 
    78  0006                     	;# 
    79  0007                     	;# 
    80  0008                     	;# 
    81  0009                     	;# 
    82  000A                     	;# 
    83  000B                     	;# 
    84  000C                     	;# 
    85  000D                     	;# 
    86  000E                     	;# 
    87  000E                     	;# 
    88  000F                     	;# 
    89  0010                     	;# 
    90  0011                     	;# 
    91  0012                     	;# 
    92  0013                     	;# 
    93  0014                     	;# 
    94  0015                     	;# 
    95  0015                     	;# 
    96  0016                     	;# 
    97  0017                     	;# 
    98  0018                     	;# 
    99  0019                     	;# 
   100  001A                     	;# 
   101  001B                     	;# 
   102  001B                     	;# 
   103  001C                     	;# 
   104  001D                     	;# 
   105  001E                     	;# 
   106  001F                     	;# 
   107  0081                     	;# 
   108  0085                     	;# 
   109  0086                     	;# 
   110  0087                     	;# 
   111  0088                     	;# 
   112  0089                     	;# 
   113  008C                     	;# 
   114  008D                     	;# 
   115  008E                     	;# 
   116  008F                     	;# 
   117  0090                     	;# 
   118  0091                     	;# 
   119  0092                     	;# 
   120  0093                     	;# 
   121  0093                     	;# 
   122  0093                     	;# 
   123  0094                     	;# 
   124  0095                     	;# 
   125  0096                     	;# 
   126  0097                     	;# 
   127  0098                     	;# 
   128  0099                     	;# 
   129  009A                     	;# 
   130  009B                     	;# 
   131  009C                     	;# 
   132  009D                     	;# 
   133  009E                     	;# 
   134  009F                     	;# 
   135  0105                     	;# 
   136  0107                     	;# 
   137  0108                     	;# 
   138  0109                     	;# 
   139  010C                     	;# 
   140  010C                     	;# 
   141  010D                     	;# 
   142  010E                     	;# 
   143  010F                     	;# 
   144  0185                     	;# 
   145  0187                     	;# 
   146  0188                     	;# 
   147  0189                     	;# 
   148  018C                     	;# 
   149  018D                     	;# 
   150  0000                     	;# 
   151  0001                     	;# 
   152  0002                     	;# 
   153  0003                     	;# 
   154  0004                     	;# 
   155  0005                     	;# 
   156  0006                     	;# 
   157  0007                     	;# 
   158  0008                     	;# 
   159  0009                     	;# 
   160  000A                     	;# 
   161  000B                     	;# 
   162  000C                     	;# 
   163  000D                     	;# 
   164  000E                     	;# 
   165  000E                     	;# 
   166  000F                     	;# 
   167  0010                     	;# 
   168  0011                     	;# 
   169  0012                     	;# 
   170  0013                     	;# 
   171  0014                     	;# 
   172  0015                     	;# 
   173  0015                     	;# 
   174  0016                     	;# 
   175  0017                     	;# 
   176  0018                     	;# 
   177  0019                     	;# 
   178  001A                     	;# 
   179  001B                     	;# 
   180  001B                     	;# 
   181  001C                     	;# 
   182  001D                     	;# 
   183  001E                     	;# 
   184  001F                     	;# 
   185  0081                     	;# 
   186  0085                     	;# 
   187  0086                     	;# 
   188  0087                     	;# 
   189  0088                     	;# 
   190  0089                     	;# 
   191  008C                     	;# 
   192  008D                     	;# 
   193  008E                     	;# 
   194  008F                     	;# 
   195  0090                     	;# 
   196  0091                     	;# 
   197  0092                     	;# 
   198  0093                     	;# 
   199  0093                     	;# 
   200  0093                     	;# 
   201  0094                     	;# 
   202  0095                     	;# 
   203  0096                     	;# 
   204  0097                     	;# 
   205  0098                     	;# 
   206  0099                     	;# 
   207  009A                     	;# 
   208  009B                     	;# 
   209  009C                     	;# 
   210  009D                     	;# 
   211  009E                     	;# 
   212  009F                     	;# 
   213  0105                     	;# 
   214  0107                     	;# 
   215  0108                     	;# 
   216  0109                     	;# 
   217  010C                     	;# 
   218  010C                     	;# 
   219  010D                     	;# 
   220  010E                     	;# 
   221  010F                     	;# 
   222  0185                     	;# 
   223  0187                     	;# 
   224  0188                     	;# 
   225  0189                     	;# 
   226  018C                     	;# 
   227  018D                     	;# 
   228  0000                     	;# 
   229  0001                     	;# 
   230  0002                     	;# 
   231  0003                     	;# 
   232  0004                     	;# 
   233  0005                     	;# 
   234  0006                     	;# 
   235  0007                     	;# 
   236  0008                     	;# 
   237  0009                     	;# 
   238  000A                     	;# 
   239  000B                     	;# 
   240  000C                     	;# 
   241  000D                     	;# 
   242  000E                     	;# 
   243  000E                     	;# 
   244  000F                     	;# 
   245  0010                     	;# 
   246  0011                     	;# 
   247  0012                     	;# 
   248  0013                     	;# 
   249  0014                     	;# 
   250  0015                     	;# 
   251  0015                     	;# 
   252  0016                     	;# 
   253  0017                     	;# 
   254  0018                     	;# 
   255  0019                     	;# 
   256  001A                     	;# 
   257  001B                     	;# 
   258  001B                     	;# 
   259  001C                     	;# 
   260  001D                     	;# 
   261  001E                     	;# 
   262  001F                     	;# 
   263  0081                     	;# 
   264  0085                     	;# 
   265  0086                     	;# 
   266  0087                     	;# 
   267  0088                     	;# 
   268  0089                     	;# 
   269  008C                     	;# 
   270  008D                     	;# 
   271  008E                     	;# 
   272  008F                     	;# 
   273  0090                     	;# 
   274  0091                     	;# 
   275  0092                     	;# 
   276  0093                     	;# 
   277  0093                     	;# 
   278  0093                     	;# 
   279  0094                     	;# 
   280  0095                     	;# 
   281  0096                     	;# 
   282  0097                     	;# 
   283  0098                     	;# 
   284  0099                     	;# 
   285  009A                     	;# 
   286  009B                     	;# 
   287  009C                     	;# 
   288  009D                     	;# 
   289  009E                     	;# 
   290  009F                     	;# 
   291  0105                     	;# 
   292  0107                     	;# 
   293  0108                     	;# 
   294  0109                     	;# 
   295  010C                     	;# 
   296  010C                     	;# 
   297  010D                     	;# 
   298  010E                     	;# 
   299  010F                     	;# 
   300  0185                     	;# 
   301  0187                     	;# 
   302  0188                     	;# 
   303  0189                     	;# 
   304  018C                     	;# 
   305  018D                     	;# 
   306  0000                     	;# 
   307  0001                     	;# 
   308  0002                     	;# 
   309  0003                     	;# 
   310  0004                     	;# 
   311  0005                     	;# 
   312  0006                     	;# 
   313  0007                     	;# 
   314  0008                     	;# 
   315  0009                     	;# 
   316  000A                     	;# 
   317  000B                     	;# 
   318  000C                     	;# 
   319  000D                     	;# 
   320  000E                     	;# 
   321  000E                     	;# 
   322  000F                     	;# 
   323  0010                     	;# 
   324  0011                     	;# 
   325  0012                     	;# 
   326  0013                     	;# 
   327  0014                     	;# 
   328  0015                     	;# 
   329  0015                     	;# 
   330  0016                     	;# 
   331  0017                     	;# 
   332  0018                     	;# 
   333  0019                     	;# 
   334  001A                     	;# 
   335  001B                     	;# 
   336  001B                     	;# 
   337  001C                     	;# 
   338  001D                     	;# 
   339  001E                     	;# 
   340  001F                     	;# 
   341  0081                     	;# 
   342  0085                     	;# 
   343  0086                     	;# 
   344  0087                     	;# 
   345  0088                     	;# 
   346  0089                     	;# 
   347  008C                     	;# 
   348  008D                     	;# 
   349  008E                     	;# 
   350  008F                     	;# 
   351  0090                     	;# 
   352  0091                     	;# 
   353  0092                     	;# 
   354  0093                     	;# 
   355  0093                     	;# 
   356  0093                     	;# 
   357  0094                     	;# 
   358  0095                     	;# 
   359  0096                     	;# 
   360  0097                     	;# 
   361  0098                     	;# 
   362  0099                     	;# 
   363  009A                     	;# 
   364  009B                     	;# 
   365  009C                     	;# 
   366  009D                     	;# 
   367  009E                     	;# 
   368  009F                     	;# 
   369  0105                     	;# 
   370  0107                     	;# 
   371  0108                     	;# 
   372  0109                     	;# 
   373  010C                     	;# 
   374  010C                     	;# 
   375  010D                     	;# 
   376  010E                     	;# 
   377  010F                     	;# 
   378  0185                     	;# 
   379  0187                     	;# 
   380  0188                     	;# 
   381  0189                     	;# 
   382  018C                     	;# 
   383  018D                     	;# 
   384  0000                     	;# 
   385  0001                     	;# 
   386  0002                     	;# 
   387  0003                     	;# 
   388  0004                     	;# 
   389  0005                     	;# 
   390  0006                     	;# 
   391  0007                     	;# 
   392  0008                     	;# 
   393  0009                     	;# 
   394  000A                     	;# 
   395  000B                     	;# 
   396  000C                     	;# 
   397  000D                     	;# 
   398  000E                     	;# 
   399  000E                     	;# 
   400  000F                     	;# 
   401  0010                     	;# 
   402  0011                     	;# 
   403  0012                     	;# 
   404  0013                     	;# 
   405  0014                     	;# 
   406  0015                     	;# 
   407  0015                     	;# 
   408  0016                     	;# 
   409  0017                     	;# 
   410  0018                     	;# 
   411  0019                     	;# 
   412  001A                     	;# 
   413  001B                     	;# 
   414  001B                     	;# 
   415  001C                     	;# 
   416  001D                     	;# 
   417  001E                     	;# 
   418  001F                     	;# 
   419  0081                     	;# 
   420  0085                     	;# 
   421  0086                     	;# 
   422  0087                     	;# 
   423  0088                     	;# 
   424  0089                     	;# 
   425  008C                     	;# 
   426  008D                     	;# 
   427  008E                     	;# 
   428  008F                     	;# 
   429  0090                     	;# 
   430  0091                     	;# 
   431  0092                     	;# 
   432  0093                     	;# 
   433  0093                     	;# 
   434  0093                     	;# 
   435  0094                     	;# 
   436  0095                     	;# 
   437  0096                     	;# 
   438  0097                     	;# 
   439  0098                     	;# 
   440  0099                     	;# 
   441  009A                     	;# 
   442  009B                     	;# 
   443  009C                     	;# 
   444  009D                     	;# 
   445  009E                     	;# 
   446  009F                     	;# 
   447  0105                     	;# 
   448  0107                     	;# 
   449  0108                     	;# 
   450  0109                     	;# 
   451  010C                     	;# 
   452  010C                     	;# 
   453  010D                     	;# 
   454  010E                     	;# 
   455  010F                     	;# 
   456  0185                     	;# 
   457  0187                     	;# 
   458  0188                     	;# 
   459  0189                     	;# 
   460  018C                     	;# 
   461  018D                     	;# 
   462  0000                     	;# 
   463  0001                     	;# 
   464  0002                     	;# 
   465  0003                     	;# 
   466  0004                     	;# 
   467  0005                     	;# 
   468  0006                     	;# 
   469  0007                     	;# 
   470  0008                     	;# 
   471  0009                     	;# 
   472  000A                     	;# 
   473  000B                     	;# 
   474  000C                     	;# 
   475  000D                     	;# 
   476  000E                     	;# 
   477  000E                     	;# 
   478  000F                     	;# 
   479  0010                     	;# 
   480  0011                     	;# 
   481  0012                     	;# 
   482  0013                     	;# 
   483  0014                     	;# 
   484  0015                     	;# 
   485  0015                     	;# 
   486  0016                     	;# 
   487  0017                     	;# 
   488  0018                     	;# 
   489  0019                     	;# 
   490  001A                     	;# 
   491  001B                     	;# 
   492  001B                     	;# 
   493  001C                     	;# 
   494  001D                     	;# 
   495  001E                     	;# 
   496  001F                     	;# 
   497  0081                     	;# 
   498  0085                     	;# 
   499  0086                     	;# 
   500  0087                     	;# 
   501  0088                     	;# 
   502  0089                     	;# 
   503  008C                     	;# 
   504  008D                     	;# 
   505  008E                     	;# 
   506  008F                     	;# 
   507  0090                     	;# 
   508  0091                     	;# 
   509  0092                     	;# 
   510  0093                     	;# 
   511  0093                     	;# 
   512  0093                     	;# 
   513  0094                     	;# 
   514  0095                     	;# 
   515  0096                     	;# 
   516  0097                     	;# 
   517  0098                     	;# 
   518  0099                     	;# 
   519  009A                     	;# 
   520  009B                     	;# 
   521  009C                     	;# 
   522  009D                     	;# 
   523  009E                     	;# 
   524  009F                     	;# 
   525  0105                     	;# 
   526  0107                     	;# 
   527  0108                     	;# 
   528  0109                     	;# 
   529  010C                     	;# 
   530  010C                     	;# 
   531  010D                     	;# 
   532  010E                     	;# 
   533  010F                     	;# 
   534  0185                     	;# 
   535  0187                     	;# 
   536  0188                     	;# 
   537  0189                     	;# 
   538  018C                     	;# 
   539  018D                     	;# 
   540  0000                     	;# 
   541  0001                     	;# 
   542  0002                     	;# 
   543  0003                     	;# 
   544  0004                     	;# 
   545  0005                     	;# 
   546  0006                     	;# 
   547  0007                     	;# 
   548  0008                     	;# 
   549  0009                     	;# 
   550  000A                     	;# 
   551  000B                     	;# 
   552  000C                     	;# 
   553  000D                     	;# 
   554  000E                     	;# 
   555  000E                     	;# 
   556  000F                     	;# 
   557  0010                     	;# 
   558  0011                     	;# 
   559  0012                     	;# 
   560  0013                     	;# 
   561  0014                     	;# 
   562  0015                     	;# 
   563  0015                     	;# 
   564  0016                     	;# 
   565  0017                     	;# 
   566  0018                     	;# 
   567  0019                     	;# 
   568  001A                     	;# 
   569  001B                     	;# 
   570  001B                     	;# 
   571  001C                     	;# 
   572  001D                     	;# 
   573  001E                     	;# 
   574  001F                     	;# 
   575  0081                     	;# 
   576  0085                     	;# 
   577  0086                     	;# 
   578  0087                     	;# 
   579  0088                     	;# 
   580  0089                     	;# 
   581  008C                     	;# 
   582  008D                     	;# 
   583  008E                     	;# 
   584  008F                     	;# 
   585  0090                     	;# 
   586  0091                     	;# 
   587  0092                     	;# 
   588  0093                     	;# 
   589  0093                     	;# 
   590  0093                     	;# 
   591  0094                     	;# 
   592  0095                     	;# 
   593  0096                     	;# 
   594  0097                     	;# 
   595  0098                     	;# 
   596  0099                     	;# 
   597  009A                     	;# 
   598  009B                     	;# 
   599  009C                     	;# 
   600  009D                     	;# 
   601  009E                     	;# 
   602  009F                     	;# 
   603  0105                     	;# 
   604  0107                     	;# 
   605  0108                     	;# 
   606  0109                     	;# 
   607  010C                     	;# 
   608  010C                     	;# 
   609  010D                     	;# 
   610  010E                     	;# 
   611  010F                     	;# 
   612  0185                     	;# 
   613  0187                     	;# 
   614  0188                     	;# 
   615  0189                     	;# 
   616  018C                     	;# 
   617  018D                     	;# 
   618  0014                     _SSPCON	set	20
   619  0018                     _RCSTAbits	set	24
   620  0013                     _SSPBUF	set	19
   621  0007                     _PORTCbits	set	7
   622  0009                     _PORTE	set	9
   623  0008                     _PORTD	set	8
   624  0007                     _PORTC	set	7
   625  0006                     _PORTB	set	6
   626  000C                     _PIR1bits	set	12
   627  0001                     _TMR0	set	1
   628  000B                     _INTCONbits	set	11
   629  0005                     _PORTA	set	5
   630  0019                     _TXREG	set	25
   631  004A                     _RE2	set	74
   632  0048                     _RE0	set	72
   633  0094                     _SSPSTATbits	set	148
   634  0094                     _SSPSTAT	set	148
   635  009A                     _SPBRGH	set	154
   636  0099                     _SPBRG	set	153
   637  0098                     _TXSTAbits	set	152
   638  0087                     _TRISCbits	set	135
   639  0086                     _TRISB	set	134
   640  0085                     _TRISA	set	133
   641  0089                     _TRISE	set	137
   642  0088                     _TRISD	set	136
   643  0081                     _OPTION_REG	set	129
   644  008C                     _PIE1bits	set	140
   645  008F                     _OSCCONbits	set	143
   646  043B                     _TRISC3	set	1083
   647  043D                     _TRISC5	set	1085
   648  0187                     _BAUDCTLbits	set	391
   649  0189                     _ANSELH	set	393
   650  0188                     _ANSEL	set	392
   651                           
   652                           	psect	strings
   653  075C                     __pstrings:
   654  075C                     stringtab:
   655  075C                     __stringtab:
   656  075C                     stringcode:	
   657                           ;	String table - string pointers are 1 byte each
   658                           
   659  075C                     stringdir:
   660  075C  3007               	movlw	high stringdir
   661  075D  008A               	movwf	10
   662  075E  0804               	movf	4,w
   663  075F  0A84               	incf	4,f
   664  0760  0782               	addwf	2,f
   665  0761                     __stringbase:
   666  0761  3400               	retlw	0
   667  0762                     __end_of__stringtab:
   668  0762                     STR_1:
   669  0762  3450               	retlw	80	;'P'
   670  0763  344F               	retlw	79	;'O'
   671  0764  3454               	retlw	84	;'T'
   672  0765  3431               	retlw	49	;'1'
   673  0766  3420               	retlw	32	;' '
   674  0767  344C               	retlw	76	;'L'
   675  0768  344D               	retlw	77	;'M'
   676  0769  3433               	retlw	51	;'3'
   677  076A  3435               	retlw	53	;'5'
   678  076B  3420               	retlw	32	;' '
   679  076C  3443               	retlw	67	;'C'
   680  076D  344F               	retlw	79	;'O'
   681  076E  344E               	retlw	78	;'N'
   682  076F  3454               	retlw	84	;'T'
   683  0770  3400               	retlw	0
   684                           
   685                           	psect	cinit
   686  0015                     start_initialization:	
   687                           ; #config settings
   688                           
   689  0015                     __initialization:
   690                           
   691                           ; Clear objects allocated to COMMON
   692  0015  01FB               	clrf	__pbssCOMMON& (0+127)
   693  0016  01FC               	clrf	(__pbssCOMMON+1)& (0+127)
   694  0017  01FD               	clrf	(__pbssCOMMON+2)& (0+127)
   695                           
   696                           ; Clear objects allocated to BANK0
   697  0018  1283               	bcf	3,5	;RP0=0, select bank0
   698  0019  1303               	bcf	3,6	;RP1=0, select bank0
   699  001A  01C0               	clrf	__pbssBANK0& (0+127)
   700  001B  01C1               	clrf	(__pbssBANK0+1)& (0+127)
   701  001C  01C2               	clrf	(__pbssBANK0+2)& (0+127)
   702  001D  01C3               	clrf	(__pbssBANK0+3)& (0+127)
   703  001E  01C4               	clrf	(__pbssBANK0+4)& (0+127)
   704  001F  01C5               	clrf	(__pbssBANK0+5)& (0+127)
   705  0020  01C6               	clrf	(__pbssBANK0+6)& (0+127)
   706  0021  01C7               	clrf	(__pbssBANK0+7)& (0+127)
   707  0022  01C8               	clrf	(__pbssBANK0+8)& (0+127)
   708  0023                     end_of_initialization:	
   709                           ;End of C runtime variable initialization code
   710                           
   711  0023                     __end_of__initialization:
   712  0023  0183               	clrf	3
   713  0024  120A  118A  2827   	ljmp	_main	;jump to C main() function
   714                           
   715                           	psect	bssCOMMON
   716  007B                     __pbssCOMMON:
   717  007B                     _esclavo3:
   718  007B                     	ds	1
   719  007C                     _esclavo1:
   720  007C                     	ds	1
   721  007D                     _controles:
   722  007D                     	ds	1
   723                           
   724                           	psect	bssBANK0
   725  0040                     __pbssBANK0:
   726  0040                     _centenasp2:
   727  0040                     	ds	1
   728  0041                     _decenasp2:
   729  0041                     	ds	1
   730  0042                     _unidadesp2:
   731  0042                     	ds	1
   732  0043                     _centenasp1:
   733  0043                     	ds	1
   734  0044                     _decenasp1:
   735  0044                     	ds	1
   736  0045                     _unidadesp1:
   737  0045                     	ds	1
   738  0046                     _var_envio:
   739  0046                     	ds	1
   740  0047                     _slave:
   741  0047                     	ds	1
   742  0048                     _esclavo2:
   743  0048                     	ds	1
   744                           
   745                           	psect	cstackCOMMON
   746  0070                     __pcstackCOMMON:
   747  0070                     ?_envio:
   748  0070                     ?_setup:	
   749                           ; 1 bytes @ 0x0
   750                           
   751  0070                     ?_TX_GO:	
   752                           ; 1 bytes @ 0x0
   753                           
   754  0070                     ?_envio_esclavos:	
   755                           ; 1 bytes @ 0x0
   756                           
   757  0070                     ?_mapeo:	
   758                           ; 1 bytes @ 0x0
   759                           
   760  0070                     ?_initUSART:	
   761                           ; 1 bytes @ 0x0
   762                           
   763  0070                     ?_spiRead:	
   764                           ; 1 bytes @ 0x0
   765                           
   766  0070                     ?_tabla_hex:	
   767                           ; 1 bytes @ 0x0
   768                           
   769  0070                     ?_Lcd_Port:	
   770                           ; 1 bytes @ 0x0
   771                           
   772  0070                     ?_Lcd_Cmd:	
   773                           ; 1 bytes @ 0x0
   774                           
   775  0070                     ?_Lcd_Clear:	
   776                           ; 1 bytes @ 0x0
   777                           
   778  0070                     ?_Lcd_Init:	
   779                           ; 1 bytes @ 0x0
   780                           
   781  0070                     ?_Lcd_Write_Char:	
   782                           ; 1 bytes @ 0x0
   783                           
   784  0070                     ?_Lcd_Write_String:	
   785                           ; 1 bytes @ 0x0
   786                           
   787  0070                     ?_initOsc:	
   788                           ; 1 bytes @ 0x0
   789                           
   790  0070                     ?_isr:	
   791                           ; 1 bytes @ 0x0
   792                           
   793  0070                     ?_main:	
   794                           ; 1 bytes @ 0x0
   795                           
   796  0070                     ?_spiReceiveWait:	
   797                           ; 1 bytes @ 0x0
   798                           
   799  0070                     tabla_hex@port:	
   800                           ; 1 bytes @ 0x0
   801                           
   802                           
   803                           ; 2 bytes @ 0x0
   804  0070                     	ds	2
   805  0072                     ??_tabla_hex:
   806                           
   807                           ; 1 bytes @ 0x2
   808  0072                     	ds	2
   809  0074                     tabla_hex@selector:
   810                           
   811                           ; 1 bytes @ 0x4
   812  0074                     	ds	1
   813  0075                     ??_envio:
   814                           
   815                           ; 1 bytes @ 0x5
   816  0075                     	ds	2
   817  0077                     ??_isr:
   818                           
   819                           ; 1 bytes @ 0x7
   820  0077                     	ds	4
   821                           
   822                           	psect	cstackBANK0
   823  0020                     __pcstackBANK0:
   824  0020                     ??_TX_GO:
   825  0020                     ??_envio_esclavos:	
   826                           ; 1 bytes @ 0x0
   827                           
   828  0020                     ??_initUSART:	
   829                           ; 1 bytes @ 0x0
   830                           
   831  0020                     ?_spiInit:	
   832                           ; 1 bytes @ 0x0
   833                           
   834  0020                     ??_spiRead:	
   835                           ; 1 bytes @ 0x0
   836                           
   837  0020                     ??_Lcd_Port:	
   838                           ; 1 bytes @ 0x0
   839                           
   840  0020                     ??_initOsc:	
   841                           ; 1 bytes @ 0x0
   842                           
   843  0020                     ??_spiReceiveWait:	
   844                           ; 1 bytes @ 0x0
   845                           
   846  0020                     ?___awdiv:	
   847                           ; 1 bytes @ 0x0
   848                           
   849  0020                     Lcd_Port@a:	
   850                           ; 2 bytes @ 0x0
   851                           
   852  0020                     spiInit@sDataSample:	
   853                           ; 1 bytes @ 0x0
   854                           
   855  0020                     ___awdiv@divisor:	
   856                           ; 1 bytes @ 0x0
   857                           
   858                           
   859                           ; 2 bytes @ 0x0
   860  0020                     	ds	1
   861  0021                     ??_Lcd_Cmd:
   862  0021                     ??_Lcd_Write_Char:	
   863                           ; 1 bytes @ 0x1
   864                           
   865  0021                     Lcd_Write_Char@a:	
   866                           ; 1 bytes @ 0x1
   867                           
   868  0021                     spiInit@sClockIdle:	
   869                           ; 1 bytes @ 0x1
   870                           
   871                           
   872                           ; 1 bytes @ 0x1
   873  0021                     	ds	1
   874  0022                     ??_Lcd_Write_String:
   875  0022                     Lcd_Cmd@a:	
   876                           ; 1 bytes @ 0x2
   877                           
   878  0022                     initOsc@option:	
   879                           ; 1 bytes @ 0x2
   880                           
   881  0022                     spiInit@sTransmitEdge:	
   882                           ; 1 bytes @ 0x2
   883                           
   884  0022                     Lcd_Write_String@i:	
   885                           ; 1 bytes @ 0x2
   886                           
   887  0022                     ___awdiv@dividend:	
   888                           ; 2 bytes @ 0x2
   889                           
   890                           
   891                           ; 2 bytes @ 0x2
   892  0022                     	ds	1
   893  0023                     ??_spiInit:
   894  0023                     ??_Lcd_Clear:	
   895                           ; 1 bytes @ 0x3
   896                           
   897  0023                     ?_Lcd_Set_Cursor:	
   898                           ; 1 bytes @ 0x3
   899                           
   900  0023                     ??_Lcd_Init:	
   901                           ; 1 bytes @ 0x3
   902                           
   903  0023                     Lcd_Set_Cursor@b:	
   904                           ; 1 bytes @ 0x3
   905                           
   906  0023                     spiInit@sType:	
   907                           ; 1 bytes @ 0x3
   908                           
   909                           
   910                           ; 1 bytes @ 0x3
   911  0023                     	ds	1
   912  0024                     ??_Lcd_Set_Cursor:
   913  0024                     ??___awdiv:	
   914                           ; 1 bytes @ 0x4
   915                           
   916  0024                     Lcd_Set_Cursor@a:	
   917                           ; 1 bytes @ 0x4
   918                           
   919  0024                     Lcd_Write_String@a:	
   920                           ; 1 bytes @ 0x4
   921                           
   922  0024                     ___awdiv@counter:	
   923                           ; 1 bytes @ 0x4
   924                           
   925                           
   926                           ; 1 bytes @ 0x4
   927  0024                     	ds	1
   928  0025                     ??_setup:
   929  0025                     Lcd_Set_Cursor@temp:	
   930                           ; 1 bytes @ 0x5
   931                           
   932  0025                     ___awdiv@sign:	
   933                           ; 1 bytes @ 0x5
   934                           
   935                           
   936                           ; 1 bytes @ 0x5
   937  0025                     	ds	1
   938  0026                     ___awdiv@quotient:
   939                           
   940                           ; 2 bytes @ 0x6
   941  0026                     	ds	2
   942  0028                     ?___wmul:
   943  0028                     ___wmul@multiplier:	
   944                           ; 2 bytes @ 0x8
   945                           
   946                           
   947                           ; 2 bytes @ 0x8
   948  0028                     	ds	2
   949  002A                     ___wmul@multiplicand:
   950                           
   951                           ; 2 bytes @ 0xA
   952  002A                     	ds	2
   953  002C                     ??___wmul:
   954  002C                     ___wmul@product:	
   955                           ; 1 bytes @ 0xC
   956                           
   957                           
   958                           ; 2 bytes @ 0xC
   959  002C                     	ds	2
   960  002E                     ?___bmul:
   961  002E                     ?___lwdiv:	
   962                           ; 1 bytes @ 0xE
   963                           
   964  002E                     ___bmul@multiplicand:	
   965                           ; 2 bytes @ 0xE
   966                           
   967  002E                     ___lwdiv@divisor:	
   968                           ; 1 bytes @ 0xE
   969                           
   970                           
   971                           ; 2 bytes @ 0xE
   972  002E                     	ds	1
   973  002F                     ??___bmul:
   974  002F                     ___bmul@product:	
   975                           ; 1 bytes @ 0xF
   976                           
   977                           
   978                           ; 1 bytes @ 0xF
   979  002F                     	ds	1
   980  0030                     ___bmul@multiplier:
   981  0030                     ___lwdiv@dividend:	
   982                           ; 1 bytes @ 0x10
   983                           
   984                           
   985                           ; 2 bytes @ 0x10
   986  0030                     	ds	2
   987  0032                     ??___lwdiv:
   988  0032                     ___lwdiv@quotient:	
   989                           ; 1 bytes @ 0x12
   990                           
   991                           
   992                           ; 2 bytes @ 0x12
   993  0032                     	ds	2
   994  0034                     ___lwdiv@counter:
   995                           
   996                           ; 1 bytes @ 0x14
   997  0034                     	ds	1
   998  0035                     ??_mapeo:
   999                           
  1000                           ; 1 bytes @ 0x15
  1001  0035                     	ds	2
  1002  0037                     mapeo@TEMP1:
  1003                           
  1004                           ; 2 bytes @ 0x17
  1005  0037                     	ds	2
  1006  0039                     mapeo@TEMP2:
  1007                           
  1008                           ; 2 bytes @ 0x19
  1009  0039                     	ds	2
  1010  003B                     ??_main:
  1011                           
  1012                           ; 1 bytes @ 0x1B
  1013  003B                     	ds	3
  1014  003E                     _main$1223:
  1015                           
  1016                           ; 2 bytes @ 0x1E
  1017  003E                     	ds	2
  1018                           
  1019                           	psect	maintext
  1020  0027                     __pmaintext:	
  1021 ;;
  1022 ;;Main: autosize = 0, tempsize = 3, incstack = 0, save=0
  1023 ;;
  1024 ;; *************** function _main *****************
  1025 ;; Defined at:
  1026 ;;		line 79 in file "C:/MPlab_Digital2/Digital_2/Proyecto3Digital2.X/main.c"
  1027 ;; Parameters:    Size  Location     Type
  1028 ;;		None
  1029 ;; Auto vars:     Size  Location     Type
  1030 ;;		None
  1031 ;; Return value:  Size  Location     Type
  1032 ;;                  1    wreg      void 
  1033 ;; Registers used:
  1034 ;;		wreg, fsr0l, fsr0h, status,2, status,0, btemp+1, pclath, cstack
  1035 ;; Tracked objects:
  1036 ;;		On entry : B00/0
  1037 ;;		On exit  : 0/0
  1038 ;;		Unchanged: 0/0
  1039 ;; Data sizes:     COMMON   BANK0   BANK1   BANK3   BANK2
  1040 ;;      Params:         0       0       0       0       0
  1041 ;;      Locals:         0       2       0       0       0
  1042 ;;      Temps:          0       3       0       0       0
  1043 ;;      Totals:         0       5       0       0       0
  1044 ;;Total ram usage:        5 bytes
  1045 ;; Hardware stack levels required when called:    7
  1046 ;; This function calls:
  1047 ;;		_Lcd_Clear
  1048 ;;		_Lcd_Set_Cursor
  1049 ;;		_Lcd_Write_Char
  1050 ;;		_Lcd_Write_String
  1051 ;;		_TX_GO
  1052 ;;		___awdiv
  1053 ;;		___bmul
  1054 ;;		___wmul
  1055 ;;		_envio_esclavos
  1056 ;;		_mapeo
  1057 ;;		_setup
  1058 ;; This function is called by:
  1059 ;;		Startup code after reset
  1060 ;; This function uses a non-reentrant model
  1061 ;;
  1062                           
  1063                           
  1064                           ;psect for function _main
  1065  0027                     _main:
  1066  0027                     l1889:	
  1067                           ;incstack = 0
  1068                           ; Regs used in _main: [wreg-fsr0h+status,2+status,0+btemp+1+pclath+cstack]
  1069                           
  1070                           
  1071                           ;C:/MPlab_Digital2/Digital_2/Proyecto3Digital2.X/main.c: 80:         Lcd_Set_Cursor(2,13
      +                          );
  1072  0027  120A  118A  2596  120A  118A  	fcall	_setup
  1073  002C                     l1891:
  1074                           
  1075                           ;C:/MPlab_Digital2/Digital_2/Proyecto3Digital2.X/main.c: 81:         Lcd_Write_Char((esc
      +                          lavo2-((((esclavo2-((esclavo2/100)*100))/10)*10)+((esclavo2/100)*100)))+48);
  1076  002C  120A  118A  27B2  120A  118A  	fcall	_Lcd_Clear
  1077  0031                     l1893:
  1078                           
  1079                           ;C:/MPlab_Digital2/Digital_2/Proyecto3Digital2.X/main.c: 82:     }
  1080  0031  1283               	bcf	3,5	;RP0=0, select bank0
  1081  0032  1303               	bcf	3,6	;RP1=0, select bank0
  1082  0033  01A3               	clrf	Lcd_Set_Cursor@b
  1083  0034  3001               	movlw	1
  1084  0035  120A  118A  26C8  120A  118A  	fcall	_Lcd_Set_Cursor
  1085  003A                     l1895:
  1086                           
  1087                           ;C:/MPlab_Digital2/Digital_2/Proyecto3Digital2.X/main.c: 83: }
  1088  003A  3001               	movlw	(low ((STR_1-__stringbase)| (0+32768)))& (0+255)
  1089  003B  120A  118A  2678  120A  118A  	fcall	_Lcd_Write_String
  1090  0040                     l1897:
  1091                           
  1092                           ;C:/MPlab_Digital2/Digital_2/Proyecto3Digital2.X/main.c: 88: void setup(void) {
  1093  0040  1283               	bcf	3,5	;RP0=0, select bank0
  1094  0041  1303               	bcf	3,6	;RP1=0, select bank0
  1095  0042  0847               	movf	_slave,w
  1096  0043  0086               	movwf	6	;volatile
  1097  0044                     l1899:
  1098                           
  1099                           ;C:/MPlab_Digital2/Digital_2/Proyecto3Digital2.X/main.c: 89:     initUSART();
  1100  0044  120A  118A  2798  120A  118A  	fcall	_TX_GO
  1101  0049                     l1901:
  1102                           
  1103                           ;C:/MPlab_Digital2/Digital_2/Proyecto3Digital2.X/main.c: 90:     initOsc(6);
  1104  0049  120A  118A  25E5  120A  118A  	fcall	_envio_esclavos
  1105  004E                     l1903:
  1106                           
  1107                           ;C:/MPlab_Digital2/Digital_2/Proyecto3Digital2.X/main.c: 91:     OPTION_REG = 0b11010111
      +                          ;
  1108  004E  120A  118A  2206  120A  118A  	fcall	_mapeo
  1109  0053                     l1905:
  1110                           
  1111                           ;C:/MPlab_Digital2/Digital_2/Proyecto3Digital2.X/main.c: 92:     ANSEL = 0;
  1112  0053  1283               	bcf	3,5	;RP0=0, select bank0
  1113  0054  1303               	bcf	3,6	;RP1=0, select bank0
  1114  0055  01A3               	clrf	Lcd_Set_Cursor@b
  1115  0056  0AA3               	incf	Lcd_Set_Cursor@b,f
  1116  0057  3002               	movlw	2
  1117  0058  120A  118A  26C8  120A  118A  	fcall	_Lcd_Set_Cursor
  1118  005D                     l1907:
  1119                           
  1120                           ;C:/MPlab_Digital2/Digital_2/Proyecto3Digital2.X/main.c: 93:     ANSELH = 0;
  1121  005D  1283               	bcf	3,5	;RP0=0, select bank0
  1122  005E  1303               	bcf	3,6	;RP1=0, select bank0
  1123  005F  0843               	movf	_centenasp1,w
  1124  0060  3E30               	addlw	48
  1125  0061  120A  118A  2785  120A  118A  	fcall	_Lcd_Write_Char
  1126  0066                     l1909:
  1127                           
  1128                           ;C:/MPlab_Digital2/Digital_2/Proyecto3Digital2.X/main.c: 94:     PORTC = 0;
  1129  0066  3002               	movlw	2
  1130  0067  00FF               	movwf	btemp+1
  1131  0068  087F               	movf	btemp+1,w
  1132  0069  1283               	bcf	3,5	;RP0=0, select bank0
  1133  006A  1303               	bcf	3,6	;RP1=0, select bank0
  1134  006B  00A3               	movwf	Lcd_Set_Cursor@b
  1135  006C  3002               	movlw	2
  1136  006D  120A  118A  26C8  120A  118A  	fcall	_Lcd_Set_Cursor
  1137  0072                     l1911:
  1138                           
  1139                           ;C:/MPlab_Digital2/Digital_2/Proyecto3Digital2.X/main.c: 95:     PORTD = 0;
  1140  0072  302E               	movlw	46
  1141  0073  120A  118A  2785  120A  118A  	fcall	_Lcd_Write_Char
  1142  0078                     l1913:
  1143                           
  1144                           ;C:/MPlab_Digital2/Digital_2/Proyecto3Digital2.X/main.c: 96:     TRISD = 0;
  1145  0078  3003               	movlw	3
  1146  0079  00FF               	movwf	btemp+1
  1147  007A  087F               	movf	btemp+1,w
  1148  007B  1283               	bcf	3,5	;RP0=0, select bank0
  1149  007C  1303               	bcf	3,6	;RP1=0, select bank0
  1150  007D  00A3               	movwf	Lcd_Set_Cursor@b
  1151  007E  3002               	movlw	2
  1152  007F  120A  118A  26C8  120A  118A  	fcall	_Lcd_Set_Cursor
  1153  0084                     l1915:
  1154                           
  1155                           ;C:/MPlab_Digital2/Digital_2/Proyecto3Digital2.X/main.c: 97:     PORTB = 0;
  1156  0084  1283               	bcf	3,5	;RP0=0, select bank0
  1157  0085  1303               	bcf	3,6	;RP1=0, select bank0
  1158  0086  0844               	movf	_decenasp1,w
  1159  0087  3E30               	addlw	48
  1160  0088  120A  118A  2785  120A  118A  	fcall	_Lcd_Write_Char
  1161  008D                     l1917:
  1162                           
  1163                           ;C:/MPlab_Digital2/Digital_2/Proyecto3Digital2.X/main.c: 98:     TRISE = 0;
  1164  008D  3004               	movlw	4
  1165  008E  00FF               	movwf	btemp+1
  1166  008F  087F               	movf	btemp+1,w
  1167  0090  1283               	bcf	3,5	;RP0=0, select bank0
  1168  0091  1303               	bcf	3,6	;RP1=0, select bank0
  1169  0092  00A3               	movwf	Lcd_Set_Cursor@b
  1170  0093  3002               	movlw	2
  1171  0094  120A  118A  26C8  120A  118A  	fcall	_Lcd_Set_Cursor
  1172  0099                     l1919:
  1173                           
  1174                           ;C:/MPlab_Digital2/Digital_2/Proyecto3Digital2.X/main.c: 99:     PORTE = 0;
  1175  0099  1283               	bcf	3,5	;RP0=0, select bank0
  1176  009A  1303               	bcf	3,6	;RP1=0, select bank0
  1177  009B  0845               	movf	_unidadesp1,w
  1178  009C  3E30               	addlw	48
  1179  009D  120A  118A  2785  120A  118A  	fcall	_Lcd_Write_Char
  1180  00A2                     l1921:
  1181                           
  1182                           ;C:/MPlab_Digital2/Digital_2/Proyecto3Digital2.X/main.c: 100:     PORTA = 0;
  1183  00A2  3005               	movlw	5
  1184  00A3  00FF               	movwf	btemp+1
  1185  00A4  087F               	movf	btemp+1,w
  1186  00A5  1283               	bcf	3,5	;RP0=0, select bank0
  1187  00A6  1303               	bcf	3,6	;RP1=0, select bank0
  1188  00A7  00A3               	movwf	Lcd_Set_Cursor@b
  1189  00A8  3002               	movlw	2
  1190  00A9  120A  118A  26C8  120A  118A  	fcall	_Lcd_Set_Cursor
  1191  00AE                     l1923:
  1192                           
  1193                           ;C:/MPlab_Digital2/Digital_2/Proyecto3Digital2.X/main.c: 101:     TRISA = 0;
  1194  00AE  3020               	movlw	32
  1195  00AF  120A  118A  2785  120A  118A  	fcall	_Lcd_Write_Char
  1196  00B4                     l1925:
  1197                           
  1198                           ;C:/MPlab_Digital2/Digital_2/Proyecto3Digital2.X/main.c: 102:     TRISB = 0;
  1199  00B4  3006               	movlw	6
  1200  00B5  00FF               	movwf	btemp+1
  1201  00B6  087F               	movf	btemp+1,w
  1202  00B7  1283               	bcf	3,5	;RP0=0, select bank0
  1203  00B8  1303               	bcf	3,6	;RP1=0, select bank0
  1204  00B9  00A3               	movwf	Lcd_Set_Cursor@b
  1205  00BA  3002               	movlw	2
  1206  00BB  120A  118A  26C8  120A  118A  	fcall	_Lcd_Set_Cursor
  1207  00C0                     l1927:
  1208                           
  1209                           ;C:/MPlab_Digital2/Digital_2/Proyecto3Digital2.X/main.c: 103:     PORTCbits.RC0 = 1;
  1210  00C0  1283               	bcf	3,5	;RP0=0, select bank0
  1211  00C1  1303               	bcf	3,6	;RP1=0, select bank0
  1212  00C2  0840               	movf	_centenasp2,w
  1213  00C3  3E30               	addlw	48
  1214  00C4  120A  118A  2785  120A  118A  	fcall	_Lcd_Write_Char
  1215  00C9                     l1929:
  1216                           
  1217                           ;C:/MPlab_Digital2/Digital_2/Proyecto3Digital2.X/main.c: 104:     PORTCbits.RC1 = 1;
  1218  00C9  3007               	movlw	7
  1219  00CA  00FF               	movwf	btemp+1
  1220  00CB  087F               	movf	btemp+1,w
  1221  00CC  1283               	bcf	3,5	;RP0=0, select bank0
  1222  00CD  1303               	bcf	3,6	;RP1=0, select bank0
  1223  00CE  00A3               	movwf	Lcd_Set_Cursor@b
  1224  00CF  3002               	movlw	2
  1225  00D0  120A  118A  26C8  120A  118A  	fcall	_Lcd_Set_Cursor
  1226  00D5                     l1931:
  1227                           
  1228                           ;C:/MPlab_Digital2/Digital_2/Proyecto3Digital2.X/main.c: 105:     PORTCbits.RC2 = 1;
  1229  00D5  302E               	movlw	46
  1230  00D6  120A  118A  2785  120A  118A  	fcall	_Lcd_Write_Char
  1231  00DB                     l1933:
  1232                           
  1233                           ;C:/MPlab_Digital2/Digital_2/Proyecto3Digital2.X/main.c: 106:     Lcd_Init();
  1234  00DB  3008               	movlw	8
  1235  00DC  00FF               	movwf	btemp+1
  1236  00DD  087F               	movf	btemp+1,w
  1237  00DE  1283               	bcf	3,5	;RP0=0, select bank0
  1238  00DF  1303               	bcf	3,6	;RP1=0, select bank0
  1239  00E0  00A3               	movwf	Lcd_Set_Cursor@b
  1240  00E1  3002               	movlw	2
  1241  00E2  120A  118A  26C8  120A  118A  	fcall	_Lcd_Set_Cursor
  1242  00E7                     l1935:
  1243                           
  1244                           ;C:/MPlab_Digital2/Digital_2/Proyecto3Digital2.X/main.c: 107: 
  1245  00E7  1283               	bcf	3,5	;RP0=0, select bank0
  1246  00E8  1303               	bcf	3,6	;RP1=0, select bank0
  1247  00E9  0841               	movf	_decenasp2,w
  1248  00EA  3E30               	addlw	48
  1249  00EB  120A  118A  2785  120A  118A  	fcall	_Lcd_Write_Char
  1250  00F0                     l1937:
  1251                           
  1252                           ;C:/MPlab_Digital2/Digital_2/Proyecto3Digital2.X/main.c: 108:     TRISCbits.TRISC4 = 1;
  1253  00F0  3009               	movlw	9
  1254  00F1  00FF               	movwf	btemp+1
  1255  00F2  087F               	movf	btemp+1,w
  1256  00F3  1283               	bcf	3,5	;RP0=0, select bank0
  1257  00F4  1303               	bcf	3,6	;RP1=0, select bank0
  1258  00F5  00A3               	movwf	Lcd_Set_Cursor@b
  1259  00F6  3002               	movlw	2
  1260  00F7  120A  118A  26C8  120A  118A  	fcall	_Lcd_Set_Cursor
  1261  00FC                     l1939:
  1262                           
  1263                           ;C:/MPlab_Digital2/Digital_2/Proyecto3Digital2.X/main.c: 109:     TRISCbits.TRISC3 = 0;
  1264  00FC  1283               	bcf	3,5	;RP0=0, select bank0
  1265  00FD  1303               	bcf	3,6	;RP1=0, select bank0
  1266  00FE  0842               	movf	_unidadesp2,w
  1267  00FF  3E30               	addlw	48
  1268  0100  120A  118A  2785  120A  118A  	fcall	_Lcd_Write_Char
  1269  0105                     l1941:
  1270                           
  1271                           ;C:/MPlab_Digital2/Digital_2/Proyecto3Digital2.X/main.c: 110:     TRISCbits.TRISC0 = 0;
  1272  0105  300A               	movlw	10
  1273  0106  00FF               	movwf	btemp+1
  1274  0107  087F               	movf	btemp+1,w
  1275  0108  1283               	bcf	3,5	;RP0=0, select bank0
  1276  0109  1303               	bcf	3,6	;RP1=0, select bank0
  1277  010A  00A3               	movwf	Lcd_Set_Cursor@b
  1278  010B  3002               	movlw	2
  1279  010C  120A  118A  26C8  120A  118A  	fcall	_Lcd_Set_Cursor
  1280  0111                     l1943:
  1281                           
  1282                           ;C:/MPlab_Digital2/Digital_2/Proyecto3Digital2.X/main.c: 111:     TRISCbits.TRISC1 = 0;
  1283  0111  3020               	movlw	32
  1284  0112  120A  118A  2785  120A  118A  	fcall	_Lcd_Write_Char
  1285  0117                     l1945:
  1286                           
  1287                           ;C:/MPlab_Digital2/Digital_2/Proyecto3Digital2.X/main.c: 112:     TRISCbits.TRISC2 = 0;
  1288  0117  300B               	movlw	11
  1289  0118  00FF               	movwf	btemp+1
  1290  0119  087F               	movf	btemp+1,w
  1291  011A  1283               	bcf	3,5	;RP0=0, select bank0
  1292  011B  1303               	bcf	3,6	;RP1=0, select bank0
  1293  011C  00A3               	movwf	Lcd_Set_Cursor@b
  1294  011D  3002               	movlw	2
  1295  011E  120A  118A  26C8  120A  118A  	fcall	_Lcd_Set_Cursor
  1296  0123                     l1947:
  1297                           
  1298                           ;C:/MPlab_Digital2/Digital_2/Proyecto3Digital2.X/main.c: 113:     spiInit(SPI_MASTER_OSC
      +                          _DIV4, SPI_DATA_SAMPLE_MIDDLE, SPI_CLOCK_IDLE_LOW, SPI_IDLE_2_ACTIVE);
  1299  0123  3064               	movlw	100
  1300  0124  1283               	bcf	3,5	;RP0=0, select bank0
  1301  0125  1303               	bcf	3,6	;RP1=0, select bank0
  1302  0126  00A0               	movwf	___awdiv@divisor
  1303  0127  3000               	movlw	0
  1304  0128  00A1               	movwf	___awdiv@divisor+1
  1305  0129  0848               	movf	_esclavo2,w
  1306  012A  00BB               	movwf	??_main
  1307  012B  01BC               	clrf	??_main+1
  1308  012C  083B               	movf	??_main,w
  1309  012D  00A2               	movwf	___awdiv@dividend
  1310  012E  083C               	movf	??_main+1,w
  1311  012F  00A3               	movwf	___awdiv@dividend+1
  1312  0130  120A  118A  247C  120A  118A  	fcall	___awdiv
  1313  0135  1283               	bcf	3,5	;RP0=0, select bank0
  1314  0136  1303               	bcf	3,6	;RP1=0, select bank0
  1315  0137  0820               	movf	?___awdiv,w
  1316  0138  3E30               	addlw	48
  1317  0139  120A  118A  2785  120A  118A  	fcall	_Lcd_Write_Char
  1318  013E                     l1949:
  1319                           
  1320                           ;C:/MPlab_Digital2/Digital_2/Proyecto3Digital2.X/main.c: 114: 
  1321  013E  300C               	movlw	12
  1322  013F  00FF               	movwf	btemp+1
  1323  0140  087F               	movf	btemp+1,w
  1324  0141  1283               	bcf	3,5	;RP0=0, select bank0
  1325  0142  1303               	bcf	3,6	;RP1=0, select bank0
  1326  0143  00A3               	movwf	Lcd_Set_Cursor@b
  1327  0144  3002               	movlw	2
  1328  0145  120A  118A  26C8  120A  118A  	fcall	_Lcd_Set_Cursor
  1329  014A                     l1951:
  1330                           
  1331                           ;C:/MPlab_Digital2/Digital_2/Proyecto3Digital2.X/main.c: 115:     INTCONbits.GIE = 1;
  1332  014A  3064               	movlw	100
  1333  014B  1283               	bcf	3,5	;RP0=0, select bank0
  1334  014C  1303               	bcf	3,6	;RP1=0, select bank0
  1335  014D  00A0               	movwf	___awdiv@divisor
  1336  014E  3000               	movlw	0
  1337  014F  00A1               	movwf	___awdiv@divisor+1
  1338  0150  0848               	movf	_esclavo2,w
  1339  0151  00BB               	movwf	??_main
  1340  0152  01BC               	clrf	??_main+1
  1341  0153  083B               	movf	??_main,w
  1342  0154  00A2               	movwf	___awdiv@dividend
  1343  0155  083C               	movf	??_main+1,w
  1344  0156  00A3               	movwf	___awdiv@dividend+1
  1345  0157  120A  118A  247C  120A  118A  	fcall	___awdiv
  1346  015C  1283               	bcf	3,5	;RP0=0, select bank0
  1347  015D  1303               	bcf	3,6	;RP1=0, select bank0
  1348  015E  0821               	movf	?___awdiv+1,w
  1349  015F  00A9               	movwf	___wmul@multiplier+1
  1350  0160  0820               	movf	?___awdiv,w
  1351  0161  00A8               	movwf	___wmul@multiplier
  1352  0162  309C               	movlw	156
  1353  0163  00AA               	movwf	___wmul@multiplicand
  1354  0164  30FF               	movlw	255
  1355  0165  00AB               	movwf	___wmul@multiplicand+1
  1356  0166  120A  118A  26A1  120A  118A  	fcall	___wmul
  1357  016B  1283               	bcf	3,5	;RP0=0, select bank0
  1358  016C  1303               	bcf	3,6	;RP1=0, select bank0
  1359  016D  0848               	movf	_esclavo2,w
  1360  016E  0728               	addwf	?___wmul,w
  1361  016F  00BE               	movwf	_main$1223
  1362  0170  0829               	movf	?___wmul+1,w
  1363  0171  1803               	skipnc
  1364  0172  0A29               	incf	?___wmul+1,w
  1365  0173  00BF               	movwf	_main$1223+1
  1366  0174                     l1953:
  1367                           
  1368                           ;C:/MPlab_Digital2/Digital_2/Proyecto3Digital2.X/main.c: 115:     INTCONbits.GIE = 1;
  1369  0174  300A               	movlw	10
  1370  0175  00A0               	movwf	___awdiv@divisor
  1371  0176  3000               	movlw	0
  1372  0177  00A1               	movwf	___awdiv@divisor+1
  1373  0178  083F               	movf	_main$1223+1,w
  1374  0179  00A3               	movwf	___awdiv@dividend+1
  1375  017A  083E               	movf	_main$1223,w
  1376  017B  00A2               	movwf	___awdiv@dividend
  1377  017C  120A  118A  247C  120A  118A  	fcall	___awdiv
  1378  0181  1283               	bcf	3,5	;RP0=0, select bank0
  1379  0182  1303               	bcf	3,6	;RP1=0, select bank0
  1380  0183  0820               	movf	?___awdiv,w
  1381  0184  3E30               	addlw	48
  1382  0185  120A  118A  2785  120A  118A  	fcall	_Lcd_Write_Char
  1383  018A                     l1955:
  1384                           
  1385                           ;C:/MPlab_Digital2/Digital_2/Proyecto3Digital2.X/main.c: 116:     INTCONbits.PEIE = 1;
  1386  018A  300D               	movlw	13
  1387  018B  00FF               	movwf	btemp+1
  1388  018C  087F               	movf	btemp+1,w
  1389  018D  1283               	bcf	3,5	;RP0=0, select bank0
  1390  018E  1303               	bcf	3,6	;RP1=0, select bank0
  1391  018F  00A3               	movwf	Lcd_Set_Cursor@b
  1392  0190  3002               	movlw	2
  1393  0191  120A  118A  26C8  120A  118A  	fcall	_Lcd_Set_Cursor
  1394  0196                     l1957:
  1395                           
  1396                           ;C:/MPlab_Digital2/Digital_2/Proyecto3Digital2.X/main.c: 117:     INTCONbits.TMR0IE = 1;
  1397  0196  309C               	movlw	156
  1398  0197  1283               	bcf	3,5	;RP0=0, select bank0
  1399  0198  1303               	bcf	3,6	;RP1=0, select bank0
  1400  0199  00AA               	movwf	___wmul@multiplicand
  1401  019A  30FF               	movlw	255
  1402  019B  00AB               	movwf	___wmul@multiplicand+1
  1403  019C  0848               	movf	_esclavo2,w
  1404  019D  00BB               	movwf	??_main
  1405  019E  01BC               	clrf	??_main+1
  1406  019F  083B               	movf	??_main,w
  1407  01A0  00A2               	movwf	___awdiv@dividend
  1408  01A1  083C               	movf	??_main+1,w
  1409  01A2  00A3               	movwf	___awdiv@dividend+1
  1410  01A3  3064               	movlw	100
  1411  01A4  00A0               	movwf	___awdiv@divisor
  1412  01A5  3000               	movlw	0
  1413  01A6  00A1               	movwf	___awdiv@divisor+1
  1414  01A7  120A  118A  247C  120A  118A  	fcall	___awdiv
  1415  01AC  1283               	bcf	3,5	;RP0=0, select bank0
  1416  01AD  1303               	bcf	3,6	;RP1=0, select bank0
  1417  01AE  0821               	movf	?___awdiv+1,w
  1418  01AF  00A9               	movwf	___wmul@multiplier+1
  1419  01B0  0820               	movf	?___awdiv,w
  1420  01B1  00A8               	movwf	___wmul@multiplier
  1421  01B2  120A  118A  26A1  120A  118A  	fcall	___wmul
  1422  01B7  1283               	bcf	3,5	;RP0=0, select bank0
  1423  01B8  1303               	bcf	3,6	;RP1=0, select bank0
  1424  01B9  0848               	movf	_esclavo2,w
  1425  01BA  0728               	addwf	?___wmul,w
  1426  01BB  00BE               	movwf	_main$1223
  1427  01BC  0829               	movf	?___wmul+1,w
  1428  01BD  1803               	skipnc
  1429  01BE  0A29               	incf	?___wmul+1,w
  1430  01BF  00BF               	movwf	_main$1223+1
  1431  01C0                     l1959:
  1432                           
  1433                           ;C:/MPlab_Digital2/Digital_2/Proyecto3Digital2.X/main.c: 117:     INTCONbits.TMR0IE = 1;
  1434  01C0  309C               	movlw	156
  1435  01C1  00FF               	movwf	btemp+1
  1436  01C2  087F               	movf	btemp+1,w
  1437  01C3  00AE               	movwf	___bmul@multiplicand
  1438  01C4  0848               	movf	_esclavo2,w
  1439  01C5  00BB               	movwf	??_main
  1440  01C6  01BC               	clrf	??_main+1
  1441  01C7  083B               	movf	??_main,w
  1442  01C8  00A2               	movwf	___awdiv@dividend
  1443  01C9  083C               	movf	??_main+1,w
  1444  01CA  00A3               	movwf	___awdiv@dividend+1
  1445  01CB  3064               	movlw	100
  1446  01CC  00A0               	movwf	___awdiv@divisor
  1447  01CD  3000               	movlw	0
  1448  01CE  00A1               	movwf	___awdiv@divisor+1
  1449  01CF  120A  118A  247C  120A  118A  	fcall	___awdiv
  1450  01D4  1283               	bcf	3,5	;RP0=0, select bank0
  1451  01D5  1303               	bcf	3,6	;RP1=0, select bank0
  1452  01D6  0820               	movf	?___awdiv,w
  1453  01D7  120A  118A  2745  120A  118A  	fcall	___bmul
  1454  01DC  1283               	bcf	3,5	;RP0=0, select bank0
  1455  01DD  1303               	bcf	3,6	;RP1=0, select bank0
  1456  01DE  00BD               	movwf	??_main+2
  1457  01DF  30F6               	movlw	246
  1458  01E0  00FF               	movwf	btemp+1
  1459  01E1  087F               	movf	btemp+1,w
  1460  01E2  00AE               	movwf	___bmul@multiplicand
  1461  01E3  083F               	movf	_main$1223+1,w
  1462  01E4  00A3               	movwf	___awdiv@dividend+1
  1463  01E5  083E               	movf	_main$1223,w
  1464  01E6  00A2               	movwf	___awdiv@dividend
  1465  01E7  300A               	movlw	10
  1466  01E8  00A0               	movwf	___awdiv@divisor
  1467  01E9  3000               	movlw	0
  1468  01EA  00A1               	movwf	___awdiv@divisor+1
  1469  01EB  120A  118A  247C  120A  118A  	fcall	___awdiv
  1470  01F0  1283               	bcf	3,5	;RP0=0, select bank0
  1471  01F1  1303               	bcf	3,6	;RP1=0, select bank0
  1472  01F2  0820               	movf	?___awdiv,w
  1473  01F3  120A  118A  2745  120A  118A  	fcall	___bmul
  1474  01F8  1283               	bcf	3,5	;RP0=0, select bank0
  1475  01F9  1303               	bcf	3,6	;RP1=0, select bank0
  1476  01FA  073D               	addwf	??_main+2,w
  1477  01FB  0748               	addwf	_esclavo2,w
  1478  01FC  3E30               	addlw	48
  1479  01FD  120A  118A  2785  120A  118A  	fcall	_Lcd_Write_Char
  1480  0202  2840               	goto	l1897
  1481  0203  120A  118A  2812   	ljmp	start
  1482  0206                     __end_of_main:
  1483                           
  1484                           	psect	text1
  1485  0596                     __ptext1:	
  1486 ;; *************** function _setup *****************
  1487 ;; Defined at:
  1488 ;;		line 124 in file "C:/MPlab_Digital2/Digital_2/Proyecto3Digital2.X/main.c"
  1489 ;; Parameters:    Size  Location     Type
  1490 ;;		None
  1491 ;; Auto vars:     Size  Location     Type
  1492 ;;		None
  1493 ;; Return value:  Size  Location     Type
  1494 ;;                  1    wreg      void 
  1495 ;; Registers used:
  1496 ;;		wreg, fsr0l, fsr0h, status,2, status,0, pclath, cstack
  1497 ;; Tracked objects:
  1498 ;;		On entry : 0/0
  1499 ;;		On exit  : 0/0
  1500 ;;		Unchanged: 0/0
  1501 ;; Data sizes:     COMMON   BANK0   BANK1   BANK3   BANK2
  1502 ;;      Params:         0       0       0       0       0
  1503 ;;      Locals:         0       0       0       0       0
  1504 ;;      Temps:          0       0       0       0       0
  1505 ;;      Totals:         0       0       0       0       0
  1506 ;;Total ram usage:        0 bytes
  1507 ;; Hardware stack levels used:    1
  1508 ;; Hardware stack levels required when called:    6
  1509 ;; This function calls:
  1510 ;;		_Lcd_Init
  1511 ;;		_initOsc
  1512 ;;		_initUSART
  1513 ;;		_spiInit
  1514 ;; This function is called by:
  1515 ;;		_main
  1516 ;; This function uses a non-reentrant model
  1517 ;;
  1518                           
  1519                           
  1520                           ;psect for function _setup
  1521  0596                     _setup:
  1522  0596                     l1753:	
  1523                           ;incstack = 0
  1524                           ; Regs used in _setup: [wreg-fsr0h+status,2+status,0+pclath+cstack]
  1525                           
  1526                           
  1527                           ;C:/MPlab_Digital2/Digital_2/Proyecto3Digital2.X/main.c: 125:     }
  1528  0596  120A  118A  2771  120A  118A  	fcall	_initUSART
  1529  059B                     l1755:
  1530                           
  1531                           ;C:/MPlab_Digital2/Digital_2/Proyecto3Digital2.X/main.c: 126: }
  1532  059B  3006               	movlw	6
  1533  059C  120A  118A  253F  120A  118A  	fcall	_initOsc
  1534  05A1                     l1757:
  1535                           
  1536                           ;C:/MPlab_Digital2/Digital_2/Proyecto3Digital2.X/main.c: 127: void envio_esclavos(void){
  1537  05A1  30D7               	movlw	215
  1538  05A2  1683               	bsf	3,5	;RP0=1, select bank1
  1539  05A3  1303               	bcf	3,6	;RP1=0, select bank1
  1540  05A4  0081               	movwf	1	;volatile
  1541  05A5                     l1759:
  1542                           
  1543                           ;C:/MPlab_Digital2/Digital_2/Proyecto3Digital2.X/main.c: 128:     if (controles > 50){
  1544  05A5  1683               	bsf	3,5	;RP0=1, select bank3
  1545  05A6  1703               	bsf	3,6	;RP1=1, select bank3
  1546  05A7  0188               	clrf	8	;volatile
  1547  05A8                     l1761:
  1548                           
  1549                           ;C:/MPlab_Digital2/Digital_2/Proyecto3Digital2.X/main.c: 129:         controles = 0;
  1550  05A8  0189               	clrf	9	;volatile
  1551  05A9                     l1763:
  1552                           
  1553                           ;C:/MPlab_Digital2/Digital_2/Proyecto3Digital2.X/main.c: 130:         PORTCbits.RC2 = 1;
  1554  05A9  1283               	bcf	3,5	;RP0=0, select bank0
  1555  05AA  1303               	bcf	3,6	;RP1=0, select bank0
  1556  05AB  0187               	clrf	7	;volatile
  1557  05AC                     l1765:
  1558                           
  1559                           ;C:/MPlab_Digital2/Digital_2/Proyecto3Digital2.X/main.c: 131:         PORTCbits.RC1 = 1;
  1560  05AC  0188               	clrf	8	;volatile
  1561  05AD                     l1767:
  1562                           
  1563                           ;C:/MPlab_Digital2/Digital_2/Proyecto3Digital2.X/main.c: 132:         PORTCbits.RC0 = 1;
  1564  05AD  1683               	bsf	3,5	;RP0=1, select bank1
  1565  05AE  1303               	bcf	3,6	;RP1=0, select bank1
  1566  05AF  0188               	clrf	8	;volatile
  1567  05B0                     l1769:
  1568                           
  1569                           ;C:/MPlab_Digital2/Digital_2/Proyecto3Digital2.X/main.c: 133:         switch(slave){
  1570  05B0  1283               	bcf	3,5	;RP0=0, select bank0
  1571  05B1  1303               	bcf	3,6	;RP1=0, select bank0
  1572  05B2  0186               	clrf	6	;volatile
  1573  05B3                     l1771:
  1574                           
  1575                           ;C:/MPlab_Digital2/Digital_2/Proyecto3Digital2.X/main.c: 134:             case 0:
  1576  05B3  1683               	bsf	3,5	;RP0=1, select bank1
  1577  05B4  1303               	bcf	3,6	;RP1=0, select bank1
  1578  05B5  0189               	clrf	9	;volatile
  1579  05B6                     l1773:
  1580                           
  1581                           ;C:/MPlab_Digital2/Digital_2/Proyecto3Digital2.X/main.c: 135:                 PORTCbits.
      +                          RC0 = 0;
  1582  05B6  1283               	bcf	3,5	;RP0=0, select bank0
  1583  05B7  1303               	bcf	3,6	;RP1=0, select bank0
  1584  05B8  0189               	clrf	9	;volatile
  1585  05B9                     l1775:
  1586                           
  1587                           ;C:/MPlab_Digital2/Digital_2/Proyecto3Digital2.X/main.c: 136:                 SSPBUF = 0
      +                          ;
  1588  05B9  0185               	clrf	5	;volatile
  1589  05BA                     l1777:
  1590                           
  1591                           ;C:/MPlab_Digital2/Digital_2/Proyecto3Digital2.X/main.c: 137:                 esclavo1 =
      +                           spiRead();
  1592  05BA  1683               	bsf	3,5	;RP0=1, select bank1
  1593  05BB  1303               	bcf	3,6	;RP1=0, select bank1
  1594  05BC  0185               	clrf	5	;volatile
  1595  05BD                     l1779:
  1596                           
  1597                           ;C:/MPlab_Digital2/Digital_2/Proyecto3Digital2.X/main.c: 138:                 slave++;
  1598  05BD  0186               	clrf	6	;volatile
  1599  05BE                     l1781:
  1600                           
  1601                           ;C:/MPlab_Digital2/Digital_2/Proyecto3Digital2.X/main.c: 139:                 break;
  1602  05BE  1283               	bcf	3,5	;RP0=0, select bank0
  1603  05BF  1303               	bcf	3,6	;RP1=0, select bank0
  1604  05C0  1407               	bsf	7,0	;volatile
  1605  05C1                     l1783:
  1606                           
  1607                           ;C:/MPlab_Digital2/Digital_2/Proyecto3Digital2.X/main.c: 140:             case 1:
  1608  05C1  1487               	bsf	7,1	;volatile
  1609  05C2                     l1785:
  1610                           
  1611                           ;C:/MPlab_Digital2/Digital_2/Proyecto3Digital2.X/main.c: 141:                 PORTCbits.
      +                          RC1 = 0;
  1612  05C2  1507               	bsf	7,2	;volatile
  1613  05C3                     l1787:
  1614                           
  1615                           ;C:/MPlab_Digital2/Digital_2/Proyecto3Digital2.X/main.c: 142:                 SSPBUF = 0
      +                          ;
  1616  05C3  120A  118A  24E5  120A  118A  	fcall	_Lcd_Init
  1617  05C8                     l1789:
  1618                           
  1619                           ;C:/MPlab_Digital2/Digital_2/Proyecto3Digital2.X/main.c: 144:                 slave++;
  1620  05C8  1683               	bsf	3,5	;RP0=1, select bank1
  1621  05C9  1303               	bcf	3,6	;RP1=0, select bank1
  1622  05CA  1607               	bsf	7,4	;volatile
  1623  05CB                     l1791:
  1624                           
  1625                           ;C:/MPlab_Digital2/Digital_2/Proyecto3Digital2.X/main.c: 145:                 break;
  1626  05CB  1187               	bcf	7,3	;volatile
  1627  05CC                     l1793:
  1628                           
  1629                           ;C:/MPlab_Digital2/Digital_2/Proyecto3Digital2.X/main.c: 146:             case 2:
  1630  05CC  1007               	bcf	7,0	;volatile
  1631  05CD                     l1795:
  1632                           
  1633                           ;C:/MPlab_Digital2/Digital_2/Proyecto3Digital2.X/main.c: 147:                 PORTCbits.
      +                          RC2 = 0;
  1634  05CD  1087               	bcf	7,1	;volatile
  1635  05CE                     l1797:
  1636                           
  1637                           ;C:/MPlab_Digital2/Digital_2/Proyecto3Digital2.X/main.c: 148:                 SSPBUF = 0
      +                          ;
  1638  05CE  1107               	bcf	7,2	;volatile
  1639  05CF                     l1799:
  1640                           
  1641                           ;C:/MPlab_Digital2/Digital_2/Proyecto3Digital2.X/main.c: 149:                 esclavo3 =
      +                           spiRead();
  1642  05CF  1283               	bcf	3,5	;RP0=0, select bank0
  1643  05D0  1303               	bcf	3,6	;RP1=0, select bank0
  1644  05D1  01A0               	clrf	spiInit@sDataSample
  1645  05D2  01A1               	clrf	spiInit@sClockIdle
  1646  05D3  01A2               	clrf	spiInit@sTransmitEdge
  1647  05D4  3020               	movlw	32
  1648  05D5  120A  118A  270E  120A  118A  	fcall	_spiInit
  1649  05DA                     l1801:
  1650                           
  1651                           ;C:/MPlab_Digital2/Digital_2/Proyecto3Digital2.X/main.c: 151:                 break;
  1652  05DA  178B               	bsf	11,7	;volatile
  1653  05DB                     l1803:
  1654                           
  1655                           ;C:/MPlab_Digital2/Digital_2/Proyecto3Digital2.X/main.c: 152:         }
  1656  05DB  170B               	bsf	11,6	;volatile
  1657  05DC                     l1805:
  1658                           
  1659                           ;C:/MPlab_Digital2/Digital_2/Proyecto3Digital2.X/main.c: 153:       }
  1660  05DC  168B               	bsf	11,5	;volatile
  1661  05DD                     l1807:
  1662                           
  1663                           ;C:/MPlab_Digital2/Digital_2/Proyecto3Digital2.X/main.c: 154:    }
  1664  05DD  110B               	bcf	11,2	;volatile
  1665  05DE                     l1809:
  1666                           
  1667                           ;C:/MPlab_Digital2/Digital_2/Proyecto3Digital2.X/main.c: 155: void envio (void){
  1668  05DE  1683               	bsf	3,5	;RP0=1, select bank1
  1669  05DF  1303               	bcf	3,6	;RP1=0, select bank1
  1670  05E0  160C               	bsf	12,4	;volatile
  1671  05E1                     l1811:
  1672                           
  1673                           ;C:/MPlab_Digital2/Digital_2/Proyecto3Digital2.X/main.c: 156:     switch (var_envio){
  1674  05E1  1283               	bcf	3,5	;RP0=0, select bank0
  1675  05E2  1303               	bcf	3,6	;RP1=0, select bank0
  1676  05E3  120C               	bcf	12,4	;volatile
  1677  05E4                     l168:
  1678  05E4  0008               	return
  1679  05E5                     __end_of_setup:
  1680                           
  1681                           	psect	text2
  1682  070E                     __ptext2:	
  1683 ;; *************** function _spiInit *****************
  1684 ;; Defined at:
  1685 ;;		line 12 in file "C:/MPlab_Digital2/Digital_2/Proyecto3Digital2.X/SPI.c"
  1686 ;; Parameters:    Size  Location     Type
  1687 ;;  sType           1    wreg     enum E1264
  1688 ;;  sDataSample     1    0[BANK0 ] enum E1272
  1689 ;;  sClockIdle      1    1[BANK0 ] enum E1276
  1690 ;;  sTransmitEdg    1    2[BANK0 ] enum E1280
  1691 ;; Auto vars:     Size  Location     Type
  1692 ;;  sType           1    3[BANK0 ] enum E1264
  1693 ;; Return value:  Size  Location     Type
  1694 ;;                  1    wreg      void 
  1695 ;; Registers used:
  1696 ;;		wreg, status,2, status,0
  1697 ;; Tracked objects:
  1698 ;;		On entry : 0/0
  1699 ;;		On exit  : 0/0
  1700 ;;		Unchanged: 0/0
  1701 ;; Data sizes:     COMMON   BANK0   BANK1   BANK3   BANK2
  1702 ;;      Params:         0       3       0       0       0
  1703 ;;      Locals:         0       1       0       0       0
  1704 ;;      Temps:          0       0       0       0       0
  1705 ;;      Totals:         0       4       0       0       0
  1706 ;;Total ram usage:        4 bytes
  1707 ;; Hardware stack levels used:    1
  1708 ;; Hardware stack levels required when called:    3
  1709 ;; This function calls:
  1710 ;;		Nothing
  1711 ;; This function is called by:
  1712 ;;		_setup
  1713 ;; This function uses a non-reentrant model
  1714 ;;
  1715                           
  1716                           
  1717                           ;psect for function _spiInit
  1718  070E                     _spiInit:
  1719                           
  1720                           ;incstack = 0
  1721                           ; Regs used in _spiInit: [wreg+status,2+status,0]
  1722                           ;spiInit@sType stored from wreg
  1723  070E  1283               	bcf	3,5	;RP0=0, select bank0
  1724  070F  1303               	bcf	3,6	;RP1=0, select bank0
  1725  0710  00A3               	movwf	spiInit@sType
  1726  0711                     l1525:
  1727                           
  1728                           ;C:/MPlab_Digital2/Digital_2/Proyecto3Digital2.X/SPI.c: 12: void spiInit(Spi_Type sType,
      +                           Spi_Data_Sample sDataSample, Spi_Clock_Idle sClockIdle, Spi_Transmit_Edge sTransmitEdge
      +                          );C:/MPlab_Digital2/Digital_2/Proyecto3Digital2.X/SPI.c: 13: {;C:/MPlab_Digital2/Digital
      +                          _2/Proyecto3Digital2.X/SPI.c: 14:     TRISC5 = 0;
  1729  0711  1683               	bsf	3,5	;RP0=1, select bank1
  1730  0712  1303               	bcf	3,6	;RP1=0, select bank1
  1731  0713  1287               	bcf	7,5	;volatile
  1732                           
  1733                           ;C:/MPlab_Digital2/Digital_2/Proyecto3Digital2.X/SPI.c: 15:     if(sType & 0b00000100)
  1734  0714  1283               	bcf	3,5	;RP0=0, select bank0
  1735  0715  1303               	bcf	3,6	;RP1=0, select bank0
  1736  0716  1D23               	btfss	spiInit@sType,2
  1737  0717  2F19               	goto	u361
  1738  0718  2F1A               	goto	u360
  1739  0719                     u361:
  1740  0719  2F20               	goto	l1531
  1741  071A                     u360:
  1742  071A                     l1527:
  1743                           
  1744                           ;C:/MPlab_Digital2/Digital_2/Proyecto3Digital2.X/SPI.c: 16:     {;C:/MPlab_Digital2/Digi
      +                          tal_2/Proyecto3Digital2.X/SPI.c: 17:         SSPSTAT = sTransmitEdge;
  1745  071A  0822               	movf	spiInit@sTransmitEdge,w
  1746  071B  1683               	bsf	3,5	;RP0=1, select bank1
  1747  071C  1303               	bcf	3,6	;RP1=0, select bank1
  1748  071D  0094               	movwf	20	;volatile
  1749  071E                     l1529:
  1750                           
  1751                           ;C:/MPlab_Digital2/Digital_2/Proyecto3Digital2.X/SPI.c: 18:         TRISC3 = 1;
  1752  071E  1587               	bsf	7,3	;volatile
  1753                           
  1754                           ;C:/MPlab_Digital2/Digital_2/Proyecto3Digital2.X/SPI.c: 19:     }
  1755  071F  2F26               	goto	l249
  1756  0720                     l1531:
  1757                           
  1758                           ;C:/MPlab_Digital2/Digital_2/Proyecto3Digital2.X/SPI.c: 21:     {;C:/MPlab_Digital2/Digi
      +                          tal_2/Proyecto3Digital2.X/SPI.c: 22:         SSPSTAT = sDataSample | sTransmitEdge;
  1759  0720  0820               	movf	spiInit@sDataSample,w
  1760  0721  0422               	iorwf	spiInit@sTransmitEdge,w
  1761  0722  1683               	bsf	3,5	;RP0=1, select bank1
  1762  0723  1303               	bcf	3,6	;RP1=0, select bank1
  1763  0724  0094               	movwf	20	;volatile
  1764  0725                     l1533:
  1765                           
  1766                           ;C:/MPlab_Digital2/Digital_2/Proyecto3Digital2.X/SPI.c: 23:         TRISC3 = 0;
  1767  0725  1187               	bcf	7,3	;volatile
  1768  0726                     l249:	
  1769                           ;C:/MPlab_Digital2/Digital_2/Proyecto3Digital2.X/SPI.c: 24:     }
  1770                           
  1771                           
  1772                           ;C:/MPlab_Digital2/Digital_2/Proyecto3Digital2.X/SPI.c: 26:     SSPCON = sType | sClockI
      +                          dle;
  1773  0726  1283               	bcf	3,5	;RP0=0, select bank0
  1774  0727  1303               	bcf	3,6	;RP1=0, select bank0
  1775  0728  0823               	movf	spiInit@sType,w
  1776  0729  0421               	iorwf	spiInit@sClockIdle,w
  1777  072A  0094               	movwf	20	;volatile
  1778  072B                     l250:
  1779  072B  0008               	return
  1780  072C                     __end_of_spiInit:
  1781                           
  1782                           	psect	text3
  1783  0771                     __ptext3:	
  1784 ;; *************** function _initUSART *****************
  1785 ;; Defined at:
  1786 ;;		line 12 in file "C:/MPlab_Digital2/Digital_2/Proyecto3Digital2.X/usart9600.c"
  1787 ;; Parameters:    Size  Location     Type
  1788 ;;		None
  1789 ;; Auto vars:     Size  Location     Type
  1790 ;;		None
  1791 ;; Return value:  Size  Location     Type
  1792 ;;                  1    wreg      void 
  1793 ;; Registers used:
  1794 ;;		wreg, status,2
  1795 ;; Tracked objects:
  1796 ;;		On entry : 0/0
  1797 ;;		On exit  : 0/0
  1798 ;;		Unchanged: 0/0
  1799 ;; Data sizes:     COMMON   BANK0   BANK1   BANK3   BANK2
  1800 ;;      Params:         0       0       0       0       0
  1801 ;;      Locals:         0       0       0       0       0
  1802 ;;      Temps:          0       0       0       0       0
  1803 ;;      Totals:         0       0       0       0       0
  1804 ;;Total ram usage:        0 bytes
  1805 ;; Hardware stack levels used:    1
  1806 ;; Hardware stack levels required when called:    3
  1807 ;; This function calls:
  1808 ;;		Nothing
  1809 ;; This function is called by:
  1810 ;;		_setup
  1811 ;; This function uses a non-reentrant model
  1812 ;;
  1813                           
  1814                           
  1815                           ;psect for function _initUSART
  1816  0771                     _initUSART:
  1817  0771                     l1511:	
  1818                           ;incstack = 0
  1819                           ; Regs used in _initUSART: [wreg+status,2]
  1820                           
  1821                           
  1822                           ;C:/MPlab_Digital2/Digital_2/Proyecto3Digital2.X/usart9600.c: 13:     TXSTAbits.TX9 = 0;
  1823  0771  1683               	bsf	3,5	;RP0=1, select bank1
  1824  0772  1303               	bcf	3,6	;RP1=0, select bank1
  1825  0773  1318               	bcf	24,6	;volatile
  1826                           
  1827                           ;C:/MPlab_Digital2/Digital_2/Proyecto3Digital2.X/usart9600.c: 14:     TXSTAbits.SYNC = 0
      +                          ;
  1828  0774  1218               	bcf	24,4	;volatile
  1829                           
  1830                           ;C:/MPlab_Digital2/Digital_2/Proyecto3Digital2.X/usart9600.c: 15:     TXSTAbits.BRGH = 1
      +                          ;
  1831  0775  1518               	bsf	24,2	;volatile
  1832                           
  1833                           ;C:/MPlab_Digital2/Digital_2/Proyecto3Digital2.X/usart9600.c: 16:     BAUDCTLbits.BRG16 
      +                          = 0;
  1834  0776  1683               	bsf	3,5	;RP0=1, select bank3
  1835  0777  1703               	bsf	3,6	;RP1=1, select bank3
  1836  0778  1187               	bcf	7,3	;volatile
  1837  0779                     l1513:
  1838                           
  1839                           ;C:/MPlab_Digital2/Digital_2/Proyecto3Digital2.X/usart9600.c: 17:     SPBRG = 25;
  1840  0779  3019               	movlw	25
  1841  077A  1683               	bsf	3,5	;RP0=1, select bank1
  1842  077B  1303               	bcf	3,6	;RP1=0, select bank1
  1843  077C  0099               	movwf	25	;volatile
  1844  077D                     l1515:
  1845                           
  1846                           ;C:/MPlab_Digital2/Digital_2/Proyecto3Digital2.X/usart9600.c: 18:     SPBRGH = 0;
  1847  077D  019A               	clrf	26	;volatile
  1848  077E                     l1517:
  1849                           
  1850                           ;C:/MPlab_Digital2/Digital_2/Proyecto3Digital2.X/usart9600.c: 19:     TXSTAbits.TXEN = 1
      +                          ;
  1851  077E  1698               	bsf	24,5	;volatile
  1852  077F                     l1519:
  1853                           
  1854                           ;C:/MPlab_Digital2/Digital_2/Proyecto3Digital2.X/usart9600.c: 20:     RCSTAbits.SPEN = 1
      +                          ;
  1855  077F  1283               	bcf	3,5	;RP0=0, select bank0
  1856  0780  1303               	bcf	3,6	;RP1=0, select bank0
  1857  0781  1798               	bsf	24,7	;volatile
  1858  0782                     l1521:
  1859                           
  1860                           ;C:/MPlab_Digital2/Digital_2/Proyecto3Digital2.X/usart9600.c: 21:     RCSTAbits.RX9 = 0;
  1861  0782  1318               	bcf	24,6	;volatile
  1862  0783                     l1523:
  1863                           
  1864                           ;C:/MPlab_Digital2/Digital_2/Proyecto3Digital2.X/usart9600.c: 22:     RCSTAbits.CREN = 1
      +                          ;
  1865  0783  1618               	bsf	24,4	;volatile
  1866  0784                     l233:
  1867  0784  0008               	return
  1868  0785                     __end_of_initUSART:
  1869                           
  1870                           	psect	text4
  1871  053F                     __ptext4:	
  1872 ;; *************** function _initOsc *****************
  1873 ;; Defined at:
  1874 ;;		line 8 in file "C:/MPlab_Digital2/Digital_2/Proyecto3Digital2.X/librerias2.c"
  1875 ;; Parameters:    Size  Location     Type
  1876 ;;  option          1    wreg     unsigned char 
  1877 ;; Auto vars:     Size  Location     Type
  1878 ;;  option          1    2[BANK0 ] unsigned char 
  1879 ;; Return value:  Size  Location     Type
  1880 ;;                  1    wreg      void 
  1881 ;; Registers used:
  1882 ;;		wreg, fsr0l, fsr0h, status,2, status,0
  1883 ;; Tracked objects:
  1884 ;;		On entry : 0/0
  1885 ;;		On exit  : 0/0
  1886 ;;		Unchanged: 0/0
  1887 ;; Data sizes:     COMMON   BANK0   BANK1   BANK3   BANK2
  1888 ;;      Params:         0       0       0       0       0
  1889 ;;      Locals:         0       1       0       0       0
  1890 ;;      Temps:          0       2       0       0       0
  1891 ;;      Totals:         0       3       0       0       0
  1892 ;;Total ram usage:        3 bytes
  1893 ;; Hardware stack levels used:    1
  1894 ;; Hardware stack levels required when called:    3
  1895 ;; This function calls:
  1896 ;;		Nothing
  1897 ;; This function is called by:
  1898 ;;		_setup
  1899 ;; This function uses a non-reentrant model
  1900 ;;
  1901                           
  1902                           
  1903                           ;psect for function _initOsc
  1904  053F                     _initOsc:
  1905                           
  1906                           ;incstack = 0
  1907                           ; Regs used in _initOsc: [wreg-fsr0h+status,2+status,0]
  1908                           ;initOsc@option stored from wreg
  1909  053F  1283               	bcf	3,5	;RP0=0, select bank0
  1910  0540  1303               	bcf	3,6	;RP1=0, select bank0
  1911  0541  00A2               	movwf	initOsc@option
  1912  0542                     l1499:
  1913                           
  1914                           ;C:/MPlab_Digital2/Digital_2/Proyecto3Digital2.X/librerias2.c: 9:     switch (option){
  1915  0542  2D73               	goto	l1503
  1916  0543                     l47:	
  1917                           ;C:/MPlab_Digital2/Digital_2/Proyecto3Digital2.X/librerias2.c: 10:         case 0:
  1918                           
  1919                           
  1920                           ;C:/MPlab_Digital2/Digital_2/Proyecto3Digital2.X/librerias2.c: 11:             OSCCONbit
      +                          s.IRCF2 = 0;
  1921  0543  1683               	bsf	3,5	;RP0=1, select bank1
  1922  0544  1303               	bcf	3,6	;RP1=0, select bank1
  1923  0545  130F               	bcf	15,6	;volatile
  1924                           
  1925                           ;C:/MPlab_Digital2/Digital_2/Proyecto3Digital2.X/librerias2.c: 12:             OSCCONbit
      +                          s.IRCF1 = 0;
  1926  0546  128F               	bcf	15,5	;volatile
  1927                           
  1928                           ;C:/MPlab_Digital2/Digital_2/Proyecto3Digital2.X/librerias2.c: 13:             OSCCONbit
      +                          s.IRCF0 = 0;
  1929  0547  120F               	bcf	15,4	;volatile
  1930                           
  1931                           ;C:/MPlab_Digital2/Digital_2/Proyecto3Digital2.X/librerias2.c: 14:             break;
  1932  0548  2D95               	goto	l56
  1933  0549                     l49:	
  1934                           ;C:/MPlab_Digital2/Digital_2/Proyecto3Digital2.X/librerias2.c: 15:         case 1:
  1935                           
  1936                           
  1937                           ;C:/MPlab_Digital2/Digital_2/Proyecto3Digital2.X/librerias2.c: 16:             OSCCONbit
      +                          s.IRCF2 = 0;
  1938  0549  1683               	bsf	3,5	;RP0=1, select bank1
  1939  054A  1303               	bcf	3,6	;RP1=0, select bank1
  1940  054B  130F               	bcf	15,6	;volatile
  1941                           
  1942                           ;C:/MPlab_Digital2/Digital_2/Proyecto3Digital2.X/librerias2.c: 17:             OSCCONbit
      +                          s.IRCF1 = 0;
  1943  054C  128F               	bcf	15,5	;volatile
  1944                           
  1945                           ;C:/MPlab_Digital2/Digital_2/Proyecto3Digital2.X/librerias2.c: 18:             OSCCONbit
      +                          s.IRCF0 = 1;
  1946  054D  160F               	bsf	15,4	;volatile
  1947                           
  1948                           ;C:/MPlab_Digital2/Digital_2/Proyecto3Digital2.X/librerias2.c: 19:             break;
  1949  054E  2D95               	goto	l56
  1950  054F                     l50:	
  1951                           ;C:/MPlab_Digital2/Digital_2/Proyecto3Digital2.X/librerias2.c: 20:         case 2:
  1952                           
  1953                           
  1954                           ;C:/MPlab_Digital2/Digital_2/Proyecto3Digital2.X/librerias2.c: 21:             OSCCONbit
      +                          s.IRCF2 = 0;
  1955  054F  1683               	bsf	3,5	;RP0=1, select bank1
  1956  0550  1303               	bcf	3,6	;RP1=0, select bank1
  1957  0551  130F               	bcf	15,6	;volatile
  1958                           
  1959                           ;C:/MPlab_Digital2/Digital_2/Proyecto3Digital2.X/librerias2.c: 22:             OSCCONbit
      +                          s.IRCF1 = 1;
  1960  0552  168F               	bsf	15,5	;volatile
  1961                           
  1962                           ;C:/MPlab_Digital2/Digital_2/Proyecto3Digital2.X/librerias2.c: 23:             OSCCONbit
      +                          s.IRCF0 = 0;
  1963  0553  120F               	bcf	15,4	;volatile
  1964                           
  1965                           ;C:/MPlab_Digital2/Digital_2/Proyecto3Digital2.X/librerias2.c: 24:             break;
  1966  0554  2D95               	goto	l56
  1967  0555                     l51:	
  1968                           ;C:/MPlab_Digital2/Digital_2/Proyecto3Digital2.X/librerias2.c: 25:         case 3:
  1969                           
  1970                           
  1971                           ;C:/MPlab_Digital2/Digital_2/Proyecto3Digital2.X/librerias2.c: 26:             OSCCONbit
      +                          s.IRCF2 = 0;
  1972  0555  1683               	bsf	3,5	;RP0=1, select bank1
  1973  0556  1303               	bcf	3,6	;RP1=0, select bank1
  1974  0557  130F               	bcf	15,6	;volatile
  1975                           
  1976                           ;C:/MPlab_Digital2/Digital_2/Proyecto3Digital2.X/librerias2.c: 27:             OSCCONbit
      +                          s.IRCF1 = 1;
  1977  0558  168F               	bsf	15,5	;volatile
  1978                           
  1979                           ;C:/MPlab_Digital2/Digital_2/Proyecto3Digital2.X/librerias2.c: 28:             OSCCONbit
      +                          s.IRCF0 = 1;
  1980  0559  160F               	bsf	15,4	;volatile
  1981                           
  1982                           ;C:/MPlab_Digital2/Digital_2/Proyecto3Digital2.X/librerias2.c: 29:             break;
  1983  055A  2D95               	goto	l56
  1984  055B                     l52:	
  1985                           ;C:/MPlab_Digital2/Digital_2/Proyecto3Digital2.X/librerias2.c: 30:         case 4:
  1986                           
  1987                           
  1988                           ;C:/MPlab_Digital2/Digital_2/Proyecto3Digital2.X/librerias2.c: 31:             OSCCONbit
      +                          s.IRCF2 = 1;
  1989  055B  1683               	bsf	3,5	;RP0=1, select bank1
  1990  055C  1303               	bcf	3,6	;RP1=0, select bank1
  1991  055D  170F               	bsf	15,6	;volatile
  1992                           
  1993                           ;C:/MPlab_Digital2/Digital_2/Proyecto3Digital2.X/librerias2.c: 32:             OSCCONbit
      +                          s.IRCF1 = 0;
  1994  055E  128F               	bcf	15,5	;volatile
  1995                           
  1996                           ;C:/MPlab_Digital2/Digital_2/Proyecto3Digital2.X/librerias2.c: 33:             OSCCONbit
      +                          s.IRCF0 = 0;
  1997  055F  120F               	bcf	15,4	;volatile
  1998                           
  1999                           ;C:/MPlab_Digital2/Digital_2/Proyecto3Digital2.X/librerias2.c: 34:             break;
  2000  0560  2D95               	goto	l56
  2001  0561                     l53:	
  2002                           ;C:/MPlab_Digital2/Digital_2/Proyecto3Digital2.X/librerias2.c: 35:         case 5:
  2003                           
  2004                           
  2005                           ;C:/MPlab_Digital2/Digital_2/Proyecto3Digital2.X/librerias2.c: 36:             OSCCONbit
      +                          s.IRCF2 = 1;
  2006  0561  1683               	bsf	3,5	;RP0=1, select bank1
  2007  0562  1303               	bcf	3,6	;RP1=0, select bank1
  2008  0563  170F               	bsf	15,6	;volatile
  2009                           
  2010                           ;C:/MPlab_Digital2/Digital_2/Proyecto3Digital2.X/librerias2.c: 37:             OSCCONbit
      +                          s.IRCF1 = 0;
  2011  0564  128F               	bcf	15,5	;volatile
  2012                           
  2013                           ;C:/MPlab_Digital2/Digital_2/Proyecto3Digital2.X/librerias2.c: 38:             OSCCONbit
      +                          s.IRCF0 = 1;
  2014  0565  160F               	bsf	15,4	;volatile
  2015                           
  2016                           ;C:/MPlab_Digital2/Digital_2/Proyecto3Digital2.X/librerias2.c: 39:             break;
  2017  0566  2D95               	goto	l56
  2018  0567                     l54:	
  2019                           ;C:/MPlab_Digital2/Digital_2/Proyecto3Digital2.X/librerias2.c: 40:         case 6:
  2020                           
  2021                           
  2022                           ;C:/MPlab_Digital2/Digital_2/Proyecto3Digital2.X/librerias2.c: 41:             OSCCONbit
      +                          s.IRCF2 = 1;
  2023  0567  1683               	bsf	3,5	;RP0=1, select bank1
  2024  0568  1303               	bcf	3,6	;RP1=0, select bank1
  2025  0569  170F               	bsf	15,6	;volatile
  2026                           
  2027                           ;C:/MPlab_Digital2/Digital_2/Proyecto3Digital2.X/librerias2.c: 42:             OSCCONbit
      +                          s.IRCF1 = 1;
  2028  056A  168F               	bsf	15,5	;volatile
  2029                           
  2030                           ;C:/MPlab_Digital2/Digital_2/Proyecto3Digital2.X/librerias2.c: 43:             OSCCONbit
      +                          s.IRCF0 = 0;
  2031  056B  120F               	bcf	15,4	;volatile
  2032                           
  2033                           ;C:/MPlab_Digital2/Digital_2/Proyecto3Digital2.X/librerias2.c: 44:             break;
  2034  056C  2D95               	goto	l56
  2035  056D                     l55:	
  2036                           ;C:/MPlab_Digital2/Digital_2/Proyecto3Digital2.X/librerias2.c: 45:         case 7:
  2037                           
  2038                           
  2039                           ;C:/MPlab_Digital2/Digital_2/Proyecto3Digital2.X/librerias2.c: 46:             OSCCONbit
      +                          s.IRCF2 = 1;
  2040  056D  1683               	bsf	3,5	;RP0=1, select bank1
  2041  056E  1303               	bcf	3,6	;RP1=0, select bank1
  2042  056F  170F               	bsf	15,6	;volatile
  2043                           
  2044                           ;C:/MPlab_Digital2/Digital_2/Proyecto3Digital2.X/librerias2.c: 47:             OSCCONbit
      +                          s.IRCF1 = 1;
  2045  0570  168F               	bsf	15,5	;volatile
  2046                           
  2047                           ;C:/MPlab_Digital2/Digital_2/Proyecto3Digital2.X/librerias2.c: 48:             OSCCONbit
      +                          s.IRCF0 = 1;
  2048  0571  160F               	bsf	15,4	;volatile
  2049                           
  2050                           ;C:/MPlab_Digital2/Digital_2/Proyecto3Digital2.X/librerias2.c: 49:             break;
  2051  0572  2D95               	goto	l56
  2052  0573                     l1503:
  2053  0573  0822               	movf	initOsc@option,w
  2054  0574  00A0               	movwf	??_initOsc
  2055  0575  01A1               	clrf	??_initOsc+1
  2056                           
  2057                           ; Switch on 2 bytes has been partitioned into a top level switch of size 1, and 1 sub-sw
      +                          itches
  2058                           ; Switch size 1, requested type "simple"
  2059                           ; Number of cases is 1, Range of values is 0 to 0
  2060                           ; switch strategies available:
  2061                           ; Name         Instructions Cycles
  2062                           ; simple_byte            4     3 (average)
  2063                           ; direct_byte           11     8 (fixed)
  2064                           ; jumptable            260     6 (fixed)
  2065                           ;	Chosen strategy is simple_byte
  2066  0576  0821               	movf	??_initOsc+1,w
  2067  0577  3A00               	xorlw	0	; case 0
  2068  0578  1903               	skipnz
  2069  0579  2D7B               	goto	l2051
  2070  057A  2D95               	goto	l56
  2071  057B                     l2051:
  2072                           
  2073                           ; Switch size 1, requested type "simple"
  2074                           ; Number of cases is 8, Range of values is 0 to 7
  2075                           ; switch strategies available:
  2076                           ; Name         Instructions Cycles
  2077                           ; simple_byte           25    13 (average)
  2078                           ; direct_byte           32     8 (fixed)
  2079                           ; jumptable            260     6 (fixed)
  2080                           ;	Chosen strategy is simple_byte
  2081  057B  0820               	movf	??_initOsc,w
  2082  057C  3A00               	xorlw	0	; case 0
  2083  057D  1903               	skipnz
  2084  057E  2D43               	goto	l47
  2085  057F  3A01               	xorlw	1	; case 1
  2086  0580  1903               	skipnz
  2087  0581  2D49               	goto	l49
  2088  0582  3A03               	xorlw	3	; case 2
  2089  0583  1903               	skipnz
  2090  0584  2D4F               	goto	l50
  2091  0585  3A01               	xorlw	1	; case 3
  2092  0586  1903               	skipnz
  2093  0587  2D55               	goto	l51
  2094  0588  3A07               	xorlw	7	; case 4
  2095  0589  1903               	skipnz
  2096  058A  2D5B               	goto	l52
  2097  058B  3A01               	xorlw	1	; case 5
  2098  058C  1903               	skipnz
  2099  058D  2D61               	goto	l53
  2100  058E  3A03               	xorlw	3	; case 6
  2101  058F  1903               	skipnz
  2102  0590  2D67               	goto	l54
  2103  0591  3A01               	xorlw	1	; case 7
  2104  0592  1903               	skipnz
  2105  0593  2D6D               	goto	l55
  2106  0594  2D95               	goto	l56
  2107  0595                     l56:
  2108  0595  0008               	return
  2109  0596                     __end_of_initOsc:
  2110                           
  2111                           	psect	text5
  2112  04E5                     __ptext5:	
  2113 ;; *************** function _Lcd_Init *****************
  2114 ;; Defined at:
  2115 ;;		line 40 in file "C:/MPlab_Digital2/Digital_2/Proyecto3Digital2.X/Display8bits.c"
  2116 ;; Parameters:    Size  Location     Type
  2117 ;;		None
  2118 ;; Auto vars:     Size  Location     Type
  2119 ;;		None
  2120 ;; Return value:  Size  Location     Type
  2121 ;;                  1    wreg      void 
  2122 ;; Registers used:
  2123 ;;		wreg, status,2, status,0, pclath, cstack
  2124 ;; Tracked objects:
  2125 ;;		On entry : 0/0
  2126 ;;		On exit  : 0/0
  2127 ;;		Unchanged: 0/0
  2128 ;; Data sizes:     COMMON   BANK0   BANK1   BANK3   BANK2
  2129 ;;      Params:         0       0       0       0       0
  2130 ;;      Locals:         0       0       0       0       0
  2131 ;;      Temps:          0       2       0       0       0
  2132 ;;      Totals:         0       2       0       0       0
  2133 ;;Total ram usage:        2 bytes
  2134 ;; Hardware stack levels used:    1
  2135 ;; Hardware stack levels required when called:    5
  2136 ;; This function calls:
  2137 ;;		_Lcd_Cmd
  2138 ;;		_Lcd_Port
  2139 ;; This function is called by:
  2140 ;;		_setup
  2141 ;; This function uses a non-reentrant model
  2142 ;;
  2143                           
  2144                           
  2145                           ;psect for function _Lcd_Init
  2146  04E5                     _Lcd_Init:
  2147  04E5                     l1467:	
  2148                           ;incstack = 0
  2149                           ; Regs used in _Lcd_Init: [wreg+status,2+status,0+pclath+cstack]
  2150                           
  2151                           
  2152                           ;C:/MPlab_Digital2/Digital_2/Proyecto3Digital2.X/Display8bits.c: 41:   _delay((unsigned 
      +                          long)((15)*(400000/4000.0)));
  2153  04E5  30D5               	movlw	213
  2154  04E6  1283               	bcf	3,5	;RP0=0, select bank0
  2155  04E7  1303               	bcf	3,6	;RP1=0, select bank0
  2156  04E8  00A3               	movwf	??_Lcd_Init
  2157  04E9                     u697:
  2158  04E9  2CEA               	nop2
  2159  04EA  2CEB               	nop2
  2160  04EB  0BA3               	decfsz	??_Lcd_Init,f
  2161  04EC  2CE9               	goto	u697
  2162  04ED  2CEE               	nop2
  2163  04EE  2CEF               	nop2
  2164  04EF  2CF0               	nop2
  2165  04F0                     l1469:
  2166                           
  2167                           ;C:/MPlab_Digital2/Digital_2/Proyecto3Digital2.X/Display8bits.c: 42:   Lcd_Port(0x00);
  2168  04F0  3000               	movlw	0
  2169  04F1  120A  118A  27B9  120A  118A  	fcall	_Lcd_Port
  2170  04F6                     l1471:
  2171                           
  2172                           ;C:/MPlab_Digital2/Digital_2/Proyecto3Digital2.X/Display8bits.c: 43:    _delay((unsigned
      +                           long)((20)*(400000/4000.0)));
  2173  04F6  3003               	movlw	3
  2174  04F7  1283               	bcf	3,5	;RP0=0, select bank0
  2175  04F8  1303               	bcf	3,6	;RP1=0, select bank0
  2176  04F9  00A4               	movwf	??_Lcd_Init+1
  2177  04FA  3097               	movlw	151
  2178  04FB  00A3               	movwf	??_Lcd_Init
  2179  04FC                     u707:
  2180  04FC  0BA3               	decfsz	??_Lcd_Init,f
  2181  04FD  2CFC               	goto	u707
  2182  04FE  0BA4               	decfsz	??_Lcd_Init+1,f
  2183  04FF  2CFC               	goto	u707
  2184                           
  2185                           ;C:/MPlab_Digital2/Digital_2/Proyecto3Digital2.X/Display8bits.c: 44:   Lcd_Cmd(0x30);
  2186  0500  3030               	movlw	48
  2187  0501  120A  118A  272C  120A  118A  	fcall	_Lcd_Cmd
  2188  0506                     l1473:
  2189                           
  2190                           ;C:/MPlab_Digital2/Digital_2/Proyecto3Digital2.X/Display8bits.c: 45:  _delay((unsigned l
      +                          ong)((5)*(400000/4000.0)));
  2191  0506  30A5               	movlw	165
  2192  0507  1283               	bcf	3,5	;RP0=0, select bank0
  2193  0508  1303               	bcf	3,6	;RP1=0, select bank0
  2194  0509  00A3               	movwf	??_Lcd_Init
  2195  050A                     u717:
  2196  050A  0BA3               	decfsz	??_Lcd_Init,f
  2197  050B  2D0A               	goto	u717
  2198  050C  2D0D               	nop2
  2199  050D                     l1475:
  2200                           
  2201                           ;C:/MPlab_Digital2/Digital_2/Proyecto3Digital2.X/Display8bits.c: 46:   Lcd_Cmd(0x30);
  2202  050D  3030               	movlw	48
  2203  050E  120A  118A  272C  120A  118A  	fcall	_Lcd_Cmd
  2204                           
  2205                           ;C:/MPlab_Digital2/Digital_2/Proyecto3Digital2.X/Display8bits.c: 47:  _delay((unsigned l
      +                          ong)((160)*(400000/4000000.0)));
  2206  0513  3004               	movlw	4
  2207  0514  1283               	bcf	3,5	;RP0=0, select bank0
  2208  0515  1303               	bcf	3,6	;RP1=0, select bank0
  2209  0516  00A3               	movwf	??_Lcd_Init
  2210  0517                     u727:
  2211  0517  0BA3               	decfsz	??_Lcd_Init,f
  2212  0518  2D17               	goto	u727
  2213  0519  0000               	nop
  2214  051A                     l1477:
  2215                           
  2216                           ;C:/MPlab_Digital2/Digital_2/Proyecto3Digital2.X/Display8bits.c: 48:   Lcd_Cmd(0x30);
  2217  051A  3030               	movlw	48
  2218  051B  120A  118A  272C  120A  118A  	fcall	_Lcd_Cmd
  2219  0520                     l1479:
  2220                           
  2221                           ;C:/MPlab_Digital2/Digital_2/Proyecto3Digital2.X/Display8bits.c: 50:   Lcd_Cmd(0x38);
  2222  0520  3038               	movlw	56
  2223  0521  120A  118A  272C  120A  118A  	fcall	_Lcd_Cmd
  2224  0526                     l1481:
  2225                           
  2226                           ;C:/MPlab_Digital2/Digital_2/Proyecto3Digital2.X/Display8bits.c: 51:   Lcd_Cmd(0x10);
  2227  0526  3010               	movlw	16
  2228  0527  120A  118A  272C  120A  118A  	fcall	_Lcd_Cmd
  2229  052C                     l1483:
  2230                           
  2231                           ;C:/MPlab_Digital2/Digital_2/Proyecto3Digital2.X/Display8bits.c: 52:   Lcd_Cmd(0x01);
  2232  052C  3001               	movlw	1
  2233  052D  120A  118A  272C  120A  118A  	fcall	_Lcd_Cmd
  2234  0532                     l1485:
  2235                           
  2236                           ;C:/MPlab_Digital2/Digital_2/Proyecto3Digital2.X/Display8bits.c: 53:   Lcd_Cmd(0x06);
  2237  0532  3006               	movlw	6
  2238  0533  120A  118A  272C  120A  118A  	fcall	_Lcd_Cmd
  2239  0538                     l1487:
  2240                           
  2241                           ;C:/MPlab_Digital2/Digital_2/Proyecto3Digital2.X/Display8bits.c: 54:   Lcd_Cmd(0x0C);
  2242  0538  300C               	movlw	12
  2243  0539  120A  118A  272C  120A  118A  	fcall	_Lcd_Cmd
  2244  053E                     l26:
  2245  053E  0008               	return
  2246  053F                     __end_of_Lcd_Init:
  2247                           
  2248                           	psect	text6
  2249  0206                     __ptext6:	
  2250 ;; *************** function _mapeo *****************
  2251 ;; Defined at:
  2252 ;;		line 231 in file "C:/MPlab_Digital2/Digital_2/Proyecto3Digital2.X/main.c"
  2253 ;; Parameters:    Size  Location     Type
  2254 ;;		None
  2255 ;; Auto vars:     Size  Location     Type
  2256 ;;  TEMP2           2   25[BANK0 ] unsigned int 
  2257 ;;  TEMP1           2   23[BANK0 ] unsigned int 
  2258 ;; Return value:  Size  Location     Type
  2259 ;;                  1    wreg      void 
  2260 ;; Registers used:
  2261 ;;		wreg, status,2, status,0, btemp+1, pclath, cstack
  2262 ;; Tracked objects:
  2263 ;;		On entry : 0/0
  2264 ;;		On exit  : 0/0
  2265 ;;		Unchanged: 0/0
  2266 ;; Data sizes:     COMMON   BANK0   BANK1   BANK3   BANK2
  2267 ;;      Params:         0       0       0       0       0
  2268 ;;      Locals:         0       4       0       0       0
  2269 ;;      Temps:          0       2       0       0       0
  2270 ;;      Totals:         0       6       0       0       0
  2271 ;;Total ram usage:        6 bytes
  2272 ;; Hardware stack levels used:    1
  2273 ;; Hardware stack levels required when called:    4
  2274 ;; This function calls:
  2275 ;;		___awdiv
  2276 ;;		___bmul
  2277 ;;		___lwdiv
  2278 ;;		___wmul
  2279 ;; This function is called by:
  2280 ;;		_main
  2281 ;; This function uses a non-reentrant model
  2282 ;;
  2283                           
  2284                           
  2285                           ;psect for function _mapeo
  2286  0206                     _mapeo:
  2287  0206                     l1853:	
  2288                           ;incstack = 0
  2289                           ; Regs used in _mapeo: [wreg+status,2+status,0+btemp+1+pclath+cstack]
  2290                           
  2291  0206  1283               	bcf	3,5	;RP0=0, select bank0
  2292  0207  1303               	bcf	3,6	;RP1=0, select bank0
  2293  0208  01B9               	clrf	mapeo@TEMP2
  2294  0209  01BA               	clrf	mapeo@TEMP2+1
  2295  020A                     l1855:
  2296  020A  3033               	movlw	51
  2297  020B  00A0               	movwf	___awdiv@divisor
  2298  020C  3000               	movlw	0
  2299  020D  00A1               	movwf	___awdiv@divisor+1
  2300  020E  087C               	movf	_esclavo1,w
  2301  020F  00B5               	movwf	??_mapeo
  2302  0210  01B6               	clrf	??_mapeo+1
  2303  0211  0835               	movf	??_mapeo,w
  2304  0212  00A8               	movwf	___wmul@multiplier
  2305  0213  0836               	movf	??_mapeo+1,w
  2306  0214  00A9               	movwf	___wmul@multiplier+1
  2307  0215  3064               	movlw	100
  2308  0216  00AA               	movwf	___wmul@multiplicand
  2309  0217  3000               	movlw	0
  2310  0218  00AB               	movwf	___wmul@multiplicand+1
  2311  0219  120A  118A  26A1  120A  118A  	fcall	___wmul
  2312  021E  1283               	bcf	3,5	;RP0=0, select bank0
  2313  021F  1303               	bcf	3,6	;RP1=0, select bank0
  2314  0220  0829               	movf	?___wmul+1,w
  2315  0221  00A3               	movwf	___awdiv@dividend+1
  2316  0222  0828               	movf	?___wmul,w
  2317  0223  00A2               	movwf	___awdiv@dividend
  2318  0224  120A  118A  247C  120A  118A  	fcall	___awdiv
  2319  0229  1283               	bcf	3,5	;RP0=0, select bank0
  2320  022A  1303               	bcf	3,6	;RP1=0, select bank0
  2321  022B  0821               	movf	?___awdiv+1,w
  2322  022C  00B8               	movwf	mapeo@TEMP1+1
  2323  022D  0820               	movf	?___awdiv,w
  2324  022E  00B7               	movwf	mapeo@TEMP1
  2325  022F                     l1857:
  2326  022F  3011               	movlw	17
  2327  0230  00A0               	movwf	___awdiv@divisor
  2328  0231  3000               	movlw	0
  2329  0232  00A1               	movwf	___awdiv@divisor+1
  2330  0233  087B               	movf	_esclavo3,w
  2331  0234  00B5               	movwf	??_mapeo
  2332  0235  01B6               	clrf	??_mapeo+1
  2333  0236  0835               	movf	??_mapeo,w
  2334  0237  00A8               	movwf	___wmul@multiplier
  2335  0238  0836               	movf	??_mapeo+1,w
  2336  0239  00A9               	movwf	___wmul@multiplier+1
  2337  023A  300A               	movlw	10
  2338  023B  00AA               	movwf	___wmul@multiplicand
  2339  023C  3000               	movlw	0
  2340  023D  00AB               	movwf	___wmul@multiplicand+1
  2341  023E  120A  118A  26A1  120A  118A  	fcall	___wmul
  2342  0243  1283               	bcf	3,5	;RP0=0, select bank0
  2343  0244  1303               	bcf	3,6	;RP1=0, select bank0
  2344  0245  0829               	movf	?___wmul+1,w
  2345  0246  00A3               	movwf	___awdiv@dividend+1
  2346  0247  0828               	movf	?___wmul,w
  2347  0248  00A2               	movwf	___awdiv@dividend
  2348  0249  120A  118A  247C  120A  118A  	fcall	___awdiv
  2349  024E  1283               	bcf	3,5	;RP0=0, select bank0
  2350  024F  1303               	bcf	3,6	;RP1=0, select bank0
  2351  0250  0821               	movf	?___awdiv+1,w
  2352  0251  00BA               	movwf	mapeo@TEMP2+1
  2353  0252  0820               	movf	?___awdiv,w
  2354  0253  00B9               	movwf	mapeo@TEMP2
  2355  0254                     l1859:
  2356  0254  3064               	movlw	100
  2357  0255  00AE               	movwf	___lwdiv@divisor
  2358  0256  3000               	movlw	0
  2359  0257  00AF               	movwf	___lwdiv@divisor+1
  2360  0258  0838               	movf	mapeo@TEMP1+1,w
  2361  0259  00B1               	movwf	___lwdiv@dividend+1
  2362  025A  0837               	movf	mapeo@TEMP1,w
  2363  025B  00B0               	movwf	___lwdiv@dividend
  2364  025C  120A  118A  2632  120A  118A  	fcall	___lwdiv
  2365  0261  1283               	bcf	3,5	;RP0=0, select bank0
  2366  0262  1303               	bcf	3,6	;RP1=0, select bank0
  2367  0263  082E               	movf	?___lwdiv,w
  2368  0264  00FF               	movwf	btemp+1
  2369  0265  087F               	movf	btemp+1,w
  2370  0266  00C3               	movwf	_centenasp1
  2371  0267                     l1861:
  2372  0267  300A               	movlw	10
  2373  0268  00AE               	movwf	___lwdiv@divisor
  2374  0269  3000               	movlw	0
  2375  026A  00AF               	movwf	___lwdiv@divisor+1
  2376  026B  0843               	movf	_centenasp1,w
  2377  026C  00B5               	movwf	??_mapeo
  2378  026D  01B6               	clrf	??_mapeo+1
  2379  026E  0835               	movf	??_mapeo,w
  2380  026F  00A8               	movwf	___wmul@multiplier
  2381  0270  0836               	movf	??_mapeo+1,w
  2382  0271  00A9               	movwf	___wmul@multiplier+1
  2383  0272  309C               	movlw	156
  2384  0273  00AA               	movwf	___wmul@multiplicand
  2385  0274  30FF               	movlw	255
  2386  0275  00AB               	movwf	___wmul@multiplicand+1
  2387  0276  120A  118A  26A1  120A  118A  	fcall	___wmul
  2388  027B  1283               	bcf	3,5	;RP0=0, select bank0
  2389  027C  1303               	bcf	3,6	;RP1=0, select bank0
  2390  027D  0837               	movf	mapeo@TEMP1,w
  2391  027E  0728               	addwf	?___wmul,w
  2392  027F  00B0               	movwf	___lwdiv@dividend
  2393  0280  0838               	movf	mapeo@TEMP1+1,w
  2394  0281  1803               	skipnc
  2395  0282  0A38               	incf	mapeo@TEMP1+1,w
  2396  0283  0729               	addwf	?___wmul+1,w
  2397  0284  00B1               	movwf	___lwdiv@dividend+1
  2398  0285  120A  118A  2632  120A  118A  	fcall	___lwdiv
  2399  028A  1283               	bcf	3,5	;RP0=0, select bank0
  2400  028B  1303               	bcf	3,6	;RP1=0, select bank0
  2401  028C  082E               	movf	?___lwdiv,w
  2402  028D  00FF               	movwf	btemp+1
  2403  028E  087F               	movf	btemp+1,w
  2404  028F  00C4               	movwf	_decenasp1
  2405  0290                     l1863:
  2406  0290  309C               	movlw	156
  2407  0291  00FF               	movwf	btemp+1
  2408  0292  087F               	movf	btemp+1,w
  2409  0293  00AE               	movwf	___bmul@multiplicand
  2410  0294  0843               	movf	_centenasp1,w
  2411  0295  120A  118A  2745  120A  118A  	fcall	___bmul
  2412  029A  1283               	bcf	3,5	;RP0=0, select bank0
  2413  029B  1303               	bcf	3,6	;RP1=0, select bank0
  2414  029C  00B5               	movwf	??_mapeo
  2415  029D  30F6               	movlw	246
  2416  029E  00FF               	movwf	btemp+1
  2417  029F  087F               	movf	btemp+1,w
  2418  02A0  00AE               	movwf	___bmul@multiplicand
  2419  02A1  0844               	movf	_decenasp1,w
  2420  02A2  120A  118A  2745  120A  118A  	fcall	___bmul
  2421  02A7  1283               	bcf	3,5	;RP0=0, select bank0
  2422  02A8  1303               	bcf	3,6	;RP1=0, select bank0
  2423  02A9  0735               	addwf	??_mapeo,w
  2424  02AA  0737               	addwf	mapeo@TEMP1,w
  2425  02AB  00FF               	movwf	btemp+1
  2426  02AC  087F               	movf	btemp+1,w
  2427  02AD  00C5               	movwf	_unidadesp1
  2428  02AE                     l1865:
  2429  02AE  3064               	movlw	100
  2430  02AF  00AE               	movwf	___lwdiv@divisor
  2431  02B0  3000               	movlw	0
  2432  02B1  00AF               	movwf	___lwdiv@divisor+1
  2433  02B2  083A               	movf	mapeo@TEMP2+1,w
  2434  02B3  00B1               	movwf	___lwdiv@dividend+1
  2435  02B4  0839               	movf	mapeo@TEMP2,w
  2436  02B5  00B0               	movwf	___lwdiv@dividend
  2437  02B6  120A  118A  2632  120A  118A  	fcall	___lwdiv
  2438  02BB  1283               	bcf	3,5	;RP0=0, select bank0
  2439  02BC  1303               	bcf	3,6	;RP1=0, select bank0
  2440  02BD  082E               	movf	?___lwdiv,w
  2441  02BE  00FF               	movwf	btemp+1
  2442  02BF  087F               	movf	btemp+1,w
  2443  02C0  00C0               	movwf	_centenasp2
  2444  02C1                     l1867:
  2445  02C1  300A               	movlw	10
  2446  02C2  00AE               	movwf	___lwdiv@divisor
  2447  02C3  3000               	movlw	0
  2448  02C4  00AF               	movwf	___lwdiv@divisor+1
  2449  02C5  0840               	movf	_centenasp2,w
  2450  02C6  00B5               	movwf	??_mapeo
  2451  02C7  01B6               	clrf	??_mapeo+1
  2452  02C8  0835               	movf	??_mapeo,w
  2453  02C9  00A8               	movwf	___wmul@multiplier
  2454  02CA  0836               	movf	??_mapeo+1,w
  2455  02CB  00A9               	movwf	___wmul@multiplier+1
  2456  02CC  309C               	movlw	156
  2457  02CD  00AA               	movwf	___wmul@multiplicand
  2458  02CE  30FF               	movlw	255
  2459  02CF  00AB               	movwf	___wmul@multiplicand+1
  2460  02D0  120A  118A  26A1  120A  118A  	fcall	___wmul
  2461  02D5  1283               	bcf	3,5	;RP0=0, select bank0
  2462  02D6  1303               	bcf	3,6	;RP1=0, select bank0
  2463  02D7  0839               	movf	mapeo@TEMP2,w
  2464  02D8  0728               	addwf	?___wmul,w
  2465  02D9  00B0               	movwf	___lwdiv@dividend
  2466  02DA  083A               	movf	mapeo@TEMP2+1,w
  2467  02DB  1803               	skipnc
  2468  02DC  0A3A               	incf	mapeo@TEMP2+1,w
  2469  02DD  0729               	addwf	?___wmul+1,w
  2470  02DE  00B1               	movwf	___lwdiv@dividend+1
  2471  02DF  120A  118A  2632  120A  118A  	fcall	___lwdiv
  2472  02E4  1283               	bcf	3,5	;RP0=0, select bank0
  2473  02E5  1303               	bcf	3,6	;RP1=0, select bank0
  2474  02E6  082E               	movf	?___lwdiv,w
  2475  02E7  00FF               	movwf	btemp+1
  2476  02E8  087F               	movf	btemp+1,w
  2477  02E9  00C1               	movwf	_decenasp2
  2478  02EA                     l1869:
  2479  02EA  309C               	movlw	156
  2480  02EB  00FF               	movwf	btemp+1
  2481  02EC  087F               	movf	btemp+1,w
  2482  02ED  00AE               	movwf	___bmul@multiplicand
  2483  02EE  0840               	movf	_centenasp2,w
  2484  02EF  120A  118A  2745  120A  118A  	fcall	___bmul
  2485  02F4  1283               	bcf	3,5	;RP0=0, select bank0
  2486  02F5  1303               	bcf	3,6	;RP1=0, select bank0
  2487  02F6  00B5               	movwf	??_mapeo
  2488  02F7  30F6               	movlw	246
  2489  02F8  00FF               	movwf	btemp+1
  2490  02F9  087F               	movf	btemp+1,w
  2491  02FA  00AE               	movwf	___bmul@multiplicand
  2492  02FB  0841               	movf	_decenasp2,w
  2493  02FC  120A  118A  2745  120A  118A  	fcall	___bmul
  2494  0301  1283               	bcf	3,5	;RP0=0, select bank0
  2495  0302  1303               	bcf	3,6	;RP1=0, select bank0
  2496  0303  0735               	addwf	??_mapeo,w
  2497  0304  0739               	addwf	mapeo@TEMP2,w
  2498  0305  00FF               	movwf	btemp+1
  2499  0306  087F               	movf	btemp+1,w
  2500  0307  00C2               	movwf	_unidadesp2
  2501  0308                     l198:
  2502  0308  0008               	return
  2503  0309                     __end_of_mapeo:
  2504                           
  2505                           	psect	text7
  2506  06A1                     __ptext7:	
  2507 ;; *************** function ___wmul *****************
  2508 ;; Defined at:
  2509 ;;		line 15 in file "C:\Program Files\Microchip\xc8\v2.20\pic\sources\c90\common\Umul16.c"
  2510 ;; Parameters:    Size  Location     Type
  2511 ;;  multiplier      2    8[BANK0 ] unsigned int 
  2512 ;;  multiplicand    2   10[BANK0 ] unsigned int 
  2513 ;; Auto vars:     Size  Location     Type
  2514 ;;  product         2   12[BANK0 ] unsigned int 
  2515 ;; Return value:  Size  Location     Type
  2516 ;;                  2    8[BANK0 ] unsigned int 
  2517 ;; Registers used:
  2518 ;;		wreg, status,2, status,0
  2519 ;; Tracked objects:
  2520 ;;		On entry : 0/0
  2521 ;;		On exit  : 0/0
  2522 ;;		Unchanged: 0/0
  2523 ;; Data sizes:     COMMON   BANK0   BANK1   BANK3   BANK2
  2524 ;;      Params:         0       4       0       0       0
  2525 ;;      Locals:         0       2       0       0       0
  2526 ;;      Temps:          0       0       0       0       0
  2527 ;;      Totals:         0       6       0       0       0
  2528 ;;Total ram usage:        6 bytes
  2529 ;; Hardware stack levels used:    1
  2530 ;; Hardware stack levels required when called:    3
  2531 ;; This function calls:
  2532 ;;		Nothing
  2533 ;; This function is called by:
  2534 ;;		_main
  2535 ;;		_mapeo
  2536 ;; This function uses a non-reentrant model
  2537 ;;
  2538                           
  2539                           
  2540                           ;psect for function ___wmul
  2541  06A1                     ___wmul:
  2542  06A1                     l1585:	
  2543                           ;incstack = 0
  2544                           ; Regs used in ___wmul: [wreg+status,2+status,0]
  2545                           
  2546  06A1  1283               	bcf	3,5	;RP0=0, select bank0
  2547  06A2  1303               	bcf	3,6	;RP1=0, select bank0
  2548  06A3  01AC               	clrf	___wmul@product
  2549  06A4  01AD               	clrf	___wmul@product+1
  2550  06A5                     l1587:
  2551  06A5  1C28               	btfss	___wmul@multiplier,0
  2552  06A6  2EA8               	goto	u371
  2553  06A7  2EA9               	goto	u370
  2554  06A8                     u371:
  2555  06A8  2EAF               	goto	l353
  2556  06A9                     u370:
  2557  06A9                     l1589:
  2558  06A9  082A               	movf	___wmul@multiplicand,w
  2559  06AA  07AC               	addwf	___wmul@product,f
  2560  06AB  1803               	skipnc
  2561  06AC  0AAD               	incf	___wmul@product+1,f
  2562  06AD  082B               	movf	___wmul@multiplicand+1,w
  2563  06AE  07AD               	addwf	___wmul@product+1,f
  2564  06AF                     l353:
  2565  06AF  3001               	movlw	1
  2566  06B0                     u385:
  2567  06B0  1003               	clrc
  2568  06B1  0DAA               	rlf	___wmul@multiplicand,f
  2569  06B2  0DAB               	rlf	___wmul@multiplicand+1,f
  2570  06B3  3EFF               	addlw	-1
  2571  06B4  1D03               	skipz
  2572  06B5  2EB0               	goto	u385
  2573  06B6                     l1591:
  2574  06B6  3001               	movlw	1
  2575  06B7                     u395:
  2576  06B7  1003               	clrc
  2577  06B8  0CA9               	rrf	___wmul@multiplier+1,f
  2578  06B9  0CA8               	rrf	___wmul@multiplier,f
  2579  06BA  3EFF               	addlw	-1
  2580  06BB  1D03               	skipz
  2581  06BC  2EB7               	goto	u395
  2582  06BD                     l1593:
  2583  06BD  0828               	movf	___wmul@multiplier,w
  2584  06BE  0429               	iorwf	___wmul@multiplier+1,w
  2585  06BF  1D03               	btfss	3,2
  2586  06C0  2EC2               	goto	u401
  2587  06C1  2EC3               	goto	u400
  2588  06C2                     u401:
  2589  06C2  2EA5               	goto	l1587
  2590  06C3                     u400:
  2591  06C3                     l1595:
  2592  06C3  082D               	movf	___wmul@product+1,w
  2593  06C4  00A9               	movwf	?___wmul+1
  2594  06C5  082C               	movf	___wmul@product,w
  2595  06C6  00A8               	movwf	?___wmul
  2596  06C7                     l355:
  2597  06C7  0008               	return
  2598  06C8                     __end_of___wmul:
  2599                           
  2600                           	psect	text8
  2601  0632                     __ptext8:	
  2602 ;; *************** function ___lwdiv *****************
  2603 ;; Defined at:
  2604 ;;		line 5 in file "C:\Program Files\Microchip\xc8\v2.20\pic\sources\c90\common\lwdiv.c"
  2605 ;; Parameters:    Size  Location     Type
  2606 ;;  divisor         2   14[BANK0 ] unsigned int 
  2607 ;;  dividend        2   16[BANK0 ] unsigned int 
  2608 ;; Auto vars:     Size  Location     Type
  2609 ;;  quotient        2   18[BANK0 ] unsigned int 
  2610 ;;  counter         1   20[BANK0 ] unsigned char 
  2611 ;; Return value:  Size  Location     Type
  2612 ;;                  2   14[BANK0 ] unsigned int 
  2613 ;; Registers used:
  2614 ;;		wreg, status,2, status,0, btemp+1
  2615 ;; Tracked objects:
  2616 ;;		On entry : 0/0
  2617 ;;		On exit  : 0/0
  2618 ;;		Unchanged: 0/0
  2619 ;; Data sizes:     COMMON   BANK0   BANK1   BANK3   BANK2
  2620 ;;      Params:         0       4       0       0       0
  2621 ;;      Locals:         0       3       0       0       0
  2622 ;;      Temps:          0       0       0       0       0
  2623 ;;      Totals:         0       7       0       0       0
  2624 ;;Total ram usage:        7 bytes
  2625 ;; Hardware stack levels used:    1
  2626 ;; Hardware stack levels required when called:    3
  2627 ;; This function calls:
  2628 ;;		Nothing
  2629 ;; This function is called by:
  2630 ;;		_mapeo
  2631 ;; This function uses a non-reentrant model
  2632 ;;
  2633                           
  2634                           
  2635                           ;psect for function ___lwdiv
  2636  0632                     ___lwdiv:
  2637  0632                     l1659:	
  2638                           ;incstack = 0
  2639                           ; Regs used in ___lwdiv: [wreg+status,2+status,0+btemp+1]
  2640                           
  2641  0632  1283               	bcf	3,5	;RP0=0, select bank0
  2642  0633  1303               	bcf	3,6	;RP1=0, select bank0
  2643  0634  01B2               	clrf	___lwdiv@quotient
  2644  0635  01B3               	clrf	___lwdiv@quotient+1
  2645  0636                     l1661:
  2646  0636  082E               	movf	___lwdiv@divisor,w
  2647  0637  042F               	iorwf	___lwdiv@divisor+1,w
  2648  0638  1903               	btfsc	3,2
  2649  0639  2E3B               	goto	u531
  2650  063A  2E3C               	goto	u530
  2651  063B                     u531:
  2652  063B  2E73               	goto	l1681
  2653  063C                     u530:
  2654  063C                     l1663:
  2655  063C  01B4               	clrf	___lwdiv@counter
  2656  063D  0AB4               	incf	___lwdiv@counter,f
  2657  063E  2E4A               	goto	l1669
  2658  063F                     l1665:
  2659  063F  3001               	movlw	1
  2660  0640                     u545:
  2661  0640  1003               	clrc
  2662  0641  0DAE               	rlf	___lwdiv@divisor,f
  2663  0642  0DAF               	rlf	___lwdiv@divisor+1,f
  2664  0643  3EFF               	addlw	-1
  2665  0644  1D03               	skipz
  2666  0645  2E40               	goto	u545
  2667  0646                     l1667:
  2668  0646  3001               	movlw	1
  2669  0647  00FF               	movwf	btemp+1
  2670  0648  087F               	movf	btemp+1,w
  2671  0649  07B4               	addwf	___lwdiv@counter,f
  2672  064A                     l1669:
  2673  064A  1FAF               	btfss	___lwdiv@divisor+1,7
  2674  064B  2E4D               	goto	u551
  2675  064C  2E4E               	goto	u550
  2676  064D                     u551:
  2677  064D  2E3F               	goto	l1665
  2678  064E                     u550:
  2679  064E                     l1671:
  2680  064E  3001               	movlw	1
  2681  064F                     u565:
  2682  064F  1003               	clrc
  2683  0650  0DB2               	rlf	___lwdiv@quotient,f
  2684  0651  0DB3               	rlf	___lwdiv@quotient+1,f
  2685  0652  3EFF               	addlw	-1
  2686  0653  1D03               	skipz
  2687  0654  2E4F               	goto	u565
  2688  0655  082F               	movf	___lwdiv@divisor+1,w
  2689  0656  0231               	subwf	___lwdiv@dividend+1,w
  2690  0657  1D03               	skipz
  2691  0658  2E5B               	goto	u575
  2692  0659  082E               	movf	___lwdiv@divisor,w
  2693  065A  0230               	subwf	___lwdiv@dividend,w
  2694  065B                     u575:
  2695  065B  1C03               	skipc
  2696  065C  2E5E               	goto	u571
  2697  065D  2E5F               	goto	u570
  2698  065E                     u571:
  2699  065E  2E66               	goto	l1677
  2700  065F                     u570:
  2701  065F                     l1673:
  2702  065F  082E               	movf	___lwdiv@divisor,w
  2703  0660  02B0               	subwf	___lwdiv@dividend,f
  2704  0661  082F               	movf	___lwdiv@divisor+1,w
  2705  0662  1C03               	skipc
  2706  0663  03B1               	decf	___lwdiv@dividend+1,f
  2707  0664  02B1               	subwf	___lwdiv@dividend+1,f
  2708  0665                     l1675:
  2709  0665  1432               	bsf	___lwdiv@quotient,0
  2710  0666                     l1677:
  2711  0666  3001               	movlw	1
  2712  0667                     u585:
  2713  0667  1003               	clrc
  2714  0668  0CAF               	rrf	___lwdiv@divisor+1,f
  2715  0669  0CAE               	rrf	___lwdiv@divisor,f
  2716  066A  3EFF               	addlw	-1
  2717  066B  1D03               	skipz
  2718  066C  2E67               	goto	u585
  2719  066D                     l1679:
  2720  066D  3001               	movlw	1
  2721  066E  02B4               	subwf	___lwdiv@counter,f
  2722  066F  1D03               	btfss	3,2
  2723  0670  2E72               	goto	u591
  2724  0671  2E73               	goto	u590
  2725  0672                     u591:
  2726  0672  2E4E               	goto	l1671
  2727  0673                     u590:
  2728  0673                     l1681:
  2729  0673  0833               	movf	___lwdiv@quotient+1,w
  2730  0674  00AF               	movwf	?___lwdiv+1
  2731  0675  0832               	movf	___lwdiv@quotient,w
  2732  0676  00AE               	movwf	?___lwdiv
  2733  0677                     l625:
  2734  0677  0008               	return
  2735  0678                     __end_of___lwdiv:
  2736                           
  2737                           	psect	text9
  2738  0745                     __ptext9:	
  2739 ;; *************** function ___bmul *****************
  2740 ;; Defined at:
  2741 ;;		line 4 in file "C:\Program Files\Microchip\xc8\v2.20\pic\sources\c90\common\Umul8.c"
  2742 ;; Parameters:    Size  Location     Type
  2743 ;;  multiplier      1    wreg     unsigned char 
  2744 ;;  multiplicand    1   14[BANK0 ] unsigned char 
  2745 ;; Auto vars:     Size  Location     Type
  2746 ;;  multiplier      1   16[BANK0 ] unsigned char 
  2747 ;;  product         1   15[BANK0 ] unsigned char 
  2748 ;; Return value:  Size  Location     Type
  2749 ;;                  1    wreg      unsigned char 
  2750 ;; Registers used:
  2751 ;;		wreg, status,2, status,0, btemp+1
  2752 ;; Tracked objects:
  2753 ;;		On entry : 0/0
  2754 ;;		On exit  : 0/0
  2755 ;;		Unchanged: 0/0
  2756 ;; Data sizes:     COMMON   BANK0   BANK1   BANK3   BANK2
  2757 ;;      Params:         0       1       0       0       0
  2758 ;;      Locals:         0       2       0       0       0
  2759 ;;      Temps:          0       0       0       0       0
  2760 ;;      Totals:         0       3       0       0       0
  2761 ;;Total ram usage:        3 bytes
  2762 ;; Hardware stack levels used:    1
  2763 ;; Hardware stack levels required when called:    3
  2764 ;; This function calls:
  2765 ;;		Nothing
  2766 ;; This function is called by:
  2767 ;;		_main
  2768 ;;		_mapeo
  2769 ;; This function uses a non-reentrant model
  2770 ;;
  2771                           
  2772                           
  2773                           ;psect for function ___bmul
  2774  0745                     ___bmul:
  2775                           
  2776                           ;incstack = 0
  2777                           ; Regs used in ___bmul: [wreg+status,2+status,0+btemp+1]
  2778                           ;___bmul@multiplier stored from wreg
  2779  0745  1283               	bcf	3,5	;RP0=0, select bank0
  2780  0746  1303               	bcf	3,6	;RP1=0, select bank0
  2781  0747  00B0               	movwf	___bmul@multiplier
  2782  0748                     l1599:
  2783  0748  01AF               	clrf	___bmul@product
  2784  0749                     l1601:
  2785  0749  1C30               	btfss	___bmul@multiplier,0
  2786  074A  2F4C               	goto	u411
  2787  074B  2F4D               	goto	u410
  2788  074C                     u411:
  2789  074C  2F51               	goto	l1605
  2790  074D                     u410:
  2791  074D                     l1603:
  2792  074D  082E               	movf	___bmul@multiplicand,w
  2793  074E  00FF               	movwf	btemp+1
  2794  074F  087F               	movf	btemp+1,w
  2795  0750  07AF               	addwf	___bmul@product,f
  2796  0751                     l1605:
  2797  0751  1003               	clrc
  2798  0752  0DAE               	rlf	___bmul@multiplicand,f
  2799  0753                     l1607:
  2800  0753  1003               	clrc
  2801  0754  0CB0               	rrf	___bmul@multiplier,f
  2802  0755                     l1609:
  2803  0755  0830               	movf	___bmul@multiplier,w
  2804  0756  1D03               	btfss	3,2
  2805  0757  2F59               	goto	u421
  2806  0758  2F5A               	goto	u420
  2807  0759                     u421:
  2808  0759  2F49               	goto	l1601
  2809  075A                     u420:
  2810  075A                     l1611:
  2811  075A  082F               	movf	___bmul@product,w
  2812  075B                     l379:
  2813  075B  0008               	return
  2814  075C                     __end_of___bmul:
  2815                           
  2816                           	psect	text10
  2817  047C                     __ptext10:	
  2818 ;; *************** function ___awdiv *****************
  2819 ;; Defined at:
  2820 ;;		line 5 in file "C:\Program Files\Microchip\xc8\v2.20\pic\sources\c90\common\awdiv.c"
  2821 ;; Parameters:    Size  Location     Type
  2822 ;;  divisor         2    0[BANK0 ] int 
  2823 ;;  dividend        2    2[BANK0 ] int 
  2824 ;; Auto vars:     Size  Location     Type
  2825 ;;  quotient        2    6[BANK0 ] int 
  2826 ;;  sign            1    5[BANK0 ] unsigned char 
  2827 ;;  counter         1    4[BANK0 ] unsigned char 
  2828 ;; Return value:  Size  Location     Type
  2829 ;;                  2    0[BANK0 ] int 
  2830 ;; Registers used:
  2831 ;;		wreg, status,2, status,0, btemp+1
  2832 ;; Tracked objects:
  2833 ;;		On entry : 0/0
  2834 ;;		On exit  : 0/0
  2835 ;;		Unchanged: 0/0
  2836 ;; Data sizes:     COMMON   BANK0   BANK1   BANK3   BANK2
  2837 ;;      Params:         0       4       0       0       0
  2838 ;;      Locals:         0       4       0       0       0
  2839 ;;      Temps:          0       0       0       0       0
  2840 ;;      Totals:         0       8       0       0       0
  2841 ;;Total ram usage:        8 bytes
  2842 ;; Hardware stack levels used:    1
  2843 ;; Hardware stack levels required when called:    3
  2844 ;; This function calls:
  2845 ;;		Nothing
  2846 ;; This function is called by:
  2847 ;;		_main
  2848 ;;		_mapeo
  2849 ;; This function uses a non-reentrant model
  2850 ;;
  2851                           
  2852                           
  2853                           ;psect for function ___awdiv
  2854  047C                     ___awdiv:
  2855  047C                     l1615:	
  2856                           ;incstack = 0
  2857                           ; Regs used in ___awdiv: [wreg+status,2+status,0+btemp+1]
  2858                           
  2859  047C  1283               	bcf	3,5	;RP0=0, select bank0
  2860  047D  1303               	bcf	3,6	;RP1=0, select bank0
  2861  047E  01A5               	clrf	___awdiv@sign
  2862  047F                     l1617:
  2863  047F  1FA1               	btfss	___awdiv@divisor+1,7
  2864  0480  2C82               	goto	u431
  2865  0481  2C83               	goto	u430
  2866  0482                     u431:
  2867  0482  2C8A               	goto	l1623
  2868  0483                     u430:
  2869  0483                     l1619:
  2870  0483  09A0               	comf	___awdiv@divisor,f
  2871  0484  09A1               	comf	___awdiv@divisor+1,f
  2872  0485  0AA0               	incf	___awdiv@divisor,f
  2873  0486  1903               	skipnz
  2874  0487  0AA1               	incf	___awdiv@divisor+1,f
  2875  0488                     l1621:
  2876  0488  01A5               	clrf	___awdiv@sign
  2877  0489  0AA5               	incf	___awdiv@sign,f
  2878  048A                     l1623:
  2879  048A  1FA3               	btfss	___awdiv@dividend+1,7
  2880  048B  2C8D               	goto	u441
  2881  048C  2C8E               	goto	u440
  2882  048D                     u441:
  2883  048D  2C97               	goto	l1629
  2884  048E                     u440:
  2885  048E                     l1625:
  2886  048E  09A2               	comf	___awdiv@dividend,f
  2887  048F  09A3               	comf	___awdiv@dividend+1,f
  2888  0490  0AA2               	incf	___awdiv@dividend,f
  2889  0491  1903               	skipnz
  2890  0492  0AA3               	incf	___awdiv@dividend+1,f
  2891  0493                     l1627:
  2892  0493  3001               	movlw	1
  2893  0494  00FF               	movwf	btemp+1
  2894  0495  087F               	movf	btemp+1,w
  2895  0496  06A5               	xorwf	___awdiv@sign,f
  2896  0497                     l1629:
  2897  0497  01A6               	clrf	___awdiv@quotient
  2898  0498  01A7               	clrf	___awdiv@quotient+1
  2899  0499                     l1631:
  2900  0499  0820               	movf	___awdiv@divisor,w
  2901  049A  0421               	iorwf	___awdiv@divisor+1,w
  2902  049B  1903               	btfsc	3,2
  2903  049C  2C9E               	goto	u451
  2904  049D  2C9F               	goto	u450
  2905  049E                     u451:
  2906  049E  2CD6               	goto	l1651
  2907  049F                     u450:
  2908  049F                     l1633:
  2909  049F  01A4               	clrf	___awdiv@counter
  2910  04A0  0AA4               	incf	___awdiv@counter,f
  2911  04A1  2CAD               	goto	l1639
  2912  04A2                     l1635:
  2913  04A2  3001               	movlw	1
  2914  04A3                     u465:
  2915  04A3  1003               	clrc
  2916  04A4  0DA0               	rlf	___awdiv@divisor,f
  2917  04A5  0DA1               	rlf	___awdiv@divisor+1,f
  2918  04A6  3EFF               	addlw	-1
  2919  04A7  1D03               	skipz
  2920  04A8  2CA3               	goto	u465
  2921  04A9                     l1637:
  2922  04A9  3001               	movlw	1
  2923  04AA  00FF               	movwf	btemp+1
  2924  04AB  087F               	movf	btemp+1,w
  2925  04AC  07A4               	addwf	___awdiv@counter,f
  2926  04AD                     l1639:
  2927  04AD  1FA1               	btfss	___awdiv@divisor+1,7
  2928  04AE  2CB0               	goto	u471
  2929  04AF  2CB1               	goto	u470
  2930  04B0                     u471:
  2931  04B0  2CA2               	goto	l1635
  2932  04B1                     u470:
  2933  04B1                     l1641:
  2934  04B1  3001               	movlw	1
  2935  04B2                     u485:
  2936  04B2  1003               	clrc
  2937  04B3  0DA6               	rlf	___awdiv@quotient,f
  2938  04B4  0DA7               	rlf	___awdiv@quotient+1,f
  2939  04B5  3EFF               	addlw	-1
  2940  04B6  1D03               	skipz
  2941  04B7  2CB2               	goto	u485
  2942  04B8  0821               	movf	___awdiv@divisor+1,w
  2943  04B9  0223               	subwf	___awdiv@dividend+1,w
  2944  04BA  1D03               	skipz
  2945  04BB  2CBE               	goto	u495
  2946  04BC  0820               	movf	___awdiv@divisor,w
  2947  04BD  0222               	subwf	___awdiv@dividend,w
  2948  04BE                     u495:
  2949  04BE  1C03               	skipc
  2950  04BF  2CC1               	goto	u491
  2951  04C0  2CC2               	goto	u490
  2952  04C1                     u491:
  2953  04C1  2CC9               	goto	l1647
  2954  04C2                     u490:
  2955  04C2                     l1643:
  2956  04C2  0820               	movf	___awdiv@divisor,w
  2957  04C3  02A2               	subwf	___awdiv@dividend,f
  2958  04C4  0821               	movf	___awdiv@divisor+1,w
  2959  04C5  1C03               	skipc
  2960  04C6  03A3               	decf	___awdiv@dividend+1,f
  2961  04C7  02A3               	subwf	___awdiv@dividend+1,f
  2962  04C8                     l1645:
  2963  04C8  1426               	bsf	___awdiv@quotient,0
  2964  04C9                     l1647:
  2965  04C9  3001               	movlw	1
  2966  04CA                     u505:
  2967  04CA  1003               	clrc
  2968  04CB  0CA1               	rrf	___awdiv@divisor+1,f
  2969  04CC  0CA0               	rrf	___awdiv@divisor,f
  2970  04CD  3EFF               	addlw	-1
  2971  04CE  1D03               	skipz
  2972  04CF  2CCA               	goto	u505
  2973  04D0                     l1649:
  2974  04D0  3001               	movlw	1
  2975  04D1  02A4               	subwf	___awdiv@counter,f
  2976  04D2  1D03               	btfss	3,2
  2977  04D3  2CD5               	goto	u511
  2978  04D4  2CD6               	goto	u510
  2979  04D5                     u511:
  2980  04D5  2CB1               	goto	l1641
  2981  04D6                     u510:
  2982  04D6                     l1651:
  2983  04D6  0825               	movf	___awdiv@sign,w
  2984  04D7  1903               	btfsc	3,2
  2985  04D8  2CDA               	goto	u521
  2986  04D9  2CDB               	goto	u520
  2987  04DA                     u521:
  2988  04DA  2CE0               	goto	l1655
  2989  04DB                     u520:
  2990  04DB                     l1653:
  2991  04DB  09A6               	comf	___awdiv@quotient,f
  2992  04DC  09A7               	comf	___awdiv@quotient+1,f
  2993  04DD  0AA6               	incf	___awdiv@quotient,f
  2994  04DE  1903               	skipnz
  2995  04DF  0AA7               	incf	___awdiv@quotient+1,f
  2996  04E0                     l1655:
  2997  04E0  0827               	movf	___awdiv@quotient+1,w
  2998  04E1  00A1               	movwf	?___awdiv+1
  2999  04E2  0826               	movf	___awdiv@quotient,w
  3000  04E3  00A0               	movwf	?___awdiv
  3001  04E4                     l506:
  3002  04E4  0008               	return
  3003  04E5                     __end_of___awdiv:
  3004                           
  3005                           	psect	text11
  3006  05E5                     __ptext11:	
  3007 ;; *************** function _envio_esclavos *****************
  3008 ;; Defined at:
  3009 ;;		line 163 in file "C:/MPlab_Digital2/Digital_2/Proyecto3Digital2.X/main.c"
  3010 ;; Parameters:    Size  Location     Type
  3011 ;;		None
  3012 ;; Auto vars:     Size  Location     Type
  3013 ;;		None
  3014 ;; Return value:  Size  Location     Type
  3015 ;;                  1    wreg      void 
  3016 ;; Registers used:
  3017 ;;		wreg, fsr0l, fsr0h, status,2, status,0, btemp+1, pclath, cstack
  3018 ;; Tracked objects:
  3019 ;;		On entry : 0/0
  3020 ;;		On exit  : 0/0
  3021 ;;		Unchanged: 0/0
  3022 ;; Data sizes:     COMMON   BANK0   BANK1   BANK3   BANK2
  3023 ;;      Params:         0       0       0       0       0
  3024 ;;      Locals:         0       0       0       0       0
  3025 ;;      Temps:          0       2       0       0       0
  3026 ;;      Totals:         0       2       0       0       0
  3027 ;;Total ram usage:        2 bytes
  3028 ;; Hardware stack levels used:    1
  3029 ;; Hardware stack levels required when called:    5
  3030 ;; This function calls:
  3031 ;;		_spiRead
  3032 ;; This function is called by:
  3033 ;;		_main
  3034 ;; This function uses a non-reentrant model
  3035 ;;
  3036                           
  3037                           
  3038                           ;psect for function _envio_esclavos
  3039  05E5                     _envio_esclavos:
  3040  05E5                     l1817:	
  3041                           ;incstack = 0
  3042                           ; Regs used in _envio_esclavos: [wreg-fsr0h+status,2+status,0+btemp+1+pclath+cstack]
  3043                           
  3044                           
  3045                           ;C:/MPlab_Digital2/Digital_2/Proyecto3Digital2.X/main.c: 164:            break;
  3046  05E5  3033               	movlw	51
  3047  05E6  027D               	subwf	_controles,w
  3048  05E7  1C03               	skipc
  3049  05E8  2DEA               	goto	u671
  3050  05E9  2DEB               	goto	u670
  3051  05EA                     u671:
  3052  05EA  2E31               	goto	l181
  3053  05EB                     u670:
  3054  05EB                     l1819:
  3055                           
  3056                           ;C:/MPlab_Digital2/Digital_2/Proyecto3Digital2.X/main.c: 165:         case 2:
  3057  05EB  01FD               	clrf	_controles
  3058  05EC                     l1821:
  3059                           
  3060                           ;C:/MPlab_Digital2/Digital_2/Proyecto3Digital2.X/main.c: 166:            TXREG = 44;
  3061  05EC  1283               	bcf	3,5	;RP0=0, select bank0
  3062  05ED  1303               	bcf	3,6	;RP1=0, select bank0
  3063  05EE  1507               	bsf	7,2	;volatile
  3064  05EF                     l1823:
  3065                           
  3066                           ;C:/MPlab_Digital2/Digital_2/Proyecto3Digital2.X/main.c: 167:            var_envio++;
  3067  05EF  1487               	bsf	7,1	;volatile
  3068  05F0                     l1825:
  3069                           
  3070                           ;C:/MPlab_Digital2/Digital_2/Proyecto3Digital2.X/main.c: 168:            break;
  3071  05F0  1407               	bsf	7,0	;volatile
  3072                           
  3073                           ;C:/MPlab_Digital2/Digital_2/Proyecto3Digital2.X/main.c: 169:         case 3:
  3074  05F1  2E1E               	goto	l1847
  3075  05F2                     l177:	
  3076                           ;C:/MPlab_Digital2/Digital_2/Proyecto3Digital2.X/main.c: 170:            tabla_hex(((esc
      +                          lavo2 & 0b11110000)>>4),&TXREG);
  3077                           
  3078                           
  3079                           ;C:/MPlab_Digital2/Digital_2/Proyecto3Digital2.X/main.c: 171:            var_envio++;
  3080  05F2  1007               	bcf	7,0	;volatile
  3081  05F3                     l1827:
  3082                           
  3083                           ;C:/MPlab_Digital2/Digital_2/Proyecto3Digital2.X/main.c: 172:            break;
  3084  05F3  0193               	clrf	19	;volatile
  3085  05F4                     l1829:
  3086                           
  3087                           ;C:/MPlab_Digital2/Digital_2/Proyecto3Digital2.X/main.c: 173:         case 4:
  3088  05F4  120A  118A  27A2  120A  118A  	fcall	_spiRead
  3089  05F9  00FF               	movwf	btemp+1
  3090  05FA  087F               	movf	btemp+1,w
  3091  05FB  00FC               	movwf	_esclavo1
  3092  05FC                     l1831:
  3093                           
  3094                           ;C:/MPlab_Digital2/Digital_2/Proyecto3Digital2.X/main.c: 174:            tabla_hex((escl
      +                          avo2 & 0b00001111),&TXREG);
  3095  05FC  3001               	movlw	1
  3096  05FD  00FF               	movwf	btemp+1
  3097  05FE  087F               	movf	btemp+1,w
  3098  05FF  1283               	bcf	3,5	;RP0=0, select bank0
  3099  0600  1303               	bcf	3,6	;RP1=0, select bank0
  3100  0601  07C7               	addwf	_slave,f
  3101                           
  3102                           ;C:/MPlab_Digital2/Digital_2/Proyecto3Digital2.X/main.c: 175:            var_envio++;
  3103  0602  2E31               	goto	l181
  3104  0603                     l179:	
  3105                           ;C:/MPlab_Digital2/Digital_2/Proyecto3Digital2.X/main.c: 176:            break;
  3106                           
  3107                           
  3108                           ;C:/MPlab_Digital2/Digital_2/Proyecto3Digital2.X/main.c: 177:         case 5:
  3109  0603  1087               	bcf	7,1	;volatile
  3110  0604                     l1833:
  3111                           
  3112                           ;C:/MPlab_Digital2/Digital_2/Proyecto3Digital2.X/main.c: 178:            TXREG = 44;
  3113  0604  0193               	clrf	19	;volatile
  3114  0605                     l1835:
  3115                           
  3116                           ;C:/MPlab_Digital2/Digital_2/Proyecto3Digital2.X/main.c: 179:            var_envio++;
  3117  0605  120A  118A  27A2  120A  118A  	fcall	_spiRead
  3118  060A  00FF               	movwf	btemp+1
  3119  060B  087F               	movf	btemp+1,w
  3120  060C  1283               	bcf	3,5	;RP0=0, select bank0
  3121  060D  1303               	bcf	3,6	;RP1=0, select bank0
  3122  060E  00C8               	movwf	_esclavo2
  3123  060F  2DFC               	goto	l1831
  3124  0610                     l180:	
  3125                           ;C:/MPlab_Digital2/Digital_2/Proyecto3Digital2.X/main.c: 182:            tabla_hex(((esc
      +                          lavo3 & 0b11110000)>>4),&TXREG);
  3126                           
  3127                           
  3128                           ;C:/MPlab_Digital2/Digital_2/Proyecto3Digital2.X/main.c: 183:            var_envio++;
  3129  0610  1107               	bcf	7,2	;volatile
  3130  0611                     l1839:
  3131                           
  3132                           ;C:/MPlab_Digital2/Digital_2/Proyecto3Digital2.X/main.c: 184:            break;
  3133  0611  0193               	clrf	19	;volatile
  3134  0612                     l1841:
  3135                           
  3136                           ;C:/MPlab_Digital2/Digital_2/Proyecto3Digital2.X/main.c: 185:         case 7:
  3137  0612  120A  118A  27A2  120A  118A  	fcall	_spiRead
  3138  0617  00FF               	movwf	btemp+1
  3139  0618  087F               	movf	btemp+1,w
  3140  0619  00FB               	movwf	_esclavo3
  3141  061A                     l1843:
  3142                           
  3143                           ;C:/MPlab_Digital2/Digital_2/Proyecto3Digital2.X/main.c: 186:            tabla_hex((escl
      +                          avo3 & 0b00001111),&TXREG);
  3144  061A  1283               	bcf	3,5	;RP0=0, select bank0
  3145  061B  1303               	bcf	3,6	;RP1=0, select bank0
  3146  061C  01C7               	clrf	_slave
  3147                           
  3148                           ;C:/MPlab_Digital2/Digital_2/Proyecto3Digital2.X/main.c: 187:            var_envio++;
  3149  061D  2E31               	goto	l181
  3150  061E                     l1847:
  3151  061E  0847               	movf	_slave,w
  3152  061F  00A0               	movwf	??_envio_esclavos
  3153  0620  01A1               	clrf	??_envio_esclavos+1
  3154                           
  3155                           ; Switch on 2 bytes has been partitioned into a top level switch of size 1, and 1 sub-sw
      +                          itches
  3156                           ; Switch size 1, requested type "simple"
  3157                           ; Number of cases is 1, Range of values is 0 to 0
  3158                           ; switch strategies available:
  3159                           ; Name         Instructions Cycles
  3160                           ; simple_byte            4     3 (average)
  3161                           ; direct_byte           11     8 (fixed)
  3162                           ; jumptable            260     6 (fixed)
  3163                           ;	Chosen strategy is simple_byte
  3164  0621  0821               	movf	??_envio_esclavos+1,w
  3165  0622  3A00               	xorlw	0	; case 0
  3166  0623  1903               	skipnz
  3167  0624  2E26               	goto	l2053
  3168  0625  2E31               	goto	l181
  3169  0626                     l2053:
  3170                           
  3171                           ; Switch size 1, requested type "simple"
  3172                           ; Number of cases is 3, Range of values is 0 to 2
  3173                           ; switch strategies available:
  3174                           ; Name         Instructions Cycles
  3175                           ; simple_byte           10     6 (average)
  3176                           ; direct_byte           17     8 (fixed)
  3177                           ; jumptable            260     6 (fixed)
  3178                           ;	Chosen strategy is simple_byte
  3179  0626  0820               	movf	??_envio_esclavos,w
  3180  0627  3A00               	xorlw	0	; case 0
  3181  0628  1903               	skipnz
  3182  0629  2DF2               	goto	l177
  3183  062A  3A01               	xorlw	1	; case 1
  3184  062B  1903               	skipnz
  3185  062C  2E03               	goto	l179
  3186  062D  3A03               	xorlw	3	; case 2
  3187  062E  1903               	skipnz
  3188  062F  2E10               	goto	l180
  3189  0630  2E31               	goto	l181
  3190  0631                     l181:
  3191  0631  0008               	return
  3192  0632                     __end_of_envio_esclavos:
  3193                           
  3194                           	psect	text12
  3195  07A2                     __ptext12:	
  3196 ;; *************** function _spiRead *****************
  3197 ;; Defined at:
  3198 ;;		line 49 in file "C:/MPlab_Digital2/Digital_2/Proyecto3Digital2.X/SPI.c"
  3199 ;; Parameters:    Size  Location     Type
  3200 ;;		None
  3201 ;; Auto vars:     Size  Location     Type
  3202 ;;		None
  3203 ;; Return value:  Size  Location     Type
  3204 ;;                  1    wreg      unsigned char 
  3205 ;; Registers used:
  3206 ;;		wreg, status,2, status,0, pclath, cstack
  3207 ;; Tracked objects:
  3208 ;;		On entry : 0/0
  3209 ;;		On exit  : 0/0
  3210 ;;		Unchanged: 0/0
  3211 ;; Data sizes:     COMMON   BANK0   BANK1   BANK3   BANK2
  3212 ;;      Params:         0       0       0       0       0
  3213 ;;      Locals:         0       0       0       0       0
  3214 ;;      Temps:          0       0       0       0       0
  3215 ;;      Totals:         0       0       0       0       0
  3216 ;;Total ram usage:        0 bytes
  3217 ;; Hardware stack levels used:    1
  3218 ;; Hardware stack levels required when called:    4
  3219 ;; This function calls:
  3220 ;;		_spiReceiveWait
  3221 ;; This function is called by:
  3222 ;;		_envio_esclavos
  3223 ;; This function uses a non-reentrant model
  3224 ;;
  3225                           
  3226                           
  3227                           ;psect for function _spiRead
  3228  07A2                     _spiRead:
  3229  07A2                     l1535:	
  3230                           ;incstack = 0
  3231                           ; Regs used in _spiRead: [wreg+status,2+status,0+pclath+cstack]
  3232                           
  3233                           
  3234                           ;C:/MPlab_Digital2/Digital_2/Proyecto3Digital2.X/SPI.c: 51:     spiReceiveWait();
  3235  07A2  120A  118A  27AB  120A  118A  	fcall	_spiReceiveWait
  3236  07A7                     l1537:
  3237                           
  3238                           ;C:/MPlab_Digital2/Digital_2/Proyecto3Digital2.X/SPI.c: 52:     return(SSPBUF);
  3239  07A7  1283               	bcf	3,5	;RP0=0, select bank0
  3240  07A8  1303               	bcf	3,6	;RP1=0, select bank0
  3241  07A9  0813               	movf	19,w	;volatile
  3242  07AA                     l267:
  3243  07AA  0008               	return
  3244  07AB                     __end_of_spiRead:
  3245                           
  3246                           	psect	text13
  3247  07AB                     __ptext13:	
  3248 ;; *************** function _spiReceiveWait *****************
  3249 ;; Defined at:
  3250 ;;		line 29 in file "C:/MPlab_Digital2/Digital_2/Proyecto3Digital2.X/SPI.c"
  3251 ;; Parameters:    Size  Location     Type
  3252 ;;		None
  3253 ;; Auto vars:     Size  Location     Type
  3254 ;;		None
  3255 ;; Return value:  Size  Location     Type
  3256 ;;                  1    wreg      void 
  3257 ;; Registers used:
  3258 ;;		None
  3259 ;; Tracked objects:
  3260 ;;		On entry : 0/0
  3261 ;;		On exit  : 0/0
  3262 ;;		Unchanged: 0/0
  3263 ;; Data sizes:     COMMON   BANK0   BANK1   BANK3   BANK2
  3264 ;;      Params:         0       0       0       0       0
  3265 ;;      Locals:         0       0       0       0       0
  3266 ;;      Temps:          0       0       0       0       0
  3267 ;;      Totals:         0       0       0       0       0
  3268 ;;Total ram usage:        0 bytes
  3269 ;; Hardware stack levels used:    1
  3270 ;; Hardware stack levels required when called:    3
  3271 ;; This function calls:
  3272 ;;		Nothing
  3273 ;; This function is called by:
  3274 ;;		_spiRead
  3275 ;; This function uses a non-reentrant model
  3276 ;;
  3277                           
  3278                           
  3279                           ;psect for function _spiReceiveWait
  3280  07AB                     _spiReceiveWait:
  3281  07AB                     l1465:	
  3282                           ;incstack = 0
  3283                           ; Regs used in _spiReceiveWait: []
  3284                           
  3285  07AB                     l253:	
  3286                           ;C:/MPlab_Digital2/Digital_2/Proyecto3Digital2.X/SPI.c: 31:     while ( !SSPSTATbits.BF 
      +                          );
  3287                           
  3288  07AB  1683               	bsf	3,5	;RP0=1, select bank1
  3289  07AC  1303               	bcf	3,6	;RP1=0, select bank1
  3290  07AD  1C14               	btfss	20,0	;volatile
  3291  07AE  2FB0               	goto	u351
  3292  07AF  2FB1               	goto	u350
  3293  07B0                     u351:
  3294  07B0  2FAB               	goto	l253
  3295  07B1                     u350:
  3296  07B1                     l256:
  3297  07B1  0008               	return
  3298  07B2                     __end_of_spiReceiveWait:
  3299                           
  3300                           	psect	text14
  3301  0798                     __ptext14:	
  3302 ;; *************** function _TX_GO *****************
  3303 ;; Defined at:
  3304 ;;		line 158 in file "C:/MPlab_Digital2/Digital_2/Proyecto3Digital2.X/main.c"
  3305 ;; Parameters:    Size  Location     Type
  3306 ;;		None
  3307 ;; Auto vars:     Size  Location     Type
  3308 ;;		None
  3309 ;; Return value:  Size  Location     Type
  3310 ;;                  1    wreg      void 
  3311 ;; Registers used:
  3312 ;;		wreg, status,2, status,0
  3313 ;; Tracked objects:
  3314 ;;		On entry : 0/0
  3315 ;;		On exit  : 0/0
  3316 ;;		Unchanged: 0/0
  3317 ;; Data sizes:     COMMON   BANK0   BANK1   BANK3   BANK2
  3318 ;;      Params:         0       0       0       0       0
  3319 ;;      Locals:         0       0       0       0       0
  3320 ;;      Temps:          0       0       0       0       0
  3321 ;;      Totals:         0       0       0       0       0
  3322 ;;Total ram usage:        0 bytes
  3323 ;; Hardware stack levels used:    1
  3324 ;; Hardware stack levels required when called:    3
  3325 ;; This function calls:
  3326 ;;		Nothing
  3327 ;; This function is called by:
  3328 ;;		_main
  3329 ;; This function uses a non-reentrant model
  3330 ;;
  3331                           
  3332                           
  3333                           ;psect for function _TX_GO
  3334  0798                     _TX_GO:
  3335  0798                     l1813:	
  3336                           ;incstack = 0
  3337                           ; Regs used in _TX_GO: [wreg+status,2+status,0]
  3338                           
  3339                           
  3340                           ;C:/MPlab_Digital2/Digital_2/Proyecto3Digital2.X/main.c: 159:            var_envio++;
  3341  0798  300A               	movlw	10
  3342  0799  067D               	xorwf	_controles,w
  3343  079A  1D03               	btfss	3,2
  3344  079B  2F9D               	goto	u661
  3345  079C  2F9E               	goto	u660
  3346  079D                     u661:
  3347  079D  2FA1               	goto	l172
  3348  079E                     u660:
  3349  079E                     l1815:
  3350                           
  3351                           ;C:/MPlab_Digital2/Digital_2/Proyecto3Digital2.X/main.c: 160:            break;
  3352  079E  1683               	bsf	3,5	;RP0=1, select bank1
  3353  079F  1303               	bcf	3,6	;RP1=0, select bank1
  3354  07A0  160C               	bsf	12,4	;volatile
  3355  07A1                     l172:
  3356  07A1  0008               	return
  3357  07A2                     __end_of_TX_GO:
  3358                           
  3359                           	psect	text15
  3360  0678                     __ptext15:	
  3361 ;; *************** function _Lcd_Write_String *****************
  3362 ;; Defined at:
  3363 ;;		line 64 in file "C:/MPlab_Digital2/Digital_2/Proyecto3Digital2.X/Display8bits.c"
  3364 ;; Parameters:    Size  Location     Type
  3365 ;;  a               1    wreg     PTR unsigned char 
  3366 ;;		 -> STR_1(15), 
  3367 ;; Auto vars:     Size  Location     Type
  3368 ;;  a               1    4[BANK0 ] PTR unsigned char 
  3369 ;;		 -> STR_1(15), 
  3370 ;;  i               2    2[BANK0 ] int 
  3371 ;; Return value:  Size  Location     Type
  3372 ;;                  1    wreg      void 
  3373 ;; Registers used:
  3374 ;;		wreg, fsr0l, fsr0h, status,2, status,0, pclath, cstack
  3375 ;; Tracked objects:
  3376 ;;		On entry : 0/0
  3377 ;;		On exit  : 0/0
  3378 ;;		Unchanged: 0/0
  3379 ;; Data sizes:     COMMON   BANK0   BANK1   BANK3   BANK2
  3380 ;;      Params:         0       0       0       0       0
  3381 ;;      Locals:         0       3       0       0       0
  3382 ;;      Temps:          0       0       0       0       0
  3383 ;;      Totals:         0       3       0       0       0
  3384 ;;Total ram usage:        3 bytes
  3385 ;; Hardware stack levels used:    1
  3386 ;; Hardware stack levels required when called:    5
  3387 ;; This function calls:
  3388 ;;		_Lcd_Write_Char
  3389 ;; This function is called by:
  3390 ;;		_main
  3391 ;; This function uses a non-reentrant model
  3392 ;;
  3393                           
  3394                           
  3395                           ;psect for function _Lcd_Write_String
  3396  0678                     _Lcd_Write_String:
  3397                           
  3398                           ;incstack = 0
  3399                           ; Regs used in _Lcd_Write_String: [wreg-fsr0h+status,2+status,0+pclath+cstack]
  3400                           ;Lcd_Write_String@a stored from wreg
  3401  0678  1283               	bcf	3,5	;RP0=0, select bank0
  3402  0679  1303               	bcf	3,6	;RP1=0, select bank0
  3403  067A  00A4               	movwf	Lcd_Write_String@a
  3404  067B                     l1699:
  3405                           
  3406                           ;C:/MPlab_Digital2/Digital_2/Proyecto3Digital2.X/Display8bits.c: 65:  int i;;C:/MPlab_Di
      +                          gital2/Digital_2/Proyecto3Digital2.X/Display8bits.c: 66:  for(i=0;a[i]!='\0';i++)
  3407  067B  01A2               	clrf	Lcd_Write_String@i
  3408  067C  01A3               	clrf	Lcd_Write_String@i+1
  3409  067D  2E93               	goto	l1705
  3410  067E                     l1701:
  3411                           
  3412                           ;C:/MPlab_Digital2/Digital_2/Proyecto3Digital2.X/Display8bits.c: 67:     Lcd_Write_Char(
      +                          a[i]);
  3413  067E  0822               	movf	Lcd_Write_String@i,w
  3414  067F  0724               	addwf	Lcd_Write_String@a,w
  3415  0680  0084               	movwf	4
  3416  0681  120A  118A  275C  120A  118A  	fcall	stringdir
  3417  0686  120A  118A  2785  120A  118A  	fcall	_Lcd_Write_Char
  3418  068B                     l1703:
  3419  068B  3001               	movlw	1
  3420  068C  1283               	bcf	3,5	;RP0=0, select bank0
  3421  068D  1303               	bcf	3,6	;RP1=0, select bank0
  3422  068E  07A2               	addwf	Lcd_Write_String@i,f
  3423  068F  1803               	skipnc
  3424  0690  0AA3               	incf	Lcd_Write_String@i+1,f
  3425  0691  3000               	movlw	0
  3426  0692  07A3               	addwf	Lcd_Write_String@i+1,f
  3427  0693                     l1705:
  3428  0693  0822               	movf	Lcd_Write_String@i,w
  3429  0694  0724               	addwf	Lcd_Write_String@a,w
  3430  0695  0084               	movwf	4
  3431  0696  120A  118A  275C  120A  118A  	fcall	stringdir
  3432  069B  3A00               	xorlw	0
  3433  069C  1D03               	skipz
  3434  069D  2E9F               	goto	u621
  3435  069E  2EA0               	goto	u620
  3436  069F                     u621:
  3437  069F  2E7E               	goto	l1701
  3438  06A0                     u620:
  3439  06A0                     l35:
  3440  06A0  0008               	return
  3441  06A1                     __end_of_Lcd_Write_String:
  3442                           
  3443                           	psect	text16
  3444  0785                     __ptext16:	
  3445 ;; *************** function _Lcd_Write_Char *****************
  3446 ;; Defined at:
  3447 ;;		line 57 in file "C:/MPlab_Digital2/Digital_2/Proyecto3Digital2.X/Display8bits.c"
  3448 ;; Parameters:    Size  Location     Type
  3449 ;;  a               1    wreg     unsigned char 
  3450 ;; Auto vars:     Size  Location     Type
  3451 ;;  a               1    1[BANK0 ] unsigned char 
  3452 ;; Return value:  Size  Location     Type
  3453 ;;                  1    wreg      void 
  3454 ;; Registers used:
  3455 ;;		wreg, status,2, status,0, pclath, cstack
  3456 ;; Tracked objects:
  3457 ;;		On entry : 0/0
  3458 ;;		On exit  : 0/0
  3459 ;;		Unchanged: 0/0
  3460 ;; Data sizes:     COMMON   BANK0   BANK1   BANK3   BANK2
  3461 ;;      Params:         0       0       0       0       0
  3462 ;;      Locals:         0       1       0       0       0
  3463 ;;      Temps:          0       0       0       0       0
  3464 ;;      Totals:         0       1       0       0       0
  3465 ;;Total ram usage:        1 bytes
  3466 ;; Hardware stack levels used:    1
  3467 ;; Hardware stack levels required when called:    4
  3468 ;; This function calls:
  3469 ;;		_Lcd_Port
  3470 ;; This function is called by:
  3471 ;;		_Lcd_Write_String
  3472 ;;		_main
  3473 ;; This function uses a non-reentrant model
  3474 ;;
  3475                           
  3476                           
  3477                           ;psect for function _Lcd_Write_Char
  3478  0785                     _Lcd_Write_Char:
  3479                           
  3480                           ;incstack = 0
  3481                           ; Regs used in _Lcd_Write_Char: [wreg+status,2+status,0+pclath+cstack]
  3482                           ;Lcd_Write_Char@a stored from wreg
  3483  0785  1283               	bcf	3,5	;RP0=0, select bank0
  3484  0786  1303               	bcf	3,6	;RP1=0, select bank0
  3485  0787  00A1               	movwf	Lcd_Write_Char@a
  3486  0788                     l1489:
  3487                           
  3488                           ;C:/MPlab_Digital2/Digital_2/Proyecto3Digital2.X/Display8bits.c: 58:    RE0 = 1;
  3489  0788  1409               	bsf	9,0	;volatile
  3490  0789                     l1491:
  3491                           
  3492                           ;C:/MPlab_Digital2/Digital_2/Proyecto3Digital2.X/Display8bits.c: 59:    Lcd_Port(a);
  3493  0789  0821               	movf	Lcd_Write_Char@a,w
  3494  078A  120A  118A  27B9  120A  118A  	fcall	_Lcd_Port
  3495  078F                     l1493:
  3496                           
  3497                           ;C:/MPlab_Digital2/Digital_2/Proyecto3Digital2.X/Display8bits.c: 60:    RE2 = 1;
  3498  078F  1283               	bcf	3,5	;RP0=0, select bank0
  3499  0790  1303               	bcf	3,6	;RP1=0, select bank0
  3500  0791  1509               	bsf	9,2	;volatile
  3501  0792                     l1495:
  3502                           
  3503                           ;C:/MPlab_Digital2/Digital_2/Proyecto3Digital2.X/Display8bits.c: 61:    _delay((unsigned
      +                           long)((40)*(400000/4000000.0)));
  3504  0792  2F93               	nop2	;2 cycle nop
  3505  0793  2F94               	nop2	;2 cycle nop
  3506  0794                     l1497:
  3507                           
  3508                           ;C:/MPlab_Digital2/Digital_2/Proyecto3Digital2.X/Display8bits.c: 62:    RE2 = 0;;
  3509  0794  1283               	bcf	3,5	;RP0=0, select bank0
  3510  0795  1303               	bcf	3,6	;RP1=0, select bank0
  3511  0796  1109               	bcf	9,2	;volatile
  3512  0797                     l29:
  3513  0797  0008               	return
  3514  0798                     __end_of_Lcd_Write_Char:
  3515                           
  3516                           	psect	text17
  3517  06C8                     __ptext17:	
  3518 ;; *************** function _Lcd_Set_Cursor *****************
  3519 ;; Defined at:
  3520 ;;		line 27 in file "C:/MPlab_Digital2/Digital_2/Proyecto3Digital2.X/Display8bits.c"
  3521 ;; Parameters:    Size  Location     Type
  3522 ;;  a               1    wreg     unsigned char 
  3523 ;;  b               1    3[BANK0 ] unsigned char 
  3524 ;; Auto vars:     Size  Location     Type
  3525 ;;  a               1    4[BANK0 ] unsigned char 
  3526 ;;  temp            1    5[BANK0 ] unsigned char 
  3527 ;; Return value:  Size  Location     Type
  3528 ;;                  1    wreg      void 
  3529 ;; Registers used:
  3530 ;;		wreg, status,2, status,0, btemp+1, pclath, cstack
  3531 ;; Tracked objects:
  3532 ;;		On entry : 0/0
  3533 ;;		On exit  : 0/0
  3534 ;;		Unchanged: 0/0
  3535 ;; Data sizes:     COMMON   BANK0   BANK1   BANK3   BANK2
  3536 ;;      Params:         0       1       0       0       0
  3537 ;;      Locals:         0       2       0       0       0
  3538 ;;      Temps:          0       0       0       0       0
  3539 ;;      Totals:         0       3       0       0       0
  3540 ;;Total ram usage:        3 bytes
  3541 ;; Hardware stack levels used:    1
  3542 ;; Hardware stack levels required when called:    5
  3543 ;; This function calls:
  3544 ;;		_Lcd_Cmd
  3545 ;; This function is called by:
  3546 ;;		_main
  3547 ;; This function uses a non-reentrant model
  3548 ;;
  3549                           
  3550                           
  3551                           ;psect for function _Lcd_Set_Cursor
  3552  06C8                     _Lcd_Set_Cursor:
  3553                           
  3554                           ;incstack = 0
  3555                           ; Regs used in _Lcd_Set_Cursor: [wreg+status,2+status,0+btemp+1+pclath+cstack]
  3556                           ;Lcd_Set_Cursor@a stored from wreg
  3557  06C8  1283               	bcf	3,5	;RP0=0, select bank0
  3558  06C9  1303               	bcf	3,6	;RP1=0, select bank0
  3559  06CA  00A4               	movwf	Lcd_Set_Cursor@a
  3560  06CB                     l1687:
  3561                           
  3562                           ;C:/MPlab_Digital2/Digital_2/Proyecto3Digital2.X/Display8bits.c: 28:  char temp;;C:/MPla
      +                          b_Digital2/Digital_2/Proyecto3Digital2.X/Display8bits.c: 29:  if(a == 1)
  3563  06CB  0324               	decf	Lcd_Set_Cursor@a,w
  3564  06CC  1D03               	btfss	3,2
  3565  06CD  2ECF               	goto	u601
  3566  06CE  2ED0               	goto	u600
  3567  06CF                     u601:
  3568  06CF  2EDC               	goto	l1693
  3569  06D0                     u600:
  3570  06D0                     l1689:
  3571                           
  3572                           ;C:/MPlab_Digital2/Digital_2/Proyecto3Digital2.X/Display8bits.c: 30:  {;C:/MPlab_Digital
      +                          2/Digital_2/Proyecto3Digital2.X/Display8bits.c: 31:    temp = 0x80 + b - 1;
  3573  06D0  0823               	movf	Lcd_Set_Cursor@b,w
  3574  06D1  3E7F               	addlw	127
  3575  06D2  00FF               	movwf	btemp+1
  3576  06D3  087F               	movf	btemp+1,w
  3577  06D4  00A5               	movwf	Lcd_Set_Cursor@temp
  3578  06D5                     l1691:
  3579                           
  3580                           ;C:/MPlab_Digital2/Digital_2/Proyecto3Digital2.X/Display8bits.c: 32:       Lcd_Cmd(temp)
      +                          ;
  3581  06D5  0825               	movf	Lcd_Set_Cursor@temp,w
  3582  06D6  120A  118A  272C  120A  118A  	fcall	_Lcd_Cmd
  3583                           
  3584                           ;C:/MPlab_Digital2/Digital_2/Proyecto3Digital2.X/Display8bits.c: 33:  }
  3585  06DB  2EED               	goto	l23
  3586  06DC                     l1693:
  3587  06DC  3002               	movlw	2
  3588  06DD  0624               	xorwf	Lcd_Set_Cursor@a,w
  3589  06DE  1D03               	btfss	3,2
  3590  06DF  2EE1               	goto	u611
  3591  06E0  2EE2               	goto	u610
  3592  06E1                     u611:
  3593  06E1  2EED               	goto	l23
  3594  06E2                     u610:
  3595  06E2                     l1695:
  3596                           
  3597                           ;C:/MPlab_Digital2/Digital_2/Proyecto3Digital2.X/Display8bits.c: 35:  {;C:/MPlab_Digital
      +                          2/Digital_2/Proyecto3Digital2.X/Display8bits.c: 36:   temp = 0xC0 + b - 1;
  3598  06E2  0823               	movf	Lcd_Set_Cursor@b,w
  3599  06E3  3EBF               	addlw	191
  3600  06E4  00FF               	movwf	btemp+1
  3601  06E5  087F               	movf	btemp+1,w
  3602  06E6  00A5               	movwf	Lcd_Set_Cursor@temp
  3603  06E7                     l1697:
  3604                           
  3605                           ;C:/MPlab_Digital2/Digital_2/Proyecto3Digital2.X/Display8bits.c: 37:         Lcd_Cmd(tem
      +                          p);
  3606  06E7  0825               	movf	Lcd_Set_Cursor@temp,w
  3607  06E8  120A  118A  272C  120A  118A  	fcall	_Lcd_Cmd
  3608  06ED                     l23:
  3609  06ED  0008               	return
  3610  06EE                     __end_of_Lcd_Set_Cursor:
  3611                           
  3612                           	psect	text18
  3613  07B2                     __ptext18:	
  3614 ;; *************** function _Lcd_Clear *****************
  3615 ;; Defined at:
  3616 ;;		line 24 in file "C:/MPlab_Digital2/Digital_2/Proyecto3Digital2.X/Display8bits.c"
  3617 ;; Parameters:    Size  Location     Type
  3618 ;;		None
  3619 ;; Auto vars:     Size  Location     Type
  3620 ;;		None
  3621 ;; Return value:  Size  Location     Type
  3622 ;;                  1    wreg      void 
  3623 ;; Registers used:
  3624 ;;		wreg, status,2, status,0, pclath, cstack
  3625 ;; Tracked objects:
  3626 ;;		On entry : 0/0
  3627 ;;		On exit  : 0/0
  3628 ;;		Unchanged: 0/0
  3629 ;; Data sizes:     COMMON   BANK0   BANK1   BANK3   BANK2
  3630 ;;      Params:         0       0       0       0       0
  3631 ;;      Locals:         0       0       0       0       0
  3632 ;;      Temps:          0       0       0       0       0
  3633 ;;      Totals:         0       0       0       0       0
  3634 ;;Total ram usage:        0 bytes
  3635 ;; Hardware stack levels used:    1
  3636 ;; Hardware stack levels required when called:    5
  3637 ;; This function calls:
  3638 ;;		_Lcd_Cmd
  3639 ;; This function is called by:
  3640 ;;		_main
  3641 ;; This function uses a non-reentrant model
  3642 ;;
  3643                           
  3644                           
  3645                           ;psect for function _Lcd_Clear
  3646  07B2                     _Lcd_Clear:
  3647  07B2                     l1685:	
  3648                           ;incstack = 0
  3649                           ; Regs used in _Lcd_Clear: [wreg+status,2+status,0+pclath+cstack]
  3650                           
  3651                           
  3652                           ;C:/MPlab_Digital2/Digital_2/Proyecto3Digital2.X/Display8bits.c: 25:  Lcd_Cmd(1);
  3653  07B2  3001               	movlw	1
  3654  07B3  120A  118A  272C  120A  118A  	fcall	_Lcd_Cmd
  3655  07B8                     l17:
  3656  07B8  0008               	return
  3657  07B9                     __end_of_Lcd_Clear:
  3658                           
  3659                           	psect	text19
  3660  072C                     __ptext19:	
  3661 ;; *************** function _Lcd_Cmd *****************
  3662 ;; Defined at:
  3663 ;;		line 17 in file "C:/MPlab_Digital2/Digital_2/Proyecto3Digital2.X/Display8bits.c"
  3664 ;; Parameters:    Size  Location     Type
  3665 ;;  a               1    wreg     unsigned char 
  3666 ;; Auto vars:     Size  Location     Type
  3667 ;;  a               1    2[BANK0 ] unsigned char 
  3668 ;; Return value:  Size  Location     Type
  3669 ;;                  1    wreg      void 
  3670 ;; Registers used:
  3671 ;;		wreg, status,2, status,0, pclath, cstack
  3672 ;; Tracked objects:
  3673 ;;		On entry : 0/0
  3674 ;;		On exit  : 0/0
  3675 ;;		Unchanged: 0/0
  3676 ;; Data sizes:     COMMON   BANK0   BANK1   BANK3   BANK2
  3677 ;;      Params:         0       0       0       0       0
  3678 ;;      Locals:         0       1       0       0       0
  3679 ;;      Temps:          0       1       0       0       0
  3680 ;;      Totals:         0       2       0       0       0
  3681 ;;Total ram usage:        2 bytes
  3682 ;; Hardware stack levels used:    1
  3683 ;; Hardware stack levels required when called:    4
  3684 ;; This function calls:
  3685 ;;		_Lcd_Port
  3686 ;; This function is called by:
  3687 ;;		_Lcd_Clear
  3688 ;;		_Lcd_Set_Cursor
  3689 ;;		_Lcd_Init
  3690 ;;		_Lcd_Shift_Right
  3691 ;;		_Lcd_Shift_Left
  3692 ;; This function uses a non-reentrant model
  3693 ;;
  3694                           
  3695                           
  3696                           ;psect for function _Lcd_Cmd
  3697  072C                     _Lcd_Cmd:
  3698                           
  3699                           ;incstack = 0
  3700                           ; Regs used in _Lcd_Cmd: [wreg+status,2+status,0+pclath+cstack]
  3701                           ;Lcd_Cmd@a stored from wreg
  3702  072C  1283               	bcf	3,5	;RP0=0, select bank0
  3703  072D  1303               	bcf	3,6	;RP1=0, select bank0
  3704  072E  00A2               	movwf	Lcd_Cmd@a
  3705  072F                     l1455:
  3706                           
  3707                           ;C:/MPlab_Digital2/Digital_2/Proyecto3Digital2.X/Display8bits.c: 18:  RE0 = 0;
  3708  072F  1009               	bcf	9,0	;volatile
  3709  0730                     l1457:
  3710                           
  3711                           ;C:/MPlab_Digital2/Digital_2/Proyecto3Digital2.X/Display8bits.c: 19:  Lcd_Port(a);
  3712  0730  0822               	movf	Lcd_Cmd@a,w
  3713  0731  120A  118A  27B9  120A  118A  	fcall	_Lcd_Port
  3714  0736                     l1459:
  3715                           
  3716                           ;C:/MPlab_Digital2/Digital_2/Proyecto3Digital2.X/Display8bits.c: 20:  RE2 = 1;
  3717  0736  1283               	bcf	3,5	;RP0=0, select bank0
  3718  0737  1303               	bcf	3,6	;RP1=0, select bank0
  3719  0738  1509               	bsf	9,2	;volatile
  3720  0739                     l1461:
  3721                           
  3722                           ;C:/MPlab_Digital2/Digital_2/Proyecto3Digital2.X/Display8bits.c: 21:     _delay((unsigne
      +                          d long)((10)*(400000/4000.0)));
  3723  0739  30C7               	movlw	199
  3724  073A  1283               	bcf	3,5	;RP0=0, select bank0
  3725  073B  1303               	bcf	3,6	;RP1=0, select bank0
  3726  073C  00A1               	movwf	??_Lcd_Cmd
  3727  073D                     u737:
  3728  073D  2F3E               	nop2
  3729  073E  0BA1               	decfsz	??_Lcd_Cmd,f
  3730  073F  2F3D               	goto	u737
  3731  0740  2F41               	nop2
  3732  0741                     l1463:
  3733                           
  3734                           ;C:/MPlab_Digital2/Digital_2/Proyecto3Digital2.X/Display8bits.c: 22:     RE2 = 0;
  3735  0741  1283               	bcf	3,5	;RP0=0, select bank0
  3736  0742  1303               	bcf	3,6	;RP1=0, select bank0
  3737  0743  1109               	bcf	9,2	;volatile
  3738  0744                     l14:
  3739  0744  0008               	return
  3740  0745                     __end_of_Lcd_Cmd:
  3741                           
  3742                           	psect	text20
  3743  07B9                     __ptext20:	
  3744 ;; *************** function _Lcd_Port *****************
  3745 ;; Defined at:
  3746 ;;		line 14 in file "C:/MPlab_Digital2/Digital_2/Proyecto3Digital2.X/Display8bits.c"
  3747 ;; Parameters:    Size  Location     Type
  3748 ;;  a               1    wreg     unsigned char 
  3749 ;; Auto vars:     Size  Location     Type
  3750 ;;  a               1    0[BANK0 ] unsigned char 
  3751 ;; Return value:  Size  Location     Type
  3752 ;;                  1    wreg      void 
  3753 ;; Registers used:
  3754 ;;		wreg
  3755 ;; Tracked objects:
  3756 ;;		On entry : 0/0
  3757 ;;		On exit  : 0/0
  3758 ;;		Unchanged: 0/0
  3759 ;; Data sizes:     COMMON   BANK0   BANK1   BANK3   BANK2
  3760 ;;      Params:         0       0       0       0       0
  3761 ;;      Locals:         0       1       0       0       0
  3762 ;;      Temps:          0       0       0       0       0
  3763 ;;      Totals:         0       1       0       0       0
  3764 ;;Total ram usage:        1 bytes
  3765 ;; Hardware stack levels used:    1
  3766 ;; Hardware stack levels required when called:    3
  3767 ;; This function calls:
  3768 ;;		Nothing
  3769 ;; This function is called by:
  3770 ;;		_Lcd_Cmd
  3771 ;;		_Lcd_Init
  3772 ;;		_Lcd_Write_Char
  3773 ;; This function uses a non-reentrant model
  3774 ;;
  3775                           
  3776                           
  3777                           ;psect for function _Lcd_Port
  3778  07B9                     _Lcd_Port:
  3779                           
  3780                           ;incstack = 0
  3781                           ; Regs used in _Lcd_Port: [wreg]
  3782                           ;Lcd_Port@a stored from wreg
  3783  07B9  1283               	bcf	3,5	;RP0=0, select bank0
  3784  07BA  1303               	bcf	3,6	;RP1=0, select bank0
  3785  07BB  00A0               	movwf	Lcd_Port@a
  3786  07BC                     l1453:
  3787                           
  3788                           ;C:/MPlab_Digital2/Digital_2/Proyecto3Digital2.X/Display8bits.c: 15:     PORTA = a;
  3789  07BC  0820               	movf	Lcd_Port@a,w
  3790  07BD  0085               	movwf	5	;volatile
  3791  07BE                     l11:
  3792  07BE  0008               	return
  3793  07BF                     __end_of_Lcd_Port:
  3794                           
  3795                           	psect	text21
  3796  06EE                     __ptext21:	
  3797 ;; *************** function _isr *****************
  3798 ;; Defined at:
  3799 ;;		line 64 in file "C:/MPlab_Digital2/Digital_2/Proyecto3Digital2.X/main.c"
  3800 ;; Parameters:    Size  Location     Type
  3801 ;;		None
  3802 ;; Auto vars:     Size  Location     Type
  3803 ;;		None
  3804 ;; Return value:  Size  Location     Type
  3805 ;;                  1    wreg      void 
  3806 ;; Registers used:
  3807 ;;		wreg, fsr0l, fsr0h, status,2, status,0, btemp+1, pclath, cstack
  3808 ;; Tracked objects:
  3809 ;;		On entry : 0/0
  3810 ;;		On exit  : 0/0
  3811 ;;		Unchanged: 0/0
  3812 ;; Data sizes:     COMMON   BANK0   BANK1   BANK3   BANK2
  3813 ;;      Params:         0       0       0       0       0
  3814 ;;      Locals:         0       0       0       0       0
  3815 ;;      Temps:          4       0       0       0       0
  3816 ;;      Totals:         4       0       0       0       0
  3817 ;;Total ram usage:        4 bytes
  3818 ;; Hardware stack levels used:    1
  3819 ;; Hardware stack levels required when called:    2
  3820 ;; This function calls:
  3821 ;;		_envio
  3822 ;; This function is called by:
  3823 ;;		Interrupt level 1
  3824 ;; This function uses a non-reentrant model
  3825 ;;
  3826                           
  3827                           
  3828                           ;psect for function _isr
  3829  06EE                     _isr:
  3830  06EE                     i1l1875:
  3831                           
  3832                           ;C:/MPlab_Digital2/Digital_2/Proyecto3Digital2.X/main.c: 65:         Lcd_Write_Char(32);
  3833  06EE  150B               	bsf	11,2	;volatile
  3834  06EF                     i1l1877:
  3835                           
  3836                           ;C:/MPlab_Digital2/Digital_2/Proyecto3Digital2.X/main.c: 66:         Lcd_Set_Cursor(2,6)
      +                          ;
  3837  06EF  30EC               	movlw	236
  3838  06F0  0081               	movwf	1	;volatile
  3839  06F1                     i1l1879:
  3840                           
  3841                           ;C:/MPlab_Digital2/Digital_2/Proyecto3Digital2.X/main.c: 67:         Lcd_Write_Char(cent
      +                          enasp2+48);
  3842  06F1  3001               	movlw	1
  3843  06F2  00FF               	movwf	btemp+1
  3844  06F3  087F               	movf	btemp+1,w
  3845  06F4  07FD               	addwf	_controles,f
  3846  06F5                     i1l1881:
  3847                           
  3848                           ;C:/MPlab_Digital2/Digital_2/Proyecto3Digital2.X/main.c: 68:         Lcd_Set_Cursor(2,7)
      +                          ;
  3849  06F5  110B               	bcf	11,2	;volatile
  3850  06F6                     i1l1883:
  3851                           
  3852                           ;C:/MPlab_Digital2/Digital_2/Proyecto3Digital2.X/main.c: 70:         Lcd_Set_Cursor(2,8)
      +                          ;
  3853  06F6  1E0C               	btfss	12,4	;volatile
  3854  06F7  2EF9               	goto	u68_21
  3855  06F8  2EFA               	goto	u68_20
  3856  06F9                     u68_21:
  3857  06F9  2F02               	goto	i1l157
  3858  06FA                     u68_20:
  3859  06FA                     i1l1885:
  3860                           
  3861                           ;C:/MPlab_Digital2/Digital_2/Proyecto3Digital2.X/main.c: 71:         Lcd_Write_Char(dece
      +                          nasp2+48);
  3862  06FA  120A  118A  23E6  120A  118A  	fcall	_envio
  3863  06FF                     i1l1887:
  3864                           
  3865                           ;C:/MPlab_Digital2/Digital_2/Proyecto3Digital2.X/main.c: 72:         Lcd_Set_Cursor(2,9)
      +                          ;
  3866  06FF  1683               	bsf	3,5	;RP0=1, select bank1
  3867  0700  1303               	bcf	3,6	;RP1=0, select bank1
  3868  0701  120C               	bcf	12,4	;volatile
  3869  0702                     i1l157:
  3870  0702  087A               	movf	??_isr+3,w
  3871  0703  1283               	bcf	3,5	;RP0=0, select bank0
  3872  0704  00FF               	movwf	btemp+1
  3873  0705  0879               	movf	??_isr+2,w
  3874  0706  008A               	movwf	10
  3875  0707  0878               	movf	??_isr+1,w
  3876  0708  0084               	movwf	4
  3877  0709  0E77               	swapf	??_isr^(0+4294967168),w
  3878  070A  0083               	movwf	3
  3879  070B  0EFE               	swapf	btemp,f
  3880  070C  0E7E               	swapf	btemp,w
  3881  070D  0009               	retfie
  3882  070E                     __end_of_isr:
  3883                           
  3884                           	psect	intentry
  3885  0004                     __pintentry:	
  3886                           ;incstack = 0
  3887                           ; Regs used in _isr: [wreg-fsr0h+status,2+status,0+btemp+1+pclath+cstack]
  3888                           
  3889  0004                     interrupt_function:
  3890  007E                     saved_w	set	btemp
  3891  0004  00FE               	movwf	btemp
  3892  0005  0E03               	swapf	3,w
  3893  0006  00F7               	movwf	??_isr
  3894  0007  0804               	movf	4,w
  3895  0008  00F8               	movwf	??_isr+1
  3896  0009  080A               	movf	10,w
  3897  000A  00F9               	movwf	??_isr+2
  3898  000B  1283               	bcf	3,5	;RP0=0, select bank0
  3899  000C  1303               	bcf	3,6	;RP1=0, select bank0
  3900  000D  087F               	movf	btemp+1,w
  3901  000E  00FA               	movwf	??_isr+3
  3902  000F  120A  118A  2EEE   	ljmp	_isr
  3903                           
  3904                           	psect	text22
  3905  03E6                     __ptext22:	
  3906 ;; *************** function _envio *****************
  3907 ;; Defined at:
  3908 ;;		line 191 in file "C:/MPlab_Digital2/Digital_2/Proyecto3Digital2.X/main.c"
  3909 ;; Parameters:    Size  Location     Type
  3910 ;;		None
  3911 ;; Auto vars:     Size  Location     Type
  3912 ;;		None
  3913 ;; Return value:  Size  Location     Type
  3914 ;;                  1    wreg      void 
  3915 ;; Registers used:
  3916 ;;		wreg, fsr0l, fsr0h, status,2, status,0, btemp+1, pclath, cstack
  3917 ;; Tracked objects:
  3918 ;;		On entry : 0/0
  3919 ;;		On exit  : 0/0
  3920 ;;		Unchanged: 0/0
  3921 ;; Data sizes:     COMMON   BANK0   BANK1   BANK3   BANK2
  3922 ;;      Params:         0       0       0       0       0
  3923 ;;      Locals:         0       0       0       0       0
  3924 ;;      Temps:          2       0       0       0       0
  3925 ;;      Totals:         2       0       0       0       0
  3926 ;;Total ram usage:        2 bytes
  3927 ;; Hardware stack levels used:    1
  3928 ;; Hardware stack levels required when called:    1
  3929 ;; This function calls:
  3930 ;;		_tabla_hex
  3931 ;; This function is called by:
  3932 ;;		_isr
  3933 ;; This function uses a non-reentrant model
  3934 ;;
  3935                           
  3936                           
  3937                           ;psect for function _envio
  3938  03E6                     _envio:
  3939  03E6                     i1l1707:	
  3940                           ;incstack = 0
  3941                           ; Regs used in _envio: [wreg-fsr0h+status,2+status,0+btemp+1+pclath+cstack]
  3942                           
  3943                           
  3944                           ;C:/MPlab_Digital2/Digital_2/Proyecto3Digital2.X/main.c: 192:            break;
  3945  03E6  2C54               	goto	i1l1747
  3946  03E7                     i1l1709:
  3947                           
  3948                           ;C:/MPlab_Digital2/Digital_2/Proyecto3Digital2.X/main.c: 194: }
  3949  03E7  3019               	movlw	25
  3950  03E8  00F0               	movwf	tabla_hex@port
  3951  03E9  3000               	movlw	0
  3952  03EA  00F1               	movwf	tabla_hex@port+1
  3953  03EB  087C               	movf	_esclavo1,w
  3954  03EC  00F5               	movwf	??_envio
  3955  03ED  3004               	movlw	4
  3956  03EE                     u63_25:
  3957  03EE  1003               	clrc
  3958  03EF  0CF5               	rrf	??_envio,f
  3959  03F0  3EFF               	addlw	-1
  3960  03F1  1D03               	skipz
  3961  03F2  2BEE               	goto	u63_25
  3962  03F3  0875               	movf	??_envio,w
  3963  03F4  390F               	andlw	15
  3964  03F5  120A  118A  2309  120A  118A  	fcall	_tabla_hex
  3965  03FA                     i1l1711:
  3966                           
  3967                           ;C:/MPlab_Digital2/Digital_2/Proyecto3Digital2.X/main.c: 195: void mapeo (void){
  3968  03FA  3001               	movlw	1
  3969  03FB  00FF               	movwf	btemp+1
  3970  03FC  087F               	movf	btemp+1,w
  3971  03FD  1283               	bcf	3,5	;RP0=0, select bank0
  3972  03FE  1303               	bcf	3,6	;RP1=0, select bank0
  3973  03FF  07C6               	addwf	_var_envio,f
  3974                           
  3975                           ;C:/MPlab_Digital2/Digital_2/Proyecto3Digital2.X/main.c: 196:     uint16_t TEMP1 = 0;
  3976  0400  2C7B               	goto	i1l195
  3977  0401                     i1l1713:
  3978                           
  3979                           ;C:/MPlab_Digital2/Digital_2/Proyecto3Digital2.X/main.c: 198:     TEMP1 = ((esclavo1 *10
      +                          0)/51);
  3980  0401  3019               	movlw	25
  3981  0402  00F0               	movwf	tabla_hex@port
  3982  0403  3000               	movlw	0
  3983  0404  00F1               	movwf	tabla_hex@port+1
  3984  0405  087C               	movf	_esclavo1,w
  3985  0406  390F               	andlw	15
  3986  0407  120A  118A  2309  120A  118A  	fcall	_tabla_hex
  3987  040C  2BFA               	goto	i1l1711
  3988  040D                     i1l1717:
  3989                           
  3990                           ;C:/MPlab_Digital2/Digital_2/Proyecto3Digital2.X/main.c: 202:     decenasp1 = (TEMP1-(ce
      +                          ntenasp1*100))/10;
  3991  040D  302C               	movlw	44
  3992  040E  0099               	movwf	25	;volatile
  3993  040F  2BFA               	goto	i1l1711
  3994  0410                     i1l1721:
  3995                           
  3996                           ;C:/MPlab_Digital2/Digital_2/Proyecto3Digital2.X/main.c: 206:     decenasp2 = (TEMP2-(ce
      +                          ntenasp2*100))/10;
  3997  0410  3019               	movlw	25
  3998  0411  00F0               	movwf	tabla_hex@port
  3999  0412  3000               	movlw	0
  4000  0413  00F1               	movwf	tabla_hex@port+1
  4001  0414  0848               	movf	_esclavo2,w
  4002  0415  00F5               	movwf	??_envio
  4003  0416  3004               	movlw	4
  4004  0417                     u64_25:
  4005  0417  1003               	clrc
  4006  0418  0CF5               	rrf	??_envio,f
  4007  0419  3EFF               	addlw	-1
  4008  041A  1D03               	skipz
  4009  041B  2C17               	goto	u64_25
  4010  041C  0875               	movf	??_envio,w
  4011  041D  390F               	andlw	15
  4012  041E  120A  118A  2309  120A  118A  	fcall	_tabla_hex
  4013  0423  2BFA               	goto	i1l1711
  4014  0424                     i1l1725:
  4015  0424  3019               	movlw	25
  4016  0425  00F0               	movwf	tabla_hex@port
  4017  0426  3000               	movlw	0
  4018  0427  00F1               	movwf	tabla_hex@port+1
  4019  0428  0848               	movf	_esclavo2,w
  4020  0429  390F               	andlw	15
  4021  042A  120A  118A  2309  120A  118A  	fcall	_tabla_hex
  4022  042F  2BFA               	goto	i1l1711
  4023  0430                     i1l1733:
  4024  0430  3019               	movlw	25
  4025  0431  00F0               	movwf	tabla_hex@port
  4026  0432  3000               	movlw	0
  4027  0433  00F1               	movwf	tabla_hex@port+1
  4028  0434  087B               	movf	_esclavo3,w
  4029  0435  00F5               	movwf	??_envio
  4030  0436  3004               	movlw	4
  4031  0437                     u65_25:
  4032  0437  1003               	clrc
  4033  0438  0CF5               	rrf	??_envio,f
  4034  0439  3EFF               	addlw	-1
  4035  043A  1D03               	skipz
  4036  043B  2C37               	goto	u65_25
  4037  043C  0875               	movf	??_envio,w
  4038  043D  390F               	andlw	15
  4039  043E  120A  118A  2309  120A  118A  	fcall	_tabla_hex
  4040  0443  2BFA               	goto	i1l1711
  4041  0444                     i1l1737:
  4042  0444  3019               	movlw	25
  4043  0445  00F0               	movwf	tabla_hex@port
  4044  0446  3000               	movlw	0
  4045  0447  00F1               	movwf	tabla_hex@port+1
  4046  0448  087B               	movf	_esclavo3,w
  4047  0449  390F               	andlw	15
  4048  044A  120A  118A  2309  120A  118A  	fcall	_tabla_hex
  4049  044F  2BFA               	goto	i1l1711
  4050  0450                     i1l1741:
  4051  0450  300D               	movlw	13
  4052  0451  0099               	movwf	25	;volatile
  4053  0452                     i1l1743:
  4054  0452  01C6               	clrf	_var_envio
  4055  0453  2C7B               	goto	i1l195
  4056  0454                     i1l1747:
  4057  0454  1283               	bcf	3,5	;RP0=0, select bank0
  4058  0455  1303               	bcf	3,6	;RP1=0, select bank0
  4059  0456  0846               	movf	_var_envio,w
  4060  0457  00F5               	movwf	??_envio
  4061  0458  01F6               	clrf	??_envio+1
  4062                           
  4063                           ; Switch on 2 bytes has been partitioned into a top level switch of size 1, and 1 sub-sw
      +                          itches
  4064                           ; Switch size 1, requested type "simple"
  4065                           ; Number of cases is 1, Range of values is 0 to 0
  4066                           ; switch strategies available:
  4067                           ; Name         Instructions Cycles
  4068                           ; simple_byte            4     3 (average)
  4069                           ; direct_byte           11     8 (fixed)
  4070                           ; jumptable            260     6 (fixed)
  4071                           ;	Chosen strategy is simple_byte
  4072  0459  0876               	movf	??_envio+1,w
  4073  045A  3A00               	xorlw	0	; case 0
  4074  045B  1903               	skipnz
  4075  045C  2C5E               	goto	i1l2055
  4076  045D  2C7B               	goto	i1l195
  4077  045E                     i1l2055:
  4078                           
  4079                           ; Switch size 1, requested type "simple"
  4080                           ; Number of cases is 9, Range of values is 0 to 8
  4081                           ; switch strategies available:
  4082                           ; Name         Instructions Cycles
  4083                           ; simple_byte           28    15 (average)
  4084                           ; direct_byte           35     8 (fixed)
  4085                           ; jumptable            260     6 (fixed)
  4086                           ;	Chosen strategy is simple_byte
  4087  045E  0875               	movf	??_envio,w
  4088  045F  3A00               	xorlw	0	; case 0
  4089  0460  1903               	skipnz
  4090  0461  2BE7               	goto	i1l1709
  4091  0462  3A01               	xorlw	1	; case 1
  4092  0463  1903               	skipnz
  4093  0464  2C01               	goto	i1l1713
  4094  0465  3A03               	xorlw	3	; case 2
  4095  0466  1903               	skipnz
  4096  0467  2C0D               	goto	i1l1717
  4097  0468  3A01               	xorlw	1	; case 3
  4098  0469  1903               	skipnz
  4099  046A  2C10               	goto	i1l1721
  4100  046B  3A07               	xorlw	7	; case 4
  4101  046C  1903               	skipnz
  4102  046D  2C24               	goto	i1l1725
  4103  046E  3A01               	xorlw	1	; case 5
  4104  046F  1903               	skipnz
  4105  0470  2C0D               	goto	i1l1717
  4106  0471  3A03               	xorlw	3	; case 6
  4107  0472  1903               	skipnz
  4108  0473  2C30               	goto	i1l1733
  4109  0474  3A01               	xorlw	1	; case 7
  4110  0475  1903               	skipnz
  4111  0476  2C44               	goto	i1l1737
  4112  0477  3A0F               	xorlw	15	; case 8
  4113  0478  1903               	skipnz
  4114  0479  2C50               	goto	i1l1741
  4115  047A  2C7B               	goto	i1l195
  4116  047B                     i1l195:
  4117  047B  0008               	return
  4118  047C                     __end_of_envio:
  4119                           
  4120                           	psect	text23
  4121  0309                     __ptext23:	
  4122 ;; *************** function _tabla_hex *****************
  4123 ;; Defined at:
  4124 ;;		line 11 in file "C:/MPlab_Digital2/Digital_2/Proyecto3Digital2.X/TablaACSII_HEX.c"
  4125 ;; Parameters:    Size  Location     Type
  4126 ;;  selector        1    wreg     unsigned char 
  4127 ;;  port            2    0[COMMON] PTR volatile unsigned ch
  4128 ;;		 -> TXREG(1), 
  4129 ;; Auto vars:     Size  Location     Type
  4130 ;;  selector        1    4[COMMON] unsigned char 
  4131 ;; Return value:  Size  Location     Type
  4132 ;;                  1    wreg      void 
  4133 ;; Registers used:
  4134 ;;		wreg, fsr0l, fsr0h, status,2, status,0, btemp+1
  4135 ;; Tracked objects:
  4136 ;;		On entry : 0/0
  4137 ;;		On exit  : 0/0
  4138 ;;		Unchanged: 0/0
  4139 ;; Data sizes:     COMMON   BANK0   BANK1   BANK3   BANK2
  4140 ;;      Params:         2       0       0       0       0
  4141 ;;      Locals:         1       0       0       0       0
  4142 ;;      Temps:          2       0       0       0       0
  4143 ;;      Totals:         5       0       0       0       0
  4144 ;;Total ram usage:        5 bytes
  4145 ;; Hardware stack levels used:    1
  4146 ;; This function calls:
  4147 ;;		Nothing
  4148 ;; This function is called by:
  4149 ;;		_envio
  4150 ;; This function uses a non-reentrant model
  4151 ;;
  4152                           
  4153                           
  4154                           ;psect for function _tabla_hex
  4155  0309                     _tabla_hex:
  4156                           
  4157                           ;incstack = 0
  4158                           ; Regs used in _tabla_hex: [wreg-fsr0h+status,2+status,0+btemp+1]
  4159                           ;tabla_hex@selector stored from wreg
  4160  0309  00F4               	movwf	tabla_hex@selector
  4161  030A                     i1l1541:
  4162                           
  4163                           ;C:/MPlab_Digital2/Digital_2/Proyecto3Digital2.X/TablaACSII_HEX.c: 12: switch (selector)
      +                          {
  4164  030A  2BAB               	goto	i1l1579
  4165  030B                     i1l1543:
  4166                           
  4167                           ;C:/MPlab_Digital2/Digital_2/Proyecto3Digital2.X/TablaACSII_HEX.c: 14:             *port
      +                           = 48;
  4168  030B  3030               	movlw	48
  4169  030C  00FF               	movwf	btemp+1
  4170  030D  0870               	movf	tabla_hex@port,w
  4171  030E  0084               	movwf	4
  4172  030F  1783               	bsf	3,7
  4173  0310  1C71               	btfss	tabla_hex@port+1,0
  4174  0311  1383               	bcf	3,7
  4175  0312  087F               	movf	btemp+1,w
  4176  0313  0080               	movwf	0
  4177                           
  4178                           ;C:/MPlab_Digital2/Digital_2/Proyecto3Digital2.X/TablaACSII_HEX.c: 15:             break
      +                          ;
  4179  0314  2BE5               	goto	i1l220
  4180  0315                     i1l1545:
  4181                           
  4182                           ;C:/MPlab_Digital2/Digital_2/Proyecto3Digital2.X/TablaACSII_HEX.c: 17:             *port
      +                           = 49;
  4183  0315  3031               	movlw	49
  4184  0316  00FF               	movwf	btemp+1
  4185  0317  0870               	movf	tabla_hex@port,w
  4186  0318  0084               	movwf	4
  4187  0319  1783               	bsf	3,7
  4188  031A  1C71               	btfss	tabla_hex@port+1,0
  4189  031B  1383               	bcf	3,7
  4190  031C  087F               	movf	btemp+1,w
  4191  031D  0080               	movwf	0
  4192                           
  4193                           ;C:/MPlab_Digital2/Digital_2/Proyecto3Digital2.X/TablaACSII_HEX.c: 18:             break
      +                          ;
  4194  031E  2BE5               	goto	i1l220
  4195  031F                     i1l1547:
  4196                           
  4197                           ;C:/MPlab_Digital2/Digital_2/Proyecto3Digital2.X/TablaACSII_HEX.c: 20:             *port
      +                           = 50;
  4198  031F  3032               	movlw	50
  4199  0320  00FF               	movwf	btemp+1
  4200  0321  0870               	movf	tabla_hex@port,w
  4201  0322  0084               	movwf	4
  4202  0323  1783               	bsf	3,7
  4203  0324  1C71               	btfss	tabla_hex@port+1,0
  4204  0325  1383               	bcf	3,7
  4205  0326  087F               	movf	btemp+1,w
  4206  0327  0080               	movwf	0
  4207                           
  4208                           ;C:/MPlab_Digital2/Digital_2/Proyecto3Digital2.X/TablaACSII_HEX.c: 21:             break
      +                          ;
  4209  0328  2BE5               	goto	i1l220
  4210  0329                     i1l1549:
  4211                           
  4212                           ;C:/MPlab_Digital2/Digital_2/Proyecto3Digital2.X/TablaACSII_HEX.c: 23:             *port
      +                           = 51;
  4213  0329  3033               	movlw	51
  4214  032A  00FF               	movwf	btemp+1
  4215  032B  0870               	movf	tabla_hex@port,w
  4216  032C  0084               	movwf	4
  4217  032D  1783               	bsf	3,7
  4218  032E  1C71               	btfss	tabla_hex@port+1,0
  4219  032F  1383               	bcf	3,7
  4220  0330  087F               	movf	btemp+1,w
  4221  0331  0080               	movwf	0
  4222                           
  4223                           ;C:/MPlab_Digital2/Digital_2/Proyecto3Digital2.X/TablaACSII_HEX.c: 24:             break
      +                          ;
  4224  0332  2BE5               	goto	i1l220
  4225  0333                     i1l1551:
  4226                           
  4227                           ;C:/MPlab_Digital2/Digital_2/Proyecto3Digital2.X/TablaACSII_HEX.c: 26:            *port 
      +                          = 52;
  4228  0333  3034               	movlw	52
  4229  0334  00FF               	movwf	btemp+1
  4230  0335  0870               	movf	tabla_hex@port,w
  4231  0336  0084               	movwf	4
  4232  0337  1783               	bsf	3,7
  4233  0338  1C71               	btfss	tabla_hex@port+1,0
  4234  0339  1383               	bcf	3,7
  4235  033A  087F               	movf	btemp+1,w
  4236  033B  0080               	movwf	0
  4237                           
  4238                           ;C:/MPlab_Digital2/Digital_2/Proyecto3Digital2.X/TablaACSII_HEX.c: 27:             break
      +                          ;
  4239  033C  2BE5               	goto	i1l220
  4240  033D                     i1l1553:
  4241                           
  4242                           ;C:/MPlab_Digital2/Digital_2/Proyecto3Digital2.X/TablaACSII_HEX.c: 29:             *port
      +                           = 53;
  4243  033D  3035               	movlw	53
  4244  033E  00FF               	movwf	btemp+1
  4245  033F  0870               	movf	tabla_hex@port,w
  4246  0340  0084               	movwf	4
  4247  0341  1783               	bsf	3,7
  4248  0342  1C71               	btfss	tabla_hex@port+1,0
  4249  0343  1383               	bcf	3,7
  4250  0344  087F               	movf	btemp+1,w
  4251  0345  0080               	movwf	0
  4252                           
  4253                           ;C:/MPlab_Digital2/Digital_2/Proyecto3Digital2.X/TablaACSII_HEX.c: 30:             break
      +                          ;
  4254  0346  2BE5               	goto	i1l220
  4255  0347                     i1l1555:
  4256                           
  4257                           ;C:/MPlab_Digital2/Digital_2/Proyecto3Digital2.X/TablaACSII_HEX.c: 32:             *port
      +                           = 54;
  4258  0347  3036               	movlw	54
  4259  0348  00FF               	movwf	btemp+1
  4260  0349  0870               	movf	tabla_hex@port,w
  4261  034A  0084               	movwf	4
  4262  034B  1783               	bsf	3,7
  4263  034C  1C71               	btfss	tabla_hex@port+1,0
  4264  034D  1383               	bcf	3,7
  4265  034E  087F               	movf	btemp+1,w
  4266  034F  0080               	movwf	0
  4267                           
  4268                           ;C:/MPlab_Digital2/Digital_2/Proyecto3Digital2.X/TablaACSII_HEX.c: 33:             break
      +                          ;
  4269  0350  2BE5               	goto	i1l220
  4270  0351                     i1l1557:
  4271                           
  4272                           ;C:/MPlab_Digital2/Digital_2/Proyecto3Digital2.X/TablaACSII_HEX.c: 35:             *port
      +                           = 55;
  4273  0351  3037               	movlw	55
  4274  0352  00FF               	movwf	btemp+1
  4275  0353  0870               	movf	tabla_hex@port,w
  4276  0354  0084               	movwf	4
  4277  0355  1783               	bsf	3,7
  4278  0356  1C71               	btfss	tabla_hex@port+1,0
  4279  0357  1383               	bcf	3,7
  4280  0358  087F               	movf	btemp+1,w
  4281  0359  0080               	movwf	0
  4282                           
  4283                           ;C:/MPlab_Digital2/Digital_2/Proyecto3Digital2.X/TablaACSII_HEX.c: 36:             break
      +                          ;
  4284  035A  2BE5               	goto	i1l220
  4285  035B                     i1l1559:
  4286                           
  4287                           ;C:/MPlab_Digital2/Digital_2/Proyecto3Digital2.X/TablaACSII_HEX.c: 38:             *port
      +                           = 56;
  4288  035B  3038               	movlw	56
  4289  035C  00FF               	movwf	btemp+1
  4290  035D  0870               	movf	tabla_hex@port,w
  4291  035E  0084               	movwf	4
  4292  035F  1783               	bsf	3,7
  4293  0360  1C71               	btfss	tabla_hex@port+1,0
  4294  0361  1383               	bcf	3,7
  4295  0362  087F               	movf	btemp+1,w
  4296  0363  0080               	movwf	0
  4297                           
  4298                           ;C:/MPlab_Digital2/Digital_2/Proyecto3Digital2.X/TablaACSII_HEX.c: 39:             break
      +                          ;
  4299  0364  2BE5               	goto	i1l220
  4300  0365                     i1l1561:
  4301                           
  4302                           ;C:/MPlab_Digital2/Digital_2/Proyecto3Digital2.X/TablaACSII_HEX.c: 41:             *port
      +                           = 57;
  4303  0365  3039               	movlw	57
  4304  0366  00FF               	movwf	btemp+1
  4305  0367  0870               	movf	tabla_hex@port,w
  4306  0368  0084               	movwf	4
  4307  0369  1783               	bsf	3,7
  4308  036A  1C71               	btfss	tabla_hex@port+1,0
  4309  036B  1383               	bcf	3,7
  4310  036C  087F               	movf	btemp+1,w
  4311  036D  0080               	movwf	0
  4312                           
  4313                           ;C:/MPlab_Digital2/Digital_2/Proyecto3Digital2.X/TablaACSII_HEX.c: 42:             break
      +                          ;
  4314  036E  2BE5               	goto	i1l220
  4315  036F                     i1l1563:
  4316                           
  4317                           ;C:/MPlab_Digital2/Digital_2/Proyecto3Digital2.X/TablaACSII_HEX.c: 44:             *port
      +                           = 65;
  4318  036F  3041               	movlw	65
  4319  0370  00FF               	movwf	btemp+1
  4320  0371  0870               	movf	tabla_hex@port,w
  4321  0372  0084               	movwf	4
  4322  0373  1783               	bsf	3,7
  4323  0374  1C71               	btfss	tabla_hex@port+1,0
  4324  0375  1383               	bcf	3,7
  4325  0376  087F               	movf	btemp+1,w
  4326  0377  0080               	movwf	0
  4327                           
  4328                           ;C:/MPlab_Digital2/Digital_2/Proyecto3Digital2.X/TablaACSII_HEX.c: 45:             break
      +                          ;
  4329  0378  2BE5               	goto	i1l220
  4330  0379                     i1l1565:
  4331                           
  4332                           ;C:/MPlab_Digital2/Digital_2/Proyecto3Digital2.X/TablaACSII_HEX.c: 47:             *port
      +                           = 66;
  4333  0379  3042               	movlw	66
  4334  037A  00FF               	movwf	btemp+1
  4335  037B  0870               	movf	tabla_hex@port,w
  4336  037C  0084               	movwf	4
  4337  037D  1783               	bsf	3,7
  4338  037E  1C71               	btfss	tabla_hex@port+1,0
  4339  037F  1383               	bcf	3,7
  4340  0380  087F               	movf	btemp+1,w
  4341  0381  0080               	movwf	0
  4342                           
  4343                           ;C:/MPlab_Digital2/Digital_2/Proyecto3Digital2.X/TablaACSII_HEX.c: 48:             break
      +                          ;
  4344  0382  2BE5               	goto	i1l220
  4345  0383                     i1l1567:
  4346                           
  4347                           ;C:/MPlab_Digital2/Digital_2/Proyecto3Digital2.X/TablaACSII_HEX.c: 50:             *port
      +                           = 67;
  4348  0383  3043               	movlw	67
  4349  0384  00FF               	movwf	btemp+1
  4350  0385  0870               	movf	tabla_hex@port,w
  4351  0386  0084               	movwf	4
  4352  0387  1783               	bsf	3,7
  4353  0388  1C71               	btfss	tabla_hex@port+1,0
  4354  0389  1383               	bcf	3,7
  4355  038A  087F               	movf	btemp+1,w
  4356  038B  0080               	movwf	0
  4357                           
  4358                           ;C:/MPlab_Digital2/Digital_2/Proyecto3Digital2.X/TablaACSII_HEX.c: 51:             break
      +                          ;
  4359  038C  2BE5               	goto	i1l220
  4360  038D                     i1l1569:
  4361                           
  4362                           ;C:/MPlab_Digital2/Digital_2/Proyecto3Digital2.X/TablaACSII_HEX.c: 53:             *port
      +                           = 68;
  4363  038D  3044               	movlw	68
  4364  038E  00FF               	movwf	btemp+1
  4365  038F  0870               	movf	tabla_hex@port,w
  4366  0390  0084               	movwf	4
  4367  0391  1783               	bsf	3,7
  4368  0392  1C71               	btfss	tabla_hex@port+1,0
  4369  0393  1383               	bcf	3,7
  4370  0394  087F               	movf	btemp+1,w
  4371  0395  0080               	movwf	0
  4372                           
  4373                           ;C:/MPlab_Digital2/Digital_2/Proyecto3Digital2.X/TablaACSII_HEX.c: 54:             break
      +                          ;
  4374  0396  2BE5               	goto	i1l220
  4375  0397                     i1l1571:
  4376                           
  4377                           ;C:/MPlab_Digital2/Digital_2/Proyecto3Digital2.X/TablaACSII_HEX.c: 56:             *port
      +                           = 69;
  4378  0397  3045               	movlw	69
  4379  0398  00FF               	movwf	btemp+1
  4380  0399  0870               	movf	tabla_hex@port,w
  4381  039A  0084               	movwf	4
  4382  039B  1783               	bsf	3,7
  4383  039C  1C71               	btfss	tabla_hex@port+1,0
  4384  039D  1383               	bcf	3,7
  4385  039E  087F               	movf	btemp+1,w
  4386  039F  0080               	movwf	0
  4387                           
  4388                           ;C:/MPlab_Digital2/Digital_2/Proyecto3Digital2.X/TablaACSII_HEX.c: 57:             break
      +                          ;
  4389  03A0  2BE5               	goto	i1l220
  4390  03A1                     i1l1573:
  4391                           
  4392                           ;C:/MPlab_Digital2/Digital_2/Proyecto3Digital2.X/TablaACSII_HEX.c: 59:             *port
      +                           = 70;
  4393  03A1  3046               	movlw	70
  4394  03A2  00FF               	movwf	btemp+1
  4395  03A3  0870               	movf	tabla_hex@port,w
  4396  03A4  0084               	movwf	4
  4397  03A5  1783               	bsf	3,7
  4398  03A6  1C71               	btfss	tabla_hex@port+1,0
  4399  03A7  1383               	bcf	3,7
  4400  03A8  087F               	movf	btemp+1,w
  4401  03A9  0080               	movwf	0
  4402                           
  4403                           ;C:/MPlab_Digital2/Digital_2/Proyecto3Digital2.X/TablaACSII_HEX.c: 60:             break
      +                          ;
  4404  03AA  2BE5               	goto	i1l220
  4405  03AB                     i1l1579:
  4406  03AB  0874               	movf	tabla_hex@selector,w
  4407  03AC  00F2               	movwf	??_tabla_hex
  4408  03AD  01F3               	clrf	??_tabla_hex+1
  4409                           
  4410                           ; Switch on 2 bytes has been partitioned into a top level switch of size 1, and 1 sub-sw
      +                          itches
  4411                           ; Switch size 1, requested type "simple"
  4412                           ; Number of cases is 1, Range of values is 0 to 0
  4413                           ; switch strategies available:
  4414                           ; Name         Instructions Cycles
  4415                           ; simple_byte            4     3 (average)
  4416                           ; direct_byte           11     8 (fixed)
  4417                           ; jumptable            260     6 (fixed)
  4418                           ;	Chosen strategy is simple_byte
  4419  03AE  0873               	movf	??_tabla_hex+1,w
  4420  03AF  3A00               	xorlw	0	; case 0
  4421  03B0  1903               	skipnz
  4422  03B1  2BB3               	goto	i1l2057
  4423  03B2  2B0B               	goto	i1l1543
  4424  03B3                     i1l2057:
  4425                           
  4426                           ; Switch size 1, requested type "simple"
  4427                           ; Number of cases is 16, Range of values is 0 to 15
  4428                           ; switch strategies available:
  4429                           ; Name         Instructions Cycles
  4430                           ; simple_byte           49    25 (average)
  4431                           ; direct_byte           56     8 (fixed)
  4432                           ; jumptable            260     6 (fixed)
  4433                           ;	Chosen strategy is simple_byte
  4434  03B3  0872               	movf	??_tabla_hex,w
  4435  03B4  3A00               	xorlw	0	; case 0
  4436  03B5  1903               	skipnz
  4437  03B6  2B0B               	goto	i1l1543
  4438  03B7  3A01               	xorlw	1	; case 1
  4439  03B8  1903               	skipnz
  4440  03B9  2B15               	goto	i1l1545
  4441  03BA  3A03               	xorlw	3	; case 2
  4442  03BB  1903               	skipnz
  4443  03BC  2B1F               	goto	i1l1547
  4444  03BD  3A01               	xorlw	1	; case 3
  4445  03BE  1903               	skipnz
  4446  03BF  2B29               	goto	i1l1549
  4447  03C0  3A07               	xorlw	7	; case 4
  4448  03C1  1903               	skipnz
  4449  03C2  2B33               	goto	i1l1551
  4450  03C3  3A01               	xorlw	1	; case 5
  4451  03C4  1903               	skipnz
  4452  03C5  2B3D               	goto	i1l1553
  4453  03C6  3A03               	xorlw	3	; case 6
  4454  03C7  1903               	skipnz
  4455  03C8  2B47               	goto	i1l1555
  4456  03C9  3A01               	xorlw	1	; case 7
  4457  03CA  1903               	skipnz
  4458  03CB  2B51               	goto	i1l1557
  4459  03CC  3A0F               	xorlw	15	; case 8
  4460  03CD  1903               	skipnz
  4461  03CE  2B5B               	goto	i1l1559
  4462  03CF  3A01               	xorlw	1	; case 9
  4463  03D0  1903               	skipnz
  4464  03D1  2B65               	goto	i1l1561
  4465  03D2  3A03               	xorlw	3	; case 10
  4466  03D3  1903               	skipnz
  4467  03D4  2B6F               	goto	i1l1563
  4468  03D5  3A01               	xorlw	1	; case 11
  4469  03D6  1903               	skipnz
  4470  03D7  2B79               	goto	i1l1565
  4471  03D8  3A07               	xorlw	7	; case 12
  4472  03D9  1903               	skipnz
  4473  03DA  2B83               	goto	i1l1567
  4474  03DB  3A01               	xorlw	1	; case 13
  4475  03DC  1903               	skipnz
  4476  03DD  2B8D               	goto	i1l1569
  4477  03DE  3A03               	xorlw	3	; case 14
  4478  03DF  1903               	skipnz
  4479  03E0  2B97               	goto	i1l1571
  4480  03E1  3A01               	xorlw	1	; case 15
  4481  03E2  1903               	skipnz
  4482  03E3  2BA1               	goto	i1l1573
  4483  03E4  2B0B               	goto	i1l1543
  4484  03E5                     i1l220:
  4485  03E5  0008               	return
  4486  03E6                     __end_of_tabla_hex:
  4487  007E                     btemp	set	126	;btemp
  4488  007E                     wtemp0	set	126
  4489                           
  4490                           	psect	config
  4491                           
  4492                           ;Config register CONFIG1 @ 0x2007
  4493                           ;	Oscillator Selection bits
  4494                           ;	FOSC = INTRC_NOCLKOUT, INTOSCIO oscillator: I/O function on RA6/OSC2/CLKOUT pin, I/O f
      +                          unction on RA7/OSC1/CLKIN
  4495                           ;	Watchdog Timer Enable bit
  4496                           ;	WDTE = OFF, WDT disabled and can be enabled by SWDTEN bit of the WDTCON register
  4497                           ;	Power-up Timer Enable bit
  4498                           ;	PWRTE = OFF, PWRT disabled
  4499                           ;	RE3/MCLR pin function select bit
  4500                           ;	MCLRE = OFF, RE3/MCLR pin function is digital input, MCLR internally tied to VDD
  4501                           ;	Code Protection bit
  4502                           ;	CP = OFF, Program memory code protection is disabled
  4503                           ;	Data Code Protection bit
  4504                           ;	CPD = OFF, Data memory code protection is disabled
  4505                           ;	Brown Out Reset Selection bits
  4506                           ;	BOREN = OFF, BOR disabled
  4507                           ;	Internal External Switchover bit
  4508                           ;	IESO = OFF, Internal/External Switchover mode is disabled
  4509                           ;	Fail-Safe Clock Monitor Enabled bit
  4510                           ;	FCMEN = OFF, Fail-Safe Clock Monitor is disabled
  4511                           ;	Low Voltage Programming Enable bit
  4512                           ;	LVP = OFF, RB3 pin has digital I/O, HV on MCLR must be used for programming
  4513                           ;	In-Circuit Debugger Mode bit
  4514                           ;	DEBUG = 0x1, unprogrammed default
  4515  2007                     	org	8199
  4516  2007  20D4               	dw	8404
  4517                           
  4518                           ;Config register CONFIG2 @ 0x2008
  4519                           ;	Brown-out Reset Selection bit
  4520                           ;	BOR4V = BOR40V, Brown-out Reset set to 4.0V
  4521                           ;	Flash Program Memory Self Write Enable bits
  4522                           ;	WRT = OFF, Write protection off
  4523  2008                     	org	8200
  4524  2008  3FFF               	dw	16383

Data Sizes:
    Strings     15
    Constant    0
    Data        0
    BSS         12
    Persistent  0
    Stack       0

Auto Spaces:
    Space          Size  Autos    Used
    COMMON           14     11      14
    BANK0            80     32      41
    BANK1            80      0       0
    BANK3            96      0       0
    BANK2            96      0       0

Pointer List with Targets:

    tabla_hex@port	PTR volatile unsigned char  size(2) Largest target is 1
		 -> TXREG(SFR0[1]), 

    Lcd_Write_String@a	PTR unsigned char  size(1) Largest target is 15
		 -> STR_1(CODE[15]), 


Critical Paths under _main in COMMON

    None.

Critical Paths under _isr in COMMON

    _isr->_envio
    _envio->_tabla_hex

Critical Paths under _main in BANK0

    _main->_mapeo
    _setup->_Lcd_Init
    _Lcd_Init->_Lcd_Cmd
    _mapeo->___lwdiv
    ___wmul->___awdiv
    ___lwdiv->___wmul
    ___bmul->___wmul
    _Lcd_Write_String->_Lcd_Write_Char
    _Lcd_Write_Char->_Lcd_Port
    _Lcd_Set_Cursor->_Lcd_Cmd
    _Lcd_Clear->_Lcd_Cmd
    _Lcd_Cmd->_Lcd_Port

Critical Paths under _isr in BANK0

    None.

Critical Paths under _main in BANK1

    None.

Critical Paths under _isr in BANK1

    None.

Critical Paths under _main in BANK3

    None.

Critical Paths under _isr in BANK3

    None.

Critical Paths under _main in BANK2

    None.

Critical Paths under _isr in BANK2

    None.

Call Graph Tables:

 ---------------------------------------------------------------------------------
 (Depth) Function   	        Calls       Base Space   Used Autos Params    Refs
 ---------------------------------------------------------------------------------
 (0) _main                                                 5     5      0    9033
                                             27 BANK0      5     5      0
                          _Lcd_Clear
                     _Lcd_Set_Cursor
                     _Lcd_Write_Char
                   _Lcd_Write_String
                              _TX_GO
                            ___awdiv
                             ___bmul
                             ___wmul
                     _envio_esclavos
                              _mapeo
                              _setup
 ---------------------------------------------------------------------------------
 (1) _setup                                                0     0      0     448
                           _Lcd_Init
                            _initOsc
                          _initUSART
                            _spiInit
 ---------------------------------------------------------------------------------
 (2) _spiInit                                              4     1      3     360
                                              0 BANK0      4     1      3
 ---------------------------------------------------------------------------------
 (2) _initUSART                                            0     0      0       0
 ---------------------------------------------------------------------------------
 (2) _initOsc                                              3     3      0      22
                                              0 BANK0      3     3      0
 ---------------------------------------------------------------------------------
 (2) _Lcd_Init                                             2     2      0      66
                                              3 BANK0      2     2      0
                            _Lcd_Cmd
                           _Lcd_Port
 ---------------------------------------------------------------------------------
 (1) _mapeo                                                6     6      0    3974
                                             21 BANK0      6     6      0
                            ___awdiv
                             ___bmul
                            ___lwdiv
                             ___wmul
 ---------------------------------------------------------------------------------
 (2) ___wmul                                               6     2      4    1004
                                              8 BANK0      6     2      4
                            ___awdiv (ARG)
 ---------------------------------------------------------------------------------
 (2) ___lwdiv                                              7     3      4     770
                                             14 BANK0      7     3      4
                             ___wmul (ARG)
 ---------------------------------------------------------------------------------
 (2) ___bmul                                               3     2      1     548
                                             14 BANK0      3     2      1
                            ___awdiv (ARG)
                             ___wmul (ARG)
 ---------------------------------------------------------------------------------
 (2) ___awdiv                                              8     4      4    1516
                                              0 BANK0      8     4      4
 ---------------------------------------------------------------------------------
 (1) _envio_esclavos                                       2     2      0       0
                                              0 BANK0      2     2      0
                            _spiRead
 ---------------------------------------------------------------------------------
 (2) _spiRead                                              0     0      0       0
                     _spiReceiveWait
 ---------------------------------------------------------------------------------
 (3) _spiReceiveWait                                       0     0      0       0
 ---------------------------------------------------------------------------------
 (1) _TX_GO                                                0     0      0       0
 ---------------------------------------------------------------------------------
 (1) _Lcd_Write_String                                     3     3      0     167
                                              2 BANK0      3     3      0
                     _Lcd_Write_Char
 ---------------------------------------------------------------------------------
 (2) _Lcd_Write_Char                                       1     1      0      44
                                              1 BANK0      1     1      0
                           _Lcd_Port
 ---------------------------------------------------------------------------------
 (1) _Lcd_Set_Cursor                                       3     2      1    1242
                                              3 BANK0      3     2      1
                            _Lcd_Cmd
 ---------------------------------------------------------------------------------
 (1) _Lcd_Clear                                            0     0      0      44
                            _Lcd_Cmd
 ---------------------------------------------------------------------------------
 (3) _Lcd_Cmd                                              2     2      0      44
                                              1 BANK0      2     2      0
                           _Lcd_Port
 ---------------------------------------------------------------------------------
 (3) _Lcd_Port                                             1     1      0      22
                                              0 BANK0      1     1      0
 ---------------------------------------------------------------------------------
 Estimated maximum stack depth 3
 ---------------------------------------------------------------------------------
 (Depth) Function   	        Calls       Base Space   Used Autos Params    Refs
 ---------------------------------------------------------------------------------
 (5) _isr                                                  4     4      0     852
                                              7 COMMON     4     4      0
                              _envio
 ---------------------------------------------------------------------------------
 (6) _envio                                                2     2      0     852
                                              5 COMMON     2     2      0
                          _tabla_hex
 ---------------------------------------------------------------------------------
 (7) _tabla_hex                                            5     3      2     852
                                              0 COMMON     5     3      2
 ---------------------------------------------------------------------------------
 Estimated maximum stack depth 7
 ---------------------------------------------------------------------------------

 Call Graph Graphs:

 _main (ROOT)
   _Lcd_Clear
     _Lcd_Cmd
       _Lcd_Port
   _Lcd_Set_Cursor
     _Lcd_Cmd
       _Lcd_Port
   _Lcd_Write_Char
     _Lcd_Port
   _Lcd_Write_String
     _Lcd_Write_Char
       _Lcd_Port
   _TX_GO
   ___awdiv
   ___bmul
     ___awdiv (ARG)
     ___wmul (ARG)
       ___awdiv (ARG)
   ___wmul
     ___awdiv (ARG)
   _envio_esclavos
     _spiRead
       _spiReceiveWait
   _mapeo
     ___awdiv
     ___bmul
       ___awdiv (ARG)
       ___wmul (ARG)
         ___awdiv (ARG)
     ___lwdiv
       ___wmul (ARG)
         ___awdiv (ARG)
     ___wmul
       ___awdiv (ARG)
   _setup
     _Lcd_Init
       _Lcd_Cmd
         _Lcd_Port
       _Lcd_Port
     _initOsc
     _initUSART
     _spiInit

 _isr (ROOT)
   _envio
     _tabla_hex

 Address spaces:
Name               Size   Autos  Total    Cost      Usage
BITCOMMON            E      0       0       0        0.0%
EEDATA             100      0       0       0        0.0%
NULL                 0      0       0       0        0.0%
CODE                 0      0       0       0        0.0%
COMMON               E      B       E       1      100.0%
BITSFR0              0      0       0       1        0.0%
SFR0                 0      0       0       1        0.0%
BITSFR1              0      0       0       2        0.0%
SFR1                 0      0       0       2        0.0%
STACK                0      0       0       2        0.0%
ABS                  0      0      37       3        0.0%
BITBANK0            50      0       0       4        0.0%
BITSFR3              0      0       0       4        0.0%
SFR3                 0      0       0       4        0.0%
BANK0               50     20      29       5       51.2%
BITSFR2              0      0       0       5        0.0%
SFR2                 0      0       0       5        0.0%
BITBANK1            50      0       0       6        0.0%
BANK1               50      0       0       7        0.0%
BITBANK3            60      0       0       8        0.0%
BANK3               60      0       0       9        0.0%
BITBANK2            60      0       0      10        0.0%
BANK2               60      0       0      11        0.0%
DATA                 0      0      37      12        0.0%


Microchip Technology PIC Macro Assembler V2.20 build 20200408173844 
Symbol Table                                                                                   Fri Feb 12 03:04:06 2021

                        pc 0002             ___bmul@product 002F                _SSPSTATbits 0094  
                       l11 07BE                         l14 0744                         l23 06ED  
                       l17 07B8                         l26 053E                         l50 054F  
                       l35 06A0                         l51 0555                         l52 055B  
                       l29 0797                         l53 0561                         l54 0567  
                       l55 056D                         l47 0543                         l56 0595  
                       l49 0549               ___awdiv@sign 0025                         fsr 0004  
      ___wmul@multiplicand 002A                        l233 0784                        l250 072B  
                      l172 07A1                        l180 0610                        l253 07AB  
                      l181 0631                        l256 07B1                        l168 05E4  
                      l177 05F2                        l353 06AF                        l249 0726  
                      l506 04E4                        l267 07AA                        l179 0603  
                      l355 06C7                        l198 0308                        l625 0677  
                      l379 075B                        _RE0 0048                        _RE2 004A  
                      u400 06C3                        u401 06C2                        u410 074D  
                      u411 074C                        u420 075A                        u421 0759  
                      u350 07B1                        u510 04D6                        u430 0483  
                      u351 07B0                        u511 04D5                        u431 0482  
                      u600 06D0                        u520 04DB                        u440 048E  
                      u360 071A                        u601 06CF                        u521 04DA  
                      u505 04CA                        u441 048D                        u361 0719  
                      u610 06E2                        u450 049F                        u530 063C  
                      u370 06A9                        u611 06E1                        u451 049E  
                      u531 063B                        u371 06A8                        u620 06A0  
                      u621 069F                        u470 04B1                        u550 064E  
                      u471 04B0                        u551 064D                        u465 04A3  
                      u545 0640                        u385 06B0                        u490 04C2  
                      u570 065F                        u491 04C1                        u571 065E  
                      u395 06B7                        u707 04FC                        u660 079E  
                      u661 079D                        u485 04B2                        u565 064F  
                      u717 050A                        u670 05EB                        u590 0673  
                      u671 05EA                        u495 04BE                        u591 0672  
                      u575 065B                        u727 0517                        u737 073D  
                      u585 0667                        u697 04E9                        _isr 06EE  
                      fsr0 0004                        indf 0000                       l2051 057B  
                     l2053 0626                       l1503 0573                       l1511 0771  
                     l1601 0749                       l1521 0782                       l1513 0779  
                     l1611 075A                       l1603 074D                       l1523 0783  
                     l1515 077D                       l1531 0720                       l1453 07BC  
                     l1461 0739                       l1701 067E                       l1621 0488  
                     l1605 0751                       l1517 077E                       l1533 0725  
                     l1525 0711                       l1463 0741                       l1455 072F  
                     l1703 068B                       l1535 07A2                       l1631 0499  
                     l1623 048A                       l1615 047C                       l1607 0753  
                     l1471 04F6                       l1519 077F                       l1527 071A  
                     l1457 0730                       l1705 0693                       l1465 07AB  
                     l1537 07A7                       l1641 04B1                       l1633 049F  
                     l1625 048E                       l1617 047F                       l1609 0755  
                     l1481 0526                       l1473 0506                       l1529 071E  
                     l1801 05DA                       l1459 0736                       l1491 0789  
                     l1643 04C2                       l1635 04A2                       l1651 04D6  
                     l1627 0493                       l1619 0483                       l1483 052C  
                     l1475 050D                       l1467 04E5                       l1811 05E1  
                     l1803 05DB                       l1493 078F                       l1813 0798  
                     l1821 05EC                       l1653 04DB                       l1645 04C8  
                     l1637 04A9                       l1629 0497                       l1661 0636  
                     l1485 0532                       l1477 051A                       l1469 04F0  
                     l1805 05DC                       l1901 0049                       l1495 0792  
                     l1815 079E                       l1831 05FC                       l1823 05EF  
                     l1655 04E0                       l1647 04C9                       l1639 04AD  
                     l1671 064E                       l1663 063C                       l1591 06B6  
                     l1487 0538                       l1479 0520                       l1807 05DD  
                     l1911 0072                       l1903 004E                       l1497 0794  
                     l1489 0788                       l1841 0612                       l1833 0604  
                     l1825 05F0                       l1817 05E5                       l1649 04D0  
                     l1673 065F                       l1665 063F                       l1681 0673  
                     l1593 06BD                       l1585 06A1                       l1809 05DE  
                     l1761 05A8                       l1753 0596                       l1921 00A2  
                     l1913 0078                       l1905 0053                       l1691 06D5  
                     l1843 061A                       l1835 0605                       l1827 05F3  
                     l1819 05EB                       l1675 0665                       l1667 0646  
                     l1659 0632                       l1595 06C3                       l1587 06A5  
                     l1499 0542                       l1771 05B3                       l1763 05A9  
                     l1755 059B                       l1931 00D5                       l1923 00AE  
                     l1915 0084                       l1907 005D                       l1685 07B2  
                     l1693 06DC                       l1829 05F4                       l1677 0666  
                     l1669 064A                       l1589 06A9                       l1861 0267  
                     l1853 0206                       l1781 05BE                       l1773 05B6  
                     l1765 05AC                       l1757 05A1                       l1941 0105  
                     l1933 00DB                       l1925 00B4                       l1917 008D  
                     l1909 0066                       l1695 06E2                       l1687 06CB  
                     l1839 0611                       l1847 061E                       l1599 0748  
                     l1679 066D                       l1863 0290                       l1855 020A  
                     l1791 05CB                       l1783 05C1                       l1775 05B9  
                     l1767 05AD                       l1759 05A5                       l1951 014A  
                     l1943 0111                       l1935 00E7                       l1927 00C0  
                     l1919 0099                       l1697 06E7                       l1689 06D0  
                     l1865 02AE                       l1857 022F                       l1793 05CC  
                     l1785 05C2                       l1777 05BA                       l1769 05B0  
                     l1953 0174                       l1945 0117                       l1937 00F0  
                     l1929 00C9                       l1699 067B                       l1867 02C1  
                     l1859 0254                       l1795 05CD                       l1787 05C3  
                     l1779 05BD                       l1955 018A                       l1947 0123  
                     l1939 00FC                       l1891 002C                       l1869 02EA  
                     l1797 05CE                       l1789 05C8                       l1957 0196  
                     l1949 013E                       l1893 0031                       l1799 05CF  
                     l1959 01C0                       l1895 003A                       l1897 0040  
                     l1889 0027                       l1899 0044                       ?_isr 0070  
                     STR_1 0762                       _TMR0 0001          ?_Lcd_Write_String 0070  
                     _main 0027                       btemp 007E                       start 0012  
       ??_Lcd_Write_String 0022            __end_of_Lcd_Cmd 0745          ___bmul@multiplier 0030  
                    ??_isr 0077              tabla_hex@port 0070                      ?_main 0070  
          __end_of___awdiv 04E5                      _ANSEL 0188            ___awdiv@divisor 0020  
          __end_of___lwdiv 0678                      i1l220 03E5                      i1l157 0702  
                    i1l195 047B            ___awdiv@counter 0024                      _SPBRG 0099  
                    _PORTA 0005                      _PORTB 0006                      _PORTC 0007  
                    _PORTD 0008                      _PORTE 0009                      u63_25 03EE  
                    u64_25 0417    __size_of_Lcd_Set_Cursor 0026                      _TRISA 0085  
                    _TRISB 0086                      u65_25 0437                      _TRISD 0088  
                    _TRISE 0089                      u68_20 06FA                      u68_21 06F9  
                    _TXREG 0019                      _TX_GO 0798            __end_of_initOsc 0596  
                    _mapeo 0206                      _envio 03E6                      _slave 0047  
                    _setup 0596                      pclath 000A            __end_of_spiInit 072C  
          __end_of_spiRead 07AB                      status 0003                      wtemp0 007E  
         __end_of_Lcd_Init 053F           __end_of_Lcd_Port 07BF            __initialization 0015  
             __end_of_main 0206                     ??_main 003B         __size_of_Lcd_Clear 0007  
                   ?_TX_GO 0070                     ?_mapeo 0070                     ?_envio 0070  
         ___awdiv@dividend 0022                     ?_setup 0070                     _ANSELH 0189  
                   i1l2055 045E                     i1l2057 03B3                     i1l1541 030A  
                   i1l1551 0333                     i1l1543 030B                     i1l1711 03FA  
                   i1l1561 0365                     i1l1553 033D                     i1l1545 0315  
                   i1l1721 0410                     i1l1713 0401                     i1l1571 0397  
                   i1l1563 036F                     i1l1555 0347                     i1l1547 031F  
                   i1l1707 03E6                     i1l1573 03A1                     i1l1565 0379  
                   i1l1557 0351                     i1l1549 0329                     i1l1741 0450  
                   i1l1733 0430                     i1l1725 0424                     i1l1717 040D  
                   i1l1709 03E7                     i1l1567 0383                     i1l1559 035B  
                   i1l1743 0452                     i1l1569 038D                     i1l1737 0444  
                   i1l1579 03AB                     i1l1747 0454                     i1l1881 06F5  
                   i1l1883 06F6                     i1l1875 06EE                     i1l1885 06FA  
                   i1l1877 06EF                     i1l1887 06FF                     i1l1879 06F1  
                ??_Lcd_Cmd 0021                     _SPBRGH 009A    __size_of_Lcd_Write_Char 0013  
                   _TRISC3 043B                     _TRISC5 043D                     _SSPBUF 0013  
                   _SSPCON 0014                     ___bmul 0745                     ___wmul 06A1  
                ??___awdiv 0024                  ??___lwdiv 0032           ___awdiv@quotient 0026  
  __size_of_envio_esclavos 004D                  ??_initOsc 0020                     saved_w 007E  
                ??_spiInit 0023                  ??_spiRead 0020            Lcd_Set_Cursor@a 0024  
          Lcd_Set_Cursor@b 0023    __end_of__initialization 0023          __end_of_Lcd_Clear 07B9  
      ___bmul@multiplicand 002E              __end_of_TX_GO 07A2             __pcstackCOMMON 0070  
            __end_of_mapeo 0309              __end_of_envio 047C              __end_of_setup 05E5  
           _Lcd_Set_Cursor 06C8                    ??_TX_GO 0020                  ?_Lcd_Init 0070  
                ?_Lcd_Port 0070                    ??_mapeo 0035                    ??_envio 0075  
                  ??_setup 0025          tabla_hex@selector 0074                 __pbssBANK0 0040  
       __size_of_initUSART 0014         __size_of_tabla_hex 00DD                 __pmaintext 0027  
                  ?___bmul 002E                 _centenasp1 0043                 _centenasp2 0040  
                  ?___wmul 0028                 __pintentry 0004    __size_of_spiReceiveWait 0007  
__size_of_Lcd_Write_String 0029     __end_of_Lcd_Set_Cursor 06EE                 ??_Lcd_Init 0023  
               ??_Lcd_Port 0020                    _SSPSTAT 0094                 __stringtab 075C  
           _Lcd_Write_Char 0785                    _Lcd_Cmd 072C            __size_of___bmul 0017  
                  ___awdiv 047C            __size_of___wmul 0027                    ___lwdiv 0632  
           _envio_esclavos 05E5            ?_Lcd_Set_Cursor 0023          __end_of_initUSART 0785  
                  __ptext1 0596                    __ptext2 070E                    __ptext3 0771  
                  __ptext4 053F                    __ptext5 04E5                    __ptext6 0206  
                  __ptext7 06A1                    __ptext8 0632                    __ptext9 0745  
                  _initOsc 053F               __size_of_isr 0020          __end_of_tabla_hex 03E6  
                  _spiInit 070E                    _spiRead 07A2     __end_of_Lcd_Write_Char 0798  
     end_of_initialization 0023                  _RCSTAbits 0018     __end_of_envio_esclavos 0632  
                Lcd_Port@a 0020                  _PORTCbits 0007                 _unidadesp1 0045  
               _unidadesp2 0042                  _TRISCbits 0087            ?_Lcd_Write_Char 0070  
        Lcd_Write_String@a 0024          Lcd_Write_String@i 0022                  _TXSTAbits 0098  
                _Lcd_Clear 07B2            ?_envio_esclavos 0070             _spiReceiveWait 07AB  
           __end_of___bmul 075C             __end_of___wmul 06C8                 mapeo@TEMP1 0037  
               mapeo@TEMP2 0039           _Lcd_Write_String 0678                _BAUDCTLbits 0187  
      start_initialization 0015                __end_of_isr 070E          __size_of_Lcd_Init 005A  
        __size_of_Lcd_Port 0006     __end_of_spiReceiveWait 07B2                 ?_Lcd_Clear 0070  
                 ??___bmul 002F                   ??___wmul 002C            Lcd_Write_Char@a 0021  
              __pbssCOMMON 007B                  ___latbits 0002              __pcstackBANK0 0020  
                 ?_Lcd_Cmd 0070                  _decenasp1 0044                  _decenasp2 0041  
                _main$1223 003E           ___lwdiv@dividend 0030            ?_spiReceiveWait 0070  
         ??_Lcd_Set_Cursor 0024                   ?___awdiv 0020                   ?___lwdiv 002E  
                __pstrings 075C                   ?_initOsc 0070                  _controles 007D  
           __size_of_TX_GO 000A                  _initUSART 0771                   ?_spiInit 0020  
                 ?_spiRead 0070           ___lwdiv@quotient 0032             __size_of_mapeo 0103  
           __size_of_envio 0096             __size_of_setup 004F                  _tabla_hex 0309  
     spiInit@sTransmitEdge 0022          interrupt_function 0004             ___wmul@product 002C  
                 _PIE1bits 008C         spiInit@sDataSample 0020                   Lcd_Cmd@a 0022  
                 _PIR1bits 000C                  _var_envio 0046                ??_Lcd_Clear 0023  
            initOsc@option 0022                __stringbase 0761          ___wmul@multiplier 0028  
         ??_Lcd_Write_Char 0021                 ?_initUSART 0070                   _Lcd_Init 04E5  
                 _Lcd_Port 07B9                 ?_tabla_hex 0070   __end_of_Lcd_Write_String 06A1  
         __size_of_Lcd_Cmd 0019           ??_envio_esclavos 0020           __size_of___awdiv 0069  
         __size_of___lwdiv 0046         __end_of__stringtab 0762           __size_of_initOsc 0057  
          ___lwdiv@divisor 002E            ___lwdiv@counter 0034                   __ptext10 047C  
                 __ptext11 05E5                   __ptext20 07B9                   __ptext12 07A2  
                 __ptext21 06EE                   __ptext13 07AB                   __ptext22 03E6  
                 __ptext14 0798                   __ptext23 0309                   __ptext15 0678  
                 __ptext16 0785                   __ptext17 06C8                   __ptext18 07B2  
                 __ptext19 072C           __size_of_spiInit 001E           __size_of_spiRead 0009  
                 _esclavo1 007C                   _esclavo2 0048                   _esclavo3 007B  
            __size_of_main 01DF               spiInit@sType 0023          spiInit@sClockIdle 0021  
               _INTCONbits 000B                ??_initUSART 0020                   intlevel1 0000  
              ??_tabla_hex 0072           ??_spiReceiveWait 0020                  stringcode 075C  
               _OSCCONbits 008F         Lcd_Set_Cursor@temp 0025                 _OPTION_REG 0081  
                 stringdir 075C                   stringtab 075C  
