

Microchip MPLAB XC8 Assembler V2.20 build 20200408173844 
                                                                                               Thu Feb 11 23:55:54 2021

Microchip MPLAB XC8 C Compiler v2.20 (Free license) build 20200408173844 Og1 
     1                           	processor	16F887
     2                           	pagewidth 120
     3                           	opt	flic
     4                           	psect	strings,global,class=STRING,delta=2,noexec
     5                           	psect	cinit,global,class=CODE,merge=1,delta=2
     6                           	psect	bssCOMMON,global,class=COMMON,space=1,delta=1,noexec
     7                           	psect	bssBANK0,global,class=BANK0,space=1,delta=1,noexec
     8                           	psect	cstackCOMMON,global,class=COMMON,space=1,delta=1,noexec
     9                           	psect	cstackBANK0,global,class=BANK0,space=1,delta=1,noexec
    10                           	psect	maintext,global,class=CODE,split=1,delta=2
    11                           	psect	text1,local,class=CODE,merge=1,delta=2
    12                           	psect	text2,local,class=CODE,merge=1,delta=2
    13                           	psect	text3,local,class=CODE,merge=1,delta=2
    14                           	psect	text4,local,class=CODE,merge=1,delta=2
    15                           	psect	text5,local,class=CODE,merge=1,delta=2
    16                           	psect	text6,local,class=CODE,merge=1,delta=2
    17                           	psect	text7,local,class=CODE,merge=1,delta=2,group=1
    18                           	psect	text8,local,class=CODE,merge=1,delta=2,group=1
    19                           	psect	text9,local,class=CODE,merge=1,delta=2,group=1
    20                           	psect	text10,local,class=CODE,merge=1,delta=2,group=1
    21                           	psect	text11,local,class=CODE,merge=1,delta=2
    22                           	psect	text12,local,class=CODE,merge=1,delta=2
    23                           	psect	text13,local,class=CODE,merge=1,delta=2
    24                           	psect	text14,local,class=CODE,merge=1,delta=2
    25                           	psect	text15,local,class=CODE,merge=1,delta=2
    26                           	psect	text16,local,class=CODE,merge=1,delta=2
    27                           	psect	text17,local,class=CODE,merge=1,delta=2
    28                           	psect	text18,local,class=CODE,merge=1,delta=2
    29                           	psect	text19,local,class=CODE,merge=1,delta=2
    30                           	psect	intentry,global,class=CODE,delta=2
    31                           	psect	text20,local,class=CODE,merge=1,delta=2
    32                           	psect	text21,local,class=CODE,merge=1,delta=2
    33                           	psect	config,global,abs,ovrld,class=CONFIG,space=4,delta=2,noexec
    34                           	dabs	1,0x7E,2
    35  0000                     
    36                           ; Version 2.20
    37                           ; Generated 09/04/2020 GMT
    38                           ; 
    39                           ; Copyright © 2020, Microchip Technology Inc. and its subsidiaries ("Microchip")
    40                           ; All rights reserved.
    41                           ; 
    42                           ; This software is developed by Microchip Technology Inc. and its subsidiaries ("Microch
      +                          ip").
    43                           ; 
    44                           ; Redistribution and use in source and binary forms, with or without modification, are
    45                           ; permitted provided that the following conditions are met:
    46                           ; 
    47                           ;     1. Redistributions of source code must retain the above copyright notice, this lis
      +                          t of
    48                           ;        conditions and the following disclaimer.
    49                           ; 
    50                           ;     2. Redistributions in binary form must reproduce the above copyright notice, this 
      +                          list
    51                           ;        of conditions and the following disclaimer in the documentation and/or other
    52                           ;        materials provided with the distribution.
    53                           ; 
    54                           ;     3. Microchip's name may not be used to endorse or promote products derived from th
      +                          is
    55                           ;        software without specific prior written permission.
    56                           ; 
    57                           ; THIS SOFTWARE IS PROVIDED BY MICROCHIP "AS IS" AND ANY EXPRESS OR IMPLIED WARRANTIES,
    58                           ; INCLUDING, BUT NOT LIMITED TO, THE IMPLIED WARRANTIES OF MERCHANTABILITY AND FITNESS F
      +                          OR
    59                           ; PURPOSE ARE DISCLAIMED.  IN NO EVENT SHALL MICROCHIP BE LIABLE FOR ANY DIRECT, INDIREC
      +                          T,
    60                           ; INCIDENTAL, SPECIAL, EXEMPLARY, OR CONSEQUENTIAL DAMAGES (INCLUDING BUT NOT LIMITED TO
    61                           ; PROCUREMENT OF SUBSTITUTE GOODS OR SERVICES; LOSS OF USE, DATA OR PROFITS; OR BUSINESS
    62                           ; INTERRUPTION) HOWSOEVER CAUSED AND ON ANY THEORY OF LIABILITY, WHETHER IN CONTRACT, ST
      +                          RICT
    63                           ; LIABILITY, OR TORT (INCLUDING NEGLIGENCE OR OTHERWISE) ARISING IN ANY WAY OUT OF THE U
      +                          SE OF
    64                           ; THIS SOFTWARE, EVEN IF ADVISED OF THE POSSIBILITY OF SUCH DAMAGE.
    65                           ; 
    66                           ; 
    67                           ; Code-generator required, PIC16F887 Definitions
    68                           ; 
    69                           ; SFR Addresses
    70  0000                     	;# 
    71  0001                     	;# 
    72  0002                     	;# 
    73  0003                     	;# 
    74  0004                     	;# 
    75  0005                     	;# 
    76  0006                     	;# 
    77  0007                     	;# 
    78  0008                     	;# 
    79  0009                     	;# 
    80  000A                     	;# 
    81  000B                     	;# 
    82  000C                     	;# 
    83  000D                     	;# 
    84  000E                     	;# 
    85  000E                     	;# 
    86  000F                     	;# 
    87  0010                     	;# 
    88  0011                     	;# 
    89  0012                     	;# 
    90  0013                     	;# 
    91  0014                     	;# 
    92  0015                     	;# 
    93  0015                     	;# 
    94  0016                     	;# 
    95  0017                     	;# 
    96  0018                     	;# 
    97  0019                     	;# 
    98  001A                     	;# 
    99  001B                     	;# 
   100  001B                     	;# 
   101  001C                     	;# 
   102  001D                     	;# 
   103  001E                     	;# 
   104  001F                     	;# 
   105  0081                     	;# 
   106  0085                     	;# 
   107  0086                     	;# 
   108  0087                     	;# 
   109  0088                     	;# 
   110  0089                     	;# 
   111  008C                     	;# 
   112  008D                     	;# 
   113  008E                     	;# 
   114  008F                     	;# 
   115  0090                     	;# 
   116  0091                     	;# 
   117  0092                     	;# 
   118  0093                     	;# 
   119  0093                     	;# 
   120  0093                     	;# 
   121  0094                     	;# 
   122  0095                     	;# 
   123  0096                     	;# 
   124  0097                     	;# 
   125  0098                     	;# 
   126  0099                     	;# 
   127  009A                     	;# 
   128  009B                     	;# 
   129  009C                     	;# 
   130  009D                     	;# 
   131  009E                     	;# 
   132  009F                     	;# 
   133  0105                     	;# 
   134  0107                     	;# 
   135  0108                     	;# 
   136  0109                     	;# 
   137  010C                     	;# 
   138  010C                     	;# 
   139  010D                     	;# 
   140  010E                     	;# 
   141  010F                     	;# 
   142  0185                     	;# 
   143  0187                     	;# 
   144  0188                     	;# 
   145  0189                     	;# 
   146  018C                     	;# 
   147  018D                     	;# 
   148  0000                     	;# 
   149  0001                     	;# 
   150  0002                     	;# 
   151  0003                     	;# 
   152  0004                     	;# 
   153  0005                     	;# 
   154  0006                     	;# 
   155  0007                     	;# 
   156  0008                     	;# 
   157  0009                     	;# 
   158  000A                     	;# 
   159  000B                     	;# 
   160  000C                     	;# 
   161  000D                     	;# 
   162  000E                     	;# 
   163  000E                     	;# 
   164  000F                     	;# 
   165  0010                     	;# 
   166  0011                     	;# 
   167  0012                     	;# 
   168  0013                     	;# 
   169  0014                     	;# 
   170  0015                     	;# 
   171  0015                     	;# 
   172  0016                     	;# 
   173  0017                     	;# 
   174  0018                     	;# 
   175  0019                     	;# 
   176  001A                     	;# 
   177  001B                     	;# 
   178  001B                     	;# 
   179  001C                     	;# 
   180  001D                     	;# 
   181  001E                     	;# 
   182  001F                     	;# 
   183  0081                     	;# 
   184  0085                     	;# 
   185  0086                     	;# 
   186  0087                     	;# 
   187  0088                     	;# 
   188  0089                     	;# 
   189  008C                     	;# 
   190  008D                     	;# 
   191  008E                     	;# 
   192  008F                     	;# 
   193  0090                     	;# 
   194  0091                     	;# 
   195  0092                     	;# 
   196  0093                     	;# 
   197  0093                     	;# 
   198  0093                     	;# 
   199  0094                     	;# 
   200  0095                     	;# 
   201  0096                     	;# 
   202  0097                     	;# 
   203  0098                     	;# 
   204  0099                     	;# 
   205  009A                     	;# 
   206  009B                     	;# 
   207  009C                     	;# 
   208  009D                     	;# 
   209  009E                     	;# 
   210  009F                     	;# 
   211  0105                     	;# 
   212  0107                     	;# 
   213  0108                     	;# 
   214  0109                     	;# 
   215  010C                     	;# 
   216  010C                     	;# 
   217  010D                     	;# 
   218  010E                     	;# 
   219  010F                     	;# 
   220  0185                     	;# 
   221  0187                     	;# 
   222  0188                     	;# 
   223  0189                     	;# 
   224  018C                     	;# 
   225  018D                     	;# 
   226  0000                     	;# 
   227  0001                     	;# 
   228  0002                     	;# 
   229  0003                     	;# 
   230  0004                     	;# 
   231  0005                     	;# 
   232  0006                     	;# 
   233  0007                     	;# 
   234  0008                     	;# 
   235  0009                     	;# 
   236  000A                     	;# 
   237  000B                     	;# 
   238  000C                     	;# 
   239  000D                     	;# 
   240  000E                     	;# 
   241  000E                     	;# 
   242  000F                     	;# 
   243  0010                     	;# 
   244  0011                     	;# 
   245  0012                     	;# 
   246  0013                     	;# 
   247  0014                     	;# 
   248  0015                     	;# 
   249  0015                     	;# 
   250  0016                     	;# 
   251  0017                     	;# 
   252  0018                     	;# 
   253  0019                     	;# 
   254  001A                     	;# 
   255  001B                     	;# 
   256  001B                     	;# 
   257  001C                     	;# 
   258  001D                     	;# 
   259  001E                     	;# 
   260  001F                     	;# 
   261  0081                     	;# 
   262  0085                     	;# 
   263  0086                     	;# 
   264  0087                     	;# 
   265  0088                     	;# 
   266  0089                     	;# 
   267  008C                     	;# 
   268  008D                     	;# 
   269  008E                     	;# 
   270  008F                     	;# 
   271  0090                     	;# 
   272  0091                     	;# 
   273  0092                     	;# 
   274  0093                     	;# 
   275  0093                     	;# 
   276  0093                     	;# 
   277  0094                     	;# 
   278  0095                     	;# 
   279  0096                     	;# 
   280  0097                     	;# 
   281  0098                     	;# 
   282  0099                     	;# 
   283  009A                     	;# 
   284  009B                     	;# 
   285  009C                     	;# 
   286  009D                     	;# 
   287  009E                     	;# 
   288  009F                     	;# 
   289  0105                     	;# 
   290  0107                     	;# 
   291  0108                     	;# 
   292  0109                     	;# 
   293  010C                     	;# 
   294  010C                     	;# 
   295  010D                     	;# 
   296  010E                     	;# 
   297  010F                     	;# 
   298  0185                     	;# 
   299  0187                     	;# 
   300  0188                     	;# 
   301  0189                     	;# 
   302  018C                     	;# 
   303  018D                     	;# 
   304  0000                     	;# 
   305  0001                     	;# 
   306  0002                     	;# 
   307  0003                     	;# 
   308  0004                     	;# 
   309  0005                     	;# 
   310  0006                     	;# 
   311  0007                     	;# 
   312  0008                     	;# 
   313  0009                     	;# 
   314  000A                     	;# 
   315  000B                     	;# 
   316  000C                     	;# 
   317  000D                     	;# 
   318  000E                     	;# 
   319  000E                     	;# 
   320  000F                     	;# 
   321  0010                     	;# 
   322  0011                     	;# 
   323  0012                     	;# 
   324  0013                     	;# 
   325  0014                     	;# 
   326  0015                     	;# 
   327  0015                     	;# 
   328  0016                     	;# 
   329  0017                     	;# 
   330  0018                     	;# 
   331  0019                     	;# 
   332  001A                     	;# 
   333  001B                     	;# 
   334  001B                     	;# 
   335  001C                     	;# 
   336  001D                     	;# 
   337  001E                     	;# 
   338  001F                     	;# 
   339  0081                     	;# 
   340  0085                     	;# 
   341  0086                     	;# 
   342  0087                     	;# 
   343  0088                     	;# 
   344  0089                     	;# 
   345  008C                     	;# 
   346  008D                     	;# 
   347  008E                     	;# 
   348  008F                     	;# 
   349  0090                     	;# 
   350  0091                     	;# 
   351  0092                     	;# 
   352  0093                     	;# 
   353  0093                     	;# 
   354  0093                     	;# 
   355  0094                     	;# 
   356  0095                     	;# 
   357  0096                     	;# 
   358  0097                     	;# 
   359  0098                     	;# 
   360  0099                     	;# 
   361  009A                     	;# 
   362  009B                     	;# 
   363  009C                     	;# 
   364  009D                     	;# 
   365  009E                     	;# 
   366  009F                     	;# 
   367  0105                     	;# 
   368  0107                     	;# 
   369  0108                     	;# 
   370  0109                     	;# 
   371  010C                     	;# 
   372  010C                     	;# 
   373  010D                     	;# 
   374  010E                     	;# 
   375  010F                     	;# 
   376  0185                     	;# 
   377  0187                     	;# 
   378  0188                     	;# 
   379  0189                     	;# 
   380  018C                     	;# 
   381  018D                     	;# 
   382  0000                     	;# 
   383  0001                     	;# 
   384  0002                     	;# 
   385  0003                     	;# 
   386  0004                     	;# 
   387  0005                     	;# 
   388  0006                     	;# 
   389  0007                     	;# 
   390  0008                     	;# 
   391  0009                     	;# 
   392  000A                     	;# 
   393  000B                     	;# 
   394  000C                     	;# 
   395  000D                     	;# 
   396  000E                     	;# 
   397  000E                     	;# 
   398  000F                     	;# 
   399  0010                     	;# 
   400  0011                     	;# 
   401  0012                     	;# 
   402  0013                     	;# 
   403  0014                     	;# 
   404  0015                     	;# 
   405  0015                     	;# 
   406  0016                     	;# 
   407  0017                     	;# 
   408  0018                     	;# 
   409  0019                     	;# 
   410  001A                     	;# 
   411  001B                     	;# 
   412  001B                     	;# 
   413  001C                     	;# 
   414  001D                     	;# 
   415  001E                     	;# 
   416  001F                     	;# 
   417  0081                     	;# 
   418  0085                     	;# 
   419  0086                     	;# 
   420  0087                     	;# 
   421  0088                     	;# 
   422  0089                     	;# 
   423  008C                     	;# 
   424  008D                     	;# 
   425  008E                     	;# 
   426  008F                     	;# 
   427  0090                     	;# 
   428  0091                     	;# 
   429  0092                     	;# 
   430  0093                     	;# 
   431  0093                     	;# 
   432  0093                     	;# 
   433  0094                     	;# 
   434  0095                     	;# 
   435  0096                     	;# 
   436  0097                     	;# 
   437  0098                     	;# 
   438  0099                     	;# 
   439  009A                     	;# 
   440  009B                     	;# 
   441  009C                     	;# 
   442  009D                     	;# 
   443  009E                     	;# 
   444  009F                     	;# 
   445  0105                     	;# 
   446  0107                     	;# 
   447  0108                     	;# 
   448  0109                     	;# 
   449  010C                     	;# 
   450  010C                     	;# 
   451  010D                     	;# 
   452  010E                     	;# 
   453  010F                     	;# 
   454  0185                     	;# 
   455  0187                     	;# 
   456  0188                     	;# 
   457  0189                     	;# 
   458  018C                     	;# 
   459  018D                     	;# 
   460  0000                     	;# 
   461  0001                     	;# 
   462  0002                     	;# 
   463  0003                     	;# 
   464  0004                     	;# 
   465  0005                     	;# 
   466  0006                     	;# 
   467  0007                     	;# 
   468  0008                     	;# 
   469  0009                     	;# 
   470  000A                     	;# 
   471  000B                     	;# 
   472  000C                     	;# 
   473  000D                     	;# 
   474  000E                     	;# 
   475  000E                     	;# 
   476  000F                     	;# 
   477  0010                     	;# 
   478  0011                     	;# 
   479  0012                     	;# 
   480  0013                     	;# 
   481  0014                     	;# 
   482  0015                     	;# 
   483  0015                     	;# 
   484  0016                     	;# 
   485  0017                     	;# 
   486  0018                     	;# 
   487  0019                     	;# 
   488  001A                     	;# 
   489  001B                     	;# 
   490  001B                     	;# 
   491  001C                     	;# 
   492  001D                     	;# 
   493  001E                     	;# 
   494  001F                     	;# 
   495  0081                     	;# 
   496  0085                     	;# 
   497  0086                     	;# 
   498  0087                     	;# 
   499  0088                     	;# 
   500  0089                     	;# 
   501  008C                     	;# 
   502  008D                     	;# 
   503  008E                     	;# 
   504  008F                     	;# 
   505  0090                     	;# 
   506  0091                     	;# 
   507  0092                     	;# 
   508  0093                     	;# 
   509  0093                     	;# 
   510  0093                     	;# 
   511  0094                     	;# 
   512  0095                     	;# 
   513  0096                     	;# 
   514  0097                     	;# 
   515  0098                     	;# 
   516  0099                     	;# 
   517  009A                     	;# 
   518  009B                     	;# 
   519  009C                     	;# 
   520  009D                     	;# 
   521  009E                     	;# 
   522  009F                     	;# 
   523  0105                     	;# 
   524  0107                     	;# 
   525  0108                     	;# 
   526  0109                     	;# 
   527  010C                     	;# 
   528  010C                     	;# 
   529  010D                     	;# 
   530  010E                     	;# 
   531  010F                     	;# 
   532  0185                     	;# 
   533  0187                     	;# 
   534  0188                     	;# 
   535  0189                     	;# 
   536  018C                     	;# 
   537  018D                     	;# 
   538  0000                     	;# 
   539  0001                     	;# 
   540  0002                     	;# 
   541  0003                     	;# 
   542  0004                     	;# 
   543  0005                     	;# 
   544  0006                     	;# 
   545  0007                     	;# 
   546  0008                     	;# 
   547  0009                     	;# 
   548  000A                     	;# 
   549  000B                     	;# 
   550  000C                     	;# 
   551  000D                     	;# 
   552  000E                     	;# 
   553  000E                     	;# 
   554  000F                     	;# 
   555  0010                     	;# 
   556  0011                     	;# 
   557  0012                     	;# 
   558  0013                     	;# 
   559  0014                     	;# 
   560  0015                     	;# 
   561  0015                     	;# 
   562  0016                     	;# 
   563  0017                     	;# 
   564  0018                     	;# 
   565  0019                     	;# 
   566  001A                     	;# 
   567  001B                     	;# 
   568  001B                     	;# 
   569  001C                     	;# 
   570  001D                     	;# 
   571  001E                     	;# 
   572  001F                     	;# 
   573  0081                     	;# 
   574  0085                     	;# 
   575  0086                     	;# 
   576  0087                     	;# 
   577  0088                     	;# 
   578  0089                     	;# 
   579  008C                     	;# 
   580  008D                     	;# 
   581  008E                     	;# 
   582  008F                     	;# 
   583  0090                     	;# 
   584  0091                     	;# 
   585  0092                     	;# 
   586  0093                     	;# 
   587  0093                     	;# 
   588  0093                     	;# 
   589  0094                     	;# 
   590  0095                     	;# 
   591  0096                     	;# 
   592  0097                     	;# 
   593  0098                     	;# 
   594  0099                     	;# 
   595  009A                     	;# 
   596  009B                     	;# 
   597  009C                     	;# 
   598  009D                     	;# 
   599  009E                     	;# 
   600  009F                     	;# 
   601  0105                     	;# 
   602  0107                     	;# 
   603  0108                     	;# 
   604  0109                     	;# 
   605  010C                     	;# 
   606  010C                     	;# 
   607  010D                     	;# 
   608  010E                     	;# 
   609  010F                     	;# 
   610  0185                     	;# 
   611  0187                     	;# 
   612  0188                     	;# 
   613  0189                     	;# 
   614  018C                     	;# 
   615  018D                     	;# 
   616  0018                     _RCSTAbits	set	24
   617  0013                     _SSPBUF	set	19
   618  0007                     _PORTCbits	set	7
   619  0009                     _PORTE	set	9
   620  0006                     _PORTB	set	6
   621  0008                     _PORTD	set	8
   622  0007                     _PORTC	set	7
   623  000C                     _PIR1bits	set	12
   624  0001                     _TMR0	set	1
   625  000B                     _INTCONbits	set	11
   626  0014                     _SSPCONbits	set	20
   627  0005                     _PORTA	set	5
   628  0019                     _TXREG	set	25
   629  004A                     _RE2	set	74
   630  0048                     _RE0	set	72
   631  009A                     _SPBRGH	set	154
   632  0099                     _SPBRG	set	153
   633  0098                     _TXSTAbits	set	152
   634  0087                     _TRISCbits	set	135
   635  0086                     _TRISB	set	134
   636  0085                     _TRISA	set	133
   637  0089                     _TRISE	set	137
   638  0088                     _TRISD	set	136
   639  0087                     _TRISC	set	135
   640  0081                     _OPTION_REG	set	129
   641  008C                     _PIE1bits	set	140
   642  008F                     _OSCCONbits	set	143
   643  0094                     _SSPSTATbits	set	148
   644  0187                     _BAUDCTLbits	set	391
   645  0189                     _ANSELH	set	393
   646  0188                     _ANSEL	set	392
   647                           
   648                           	psect	strings
   649  0748                     __pstrings:
   650  0748                     stringtab:
   651  0748                     __stringtab:
   652  0748                     stringcode:	
   653                           ;	String table - string pointers are 1 byte each
   654                           
   655  0748                     stringdir:
   656  0748  3007               	movlw	high stringdir
   657  0749  008A               	movwf	10
   658  074A  0804               	movf	4,w
   659  074B  0A84               	incf	4,f
   660  074C  0782               	addwf	2,f
   661  074D                     __stringbase:
   662  074D  3400               	retlw	0
   663  074E                     __end_of__stringtab:
   664  074E                     STR_1:
   665  074E  3450               	retlw	80	;'P'
   666  074F  344F               	retlw	79	;'O'
   667  0750  3454               	retlw	84	;'T'
   668  0751  3431               	retlw	49	;'1'
   669  0752  3420               	retlw	32	;' '
   670  0753  3443               	retlw	67	;'C'
   671  0754  344F               	retlw	79	;'O'
   672  0755  344E               	retlw	78	;'N'
   673  0756  3454               	retlw	84	;'T'
   674  0757  3420               	retlw	32	;' '
   675  0758  344C               	retlw	76	;'L'
   676  0759  344D               	retlw	77	;'M'
   677  075A  3433               	retlw	51	;'3'
   678  075B  3435               	retlw	53	;'5'
   679  075C  3400               	retlw	0
   680                           
   681                           	psect	cinit
   682  0015                     start_initialization:	
   683                           ; #config settings
   684                           
   685  0015                     __initialization:
   686                           
   687                           ; Clear objects allocated to COMMON
   688  0015  01FB               	clrf	__pbssCOMMON& (0+127)
   689  0016  01FC               	clrf	(__pbssCOMMON+1)& (0+127)
   690  0017  01FD               	clrf	(__pbssCOMMON+2)& (0+127)
   691                           
   692                           ; Clear objects allocated to BANK0
   693  0018  1283               	bcf	3,5	;RP0=0, select bank0
   694  0019  1303               	bcf	3,6	;RP1=0, select bank0
   695  001A  01BF               	clrf	__pbssBANK0& (0+127)
   696  001B  01C0               	clrf	(__pbssBANK0+1)& (0+127)
   697  001C  01C1               	clrf	(__pbssBANK0+2)& (0+127)
   698  001D  01C2               	clrf	(__pbssBANK0+3)& (0+127)
   699  001E  01C3               	clrf	(__pbssBANK0+4)& (0+127)
   700  001F  01C4               	clrf	(__pbssBANK0+5)& (0+127)
   701  0020  01C5               	clrf	(__pbssBANK0+6)& (0+127)
   702  0021  01C6               	clrf	(__pbssBANK0+7)& (0+127)
   703  0022  01C7               	clrf	(__pbssBANK0+8)& (0+127)
   704  0023                     end_of_initialization:	
   705                           ;End of C runtime variable initialization code
   706                           
   707  0023                     __end_of__initialization:
   708  0023  0183               	clrf	3
   709  0024  120A  118A  2827   	ljmp	_main	;jump to C main() function
   710                           
   711                           	psect	bssCOMMON
   712  007B                     __pbssCOMMON:
   713  007B                     _esclavo3:
   714  007B                     	ds	1
   715  007C                     _esclavo1:
   716  007C                     	ds	1
   717  007D                     _controles:
   718  007D                     	ds	1
   719                           
   720                           	psect	bssBANK0
   721  003F                     __pbssBANK0:
   722  003F                     _centenasp2:
   723  003F                     	ds	1
   724  0040                     _decenasp2:
   725  0040                     	ds	1
   726  0041                     _unidadesp2:
   727  0041                     	ds	1
   728  0042                     _centenasp1:
   729  0042                     	ds	1
   730  0043                     _decenasp1:
   731  0043                     	ds	1
   732  0044                     _unidadesp1:
   733  0044                     	ds	1
   734  0045                     _var_envio:
   735  0045                     	ds	1
   736  0046                     _slave:
   737  0046                     	ds	1
   738  0047                     _esclavo2:
   739  0047                     	ds	1
   740                           
   741                           	psect	cstackCOMMON
   742  0070                     __pcstackCOMMON:
   743  0070                     ?_envio:
   744  0070                     ?_setup:	
   745                           ; 1 bytes @ 0x0
   746                           
   747  0070                     ?_TX_GO:	
   748                           ; 1 bytes @ 0x0
   749                           
   750  0070                     ?_envio_esclavos:	
   751                           ; 1 bytes @ 0x0
   752                           
   753  0070                     ?_mapeo:	
   754                           ; 1 bytes @ 0x0
   755                           
   756  0070                     ?_initUSART:	
   757                           ; 1 bytes @ 0x0
   758                           
   759  0070                     ?_tabla_hex:	
   760                           ; 1 bytes @ 0x0
   761                           
   762  0070                     ?_Lcd_Port:	
   763                           ; 1 bytes @ 0x0
   764                           
   765  0070                     ?_Lcd_Cmd:	
   766                           ; 1 bytes @ 0x0
   767                           
   768  0070                     ?_Lcd_Clear:	
   769                           ; 1 bytes @ 0x0
   770                           
   771  0070                     ?_Lcd_Init:	
   772                           ; 1 bytes @ 0x0
   773                           
   774  0070                     ?_Lcd_Write_Char:	
   775                           ; 1 bytes @ 0x0
   776                           
   777  0070                     ?_Lcd_Write_String:	
   778                           ; 1 bytes @ 0x0
   779                           
   780  0070                     ?_initSPIMASTER:	
   781                           ; 1 bytes @ 0x0
   782                           
   783  0070                     ?_initOsc:	
   784                           ; 1 bytes @ 0x0
   785                           
   786  0070                     ?_isr:	
   787                           ; 1 bytes @ 0x0
   788                           
   789  0070                     ?_main:	
   790                           ; 1 bytes @ 0x0
   791                           
   792  0070                     tabla_hex@port:	
   793                           ; 1 bytes @ 0x0
   794                           
   795                           
   796                           ; 2 bytes @ 0x0
   797  0070                     	ds	2
   798  0072                     ??_tabla_hex:
   799                           
   800                           ; 1 bytes @ 0x2
   801  0072                     	ds	2
   802  0074                     tabla_hex@selector:
   803                           
   804                           ; 1 bytes @ 0x4
   805  0074                     	ds	1
   806  0075                     ??_envio:
   807                           
   808                           ; 1 bytes @ 0x5
   809  0075                     	ds	2
   810  0077                     ??_isr:
   811                           
   812                           ; 1 bytes @ 0x7
   813  0077                     	ds	4
   814                           
   815                           	psect	cstackBANK0
   816  0020                     __pcstackBANK0:
   817  0020                     ??_TX_GO:
   818  0020                     ??_envio_esclavos:	
   819                           ; 1 bytes @ 0x0
   820                           
   821  0020                     ??_initUSART:	
   822                           ; 1 bytes @ 0x0
   823                           
   824  0020                     ??_Lcd_Port:	
   825                           ; 1 bytes @ 0x0
   826                           
   827  0020                     ??_initSPIMASTER:	
   828                           ; 1 bytes @ 0x0
   829                           
   830  0020                     ??_initOsc:	
   831                           ; 1 bytes @ 0x0
   832                           
   833  0020                     ?___bmul:	
   834                           ; 1 bytes @ 0x0
   835                           
   836  0020                     ?___awdiv:	
   837                           ; 1 bytes @ 0x0
   838                           
   839  0020                     Lcd_Port@a:	
   840                           ; 2 bytes @ 0x0
   841                           
   842  0020                     ___bmul@multiplicand:	
   843                           ; 1 bytes @ 0x0
   844                           
   845  0020                     ___awdiv@divisor:	
   846                           ; 1 bytes @ 0x0
   847                           
   848                           
   849                           ; 2 bytes @ 0x0
   850  0020                     	ds	1
   851  0021                     ??_Lcd_Cmd:
   852  0021                     ??_Lcd_Write_Char:	
   853                           ; 1 bytes @ 0x1
   854                           
   855  0021                     ??___bmul:	
   856                           ; 1 bytes @ 0x1
   857                           
   858  0021                     Lcd_Write_Char@a:	
   859                           ; 1 bytes @ 0x1
   860                           
   861  0021                     ___bmul@product:	
   862                           ; 1 bytes @ 0x1
   863                           
   864                           
   865                           ; 1 bytes @ 0x1
   866  0021                     	ds	1
   867  0022                     ??_Lcd_Write_String:
   868  0022                     Lcd_Cmd@a:	
   869                           ; 1 bytes @ 0x2
   870                           
   871  0022                     initSPIMASTER@modo:	
   872                           ; 1 bytes @ 0x2
   873                           
   874  0022                     initOsc@option:	
   875                           ; 1 bytes @ 0x2
   876                           
   877  0022                     ___bmul@multiplier:	
   878                           ; 1 bytes @ 0x2
   879                           
   880  0022                     Lcd_Write_String@i:	
   881                           ; 1 bytes @ 0x2
   882                           
   883  0022                     ___awdiv@dividend:	
   884                           ; 2 bytes @ 0x2
   885                           
   886                           
   887                           ; 2 bytes @ 0x2
   888  0022                     	ds	1
   889  0023                     ??_Lcd_Clear:
   890  0023                     ?_Lcd_Set_Cursor:	
   891                           ; 1 bytes @ 0x3
   892                           
   893  0023                     ??_Lcd_Init:	
   894                           ; 1 bytes @ 0x3
   895                           
   896  0023                     Lcd_Set_Cursor@b:	
   897                           ; 1 bytes @ 0x3
   898                           
   899                           
   900                           ; 1 bytes @ 0x3
   901  0023                     	ds	1
   902  0024                     ??_Lcd_Set_Cursor:
   903  0024                     ??___awdiv:	
   904                           ; 1 bytes @ 0x4
   905                           
   906  0024                     Lcd_Set_Cursor@a:	
   907                           ; 1 bytes @ 0x4
   908                           
   909  0024                     Lcd_Write_String@a:	
   910                           ; 1 bytes @ 0x4
   911                           
   912  0024                     ___awdiv@counter:	
   913                           ; 1 bytes @ 0x4
   914                           
   915                           
   916                           ; 1 bytes @ 0x4
   917  0024                     	ds	1
   918  0025                     ??_setup:
   919  0025                     Lcd_Set_Cursor@temp:	
   920                           ; 1 bytes @ 0x5
   921                           
   922  0025                     ___awdiv@sign:	
   923                           ; 1 bytes @ 0x5
   924                           
   925                           
   926                           ; 1 bytes @ 0x5
   927  0025                     	ds	1
   928  0026                     ___awdiv@quotient:
   929                           
   930                           ; 2 bytes @ 0x6
   931  0026                     	ds	2
   932  0028                     ?___wmul:
   933  0028                     ___wmul@multiplier:	
   934                           ; 2 bytes @ 0x8
   935                           
   936                           
   937                           ; 2 bytes @ 0x8
   938  0028                     	ds	2
   939  002A                     ___wmul@multiplicand:
   940                           
   941                           ; 2 bytes @ 0xA
   942  002A                     	ds	2
   943  002C                     ??___wmul:
   944  002C                     ___wmul@product:	
   945                           ; 1 bytes @ 0xC
   946                           
   947                           
   948                           ; 2 bytes @ 0xC
   949  002C                     	ds	2
   950  002E                     ?___lwdiv:
   951  002E                     ___lwdiv@divisor:	
   952                           ; 2 bytes @ 0xE
   953                           
   954                           
   955                           ; 2 bytes @ 0xE
   956  002E                     	ds	2
   957  0030                     ___lwdiv@dividend:
   958                           
   959                           ; 2 bytes @ 0x10
   960  0030                     	ds	2
   961  0032                     ??___lwdiv:
   962  0032                     ___lwdiv@quotient:	
   963                           ; 1 bytes @ 0x12
   964                           
   965                           
   966                           ; 2 bytes @ 0x12
   967  0032                     	ds	2
   968  0034                     ___lwdiv@counter:
   969                           
   970                           ; 1 bytes @ 0x14
   971  0034                     	ds	1
   972  0035                     ??_mapeo:
   973                           
   974                           ; 1 bytes @ 0x15
   975  0035                     	ds	2
   976  0037                     mapeo@TEMP1:
   977                           
   978                           ; 2 bytes @ 0x17
   979  0037                     	ds	2
   980  0039                     mapeo@TEMP2:
   981                           
   982                           ; 2 bytes @ 0x19
   983  0039                     	ds	2
   984  003B                     ??_main:
   985                           
   986                           ; 1 bytes @ 0x1B
   987  003B                     	ds	2
   988  003D                     _main$1251:
   989                           
   990                           ; 2 bytes @ 0x1D
   991  003D                     	ds	2
   992                           
   993                           	psect	maintext
   994  0027                     __pmaintext:	
   995 ;;
   996 ;;Main: autosize = 0, tempsize = 2, incstack = 0, save=0
   997 ;;
   998 ;; *************** function _main *****************
   999 ;; Defined at:
  1000 ;;		line 78 in file "C:/MPlab_Digital2/Digital_2/Proyecto3Digital2.X/main.c"
  1001 ;; Parameters:    Size  Location     Type
  1002 ;;		None
  1003 ;; Auto vars:     Size  Location     Type
  1004 ;;		None
  1005 ;; Return value:  Size  Location     Type
  1006 ;;                  1    wreg      void 
  1007 ;; Registers used:
  1008 ;;		wreg, fsr0l, fsr0h, status,2, status,0, btemp+1, pclath, cstack
  1009 ;; Tracked objects:
  1010 ;;		On entry : B00/0
  1011 ;;		On exit  : 0/0
  1012 ;;		Unchanged: 0/0
  1013 ;; Data sizes:     COMMON   BANK0   BANK1   BANK3   BANK2
  1014 ;;      Params:         0       0       0       0       0
  1015 ;;      Locals:         0       2       0       0       0
  1016 ;;      Temps:          0       2       0       0       0
  1017 ;;      Totals:         0       4       0       0       0
  1018 ;;Total ram usage:        4 bytes
  1019 ;; Hardware stack levels required when called:    7
  1020 ;; This function calls:
  1021 ;;		_Lcd_Clear
  1022 ;;		_Lcd_Set_Cursor
  1023 ;;		_Lcd_Write_Char
  1024 ;;		_Lcd_Write_String
  1025 ;;		_TX_GO
  1026 ;;		___awdiv
  1027 ;;		___wmul
  1028 ;;		_envio_esclavos
  1029 ;;		_mapeo
  1030 ;;		_setup
  1031 ;; This function is called by:
  1032 ;;		Startup code after reset
  1033 ;; This function uses a non-reentrant model
  1034 ;;
  1035                           
  1036                           
  1037                           ;psect for function _main
  1038  0027                     _main:
  1039  0027                     l1902:	
  1040                           ;incstack = 0
  1041                           ; Regs used in _main: [wreg-fsr0h+status,2+status,0+btemp+1+pclath+cstack]
  1042                           
  1043                           
  1044                           ;C:/MPlab_Digital2/Digital_2/Proyecto3Digital2.X/main.c: 79:         Lcd_Set_Cursor(2,13
      +                          );
  1045  0027  120A  118A  2568  120A  118A  	fcall	_setup
  1046  002C                     l1904:
  1047                           
  1048                           ;C:/MPlab_Digital2/Digital_2/Proyecto3Digital2.X/main.c: 80:         Lcd_Write_Char((esc
      +                          lavo2-(((esclavo2-((esclavo2/100)*100))/10)))+48);
  1049  002C  120A  118A  278E  120A  118A  	fcall	_Lcd_Clear
  1050  0031                     l1906:
  1051                           
  1052                           ;C:/MPlab_Digital2/Digital_2/Proyecto3Digital2.X/main.c: 81:     }
  1053  0031  1283               	bcf	3,5	;RP0=0, select bank0
  1054  0032  1303               	bcf	3,6	;RP1=0, select bank0
  1055  0033  01A3               	clrf	Lcd_Set_Cursor@b
  1056  0034  0AA3               	incf	Lcd_Set_Cursor@b,f
  1057  0035  3001               	movlw	1
  1058  0036  120A  118A  26D9  120A  118A  	fcall	_Lcd_Set_Cursor
  1059  003B                     l1908:
  1060                           
  1061                           ;C:/MPlab_Digital2/Digital_2/Proyecto3Digital2.X/main.c: 82: }
  1062  003B  3001               	movlw	(low ((STR_1-__stringbase)| (0+32768)))& (0+255)
  1063  003C  120A  118A  2689  120A  118A  	fcall	_Lcd_Write_String
  1064  0041                     l1910:
  1065                           
  1066                           ;C:/MPlab_Digital2/Digital_2/Proyecto3Digital2.X/main.c: 87: void setup(void) {
  1067  0041  120A  118A  2784  120A  118A  	fcall	_TX_GO
  1068  0046                     l1912:
  1069                           
  1070                           ;C:/MPlab_Digital2/Digital_2/Proyecto3Digital2.X/main.c: 88:     initSPIMASTER(2);
  1071  0046  120A  118A  25BC  120A  118A  	fcall	_envio_esclavos
  1072  004B                     l1914:
  1073                           
  1074                           ;C:/MPlab_Digital2/Digital_2/Proyecto3Digital2.X/main.c: 89:     initUSART();
  1075  004B  120A  118A  21D8  120A  118A  	fcall	_mapeo
  1076  0050                     l1916:
  1077                           
  1078                           ;C:/MPlab_Digital2/Digital_2/Proyecto3Digital2.X/main.c: 90:     initOsc(6);
  1079  0050  1283               	bcf	3,5	;RP0=0, select bank0
  1080  0051  1303               	bcf	3,6	;RP1=0, select bank0
  1081  0052  01A3               	clrf	Lcd_Set_Cursor@b
  1082  0053  0AA3               	incf	Lcd_Set_Cursor@b,f
  1083  0054  3002               	movlw	2
  1084  0055  120A  118A  26D9  120A  118A  	fcall	_Lcd_Set_Cursor
  1085  005A                     l1918:
  1086                           
  1087                           ;C:/MPlab_Digital2/Digital_2/Proyecto3Digital2.X/main.c: 91:     OPTION_REG = 0b11010111
      +                          ;
  1088  005A  1283               	bcf	3,5	;RP0=0, select bank0
  1089  005B  1303               	bcf	3,6	;RP1=0, select bank0
  1090  005C  0842               	movf	_centenasp1,w
  1091  005D  3E30               	addlw	48
  1092  005E  120A  118A  2771  120A  118A  	fcall	_Lcd_Write_Char
  1093  0063                     l1920:
  1094                           
  1095                           ;C:/MPlab_Digital2/Digital_2/Proyecto3Digital2.X/main.c: 92:     ANSEL = 0;
  1096  0063  3002               	movlw	2
  1097  0064  00FF               	movwf	btemp+1
  1098  0065  087F               	movf	btemp+1,w
  1099  0066  1283               	bcf	3,5	;RP0=0, select bank0
  1100  0067  1303               	bcf	3,6	;RP1=0, select bank0
  1101  0068  00A3               	movwf	Lcd_Set_Cursor@b
  1102  0069  3002               	movlw	2
  1103  006A  120A  118A  26D9  120A  118A  	fcall	_Lcd_Set_Cursor
  1104  006F                     l1922:
  1105                           
  1106                           ;C:/MPlab_Digital2/Digital_2/Proyecto3Digital2.X/main.c: 93:     ANSELH = 0;
  1107  006F  302E               	movlw	46
  1108  0070  120A  118A  2771  120A  118A  	fcall	_Lcd_Write_Char
  1109  0075                     l1924:
  1110                           
  1111                           ;C:/MPlab_Digital2/Digital_2/Proyecto3Digital2.X/main.c: 94:     PORTC = 0;
  1112  0075  3003               	movlw	3
  1113  0076  00FF               	movwf	btemp+1
  1114  0077  087F               	movf	btemp+1,w
  1115  0078  1283               	bcf	3,5	;RP0=0, select bank0
  1116  0079  1303               	bcf	3,6	;RP1=0, select bank0
  1117  007A  00A3               	movwf	Lcd_Set_Cursor@b
  1118  007B  3002               	movlw	2
  1119  007C  120A  118A  26D9  120A  118A  	fcall	_Lcd_Set_Cursor
  1120  0081                     l1926:
  1121                           
  1122                           ;C:/MPlab_Digital2/Digital_2/Proyecto3Digital2.X/main.c: 95:     TRISC = 0x80;
  1123  0081  1283               	bcf	3,5	;RP0=0, select bank0
  1124  0082  1303               	bcf	3,6	;RP1=0, select bank0
  1125  0083  0843               	movf	_decenasp1,w
  1126  0084  3E30               	addlw	48
  1127  0085  120A  118A  2771  120A  118A  	fcall	_Lcd_Write_Char
  1128  008A                     l1928:
  1129                           
  1130                           ;C:/MPlab_Digital2/Digital_2/Proyecto3Digital2.X/main.c: 96:     PORTD = 0;
  1131  008A  3004               	movlw	4
  1132  008B  00FF               	movwf	btemp+1
  1133  008C  087F               	movf	btemp+1,w
  1134  008D  1283               	bcf	3,5	;RP0=0, select bank0
  1135  008E  1303               	bcf	3,6	;RP1=0, select bank0
  1136  008F  00A3               	movwf	Lcd_Set_Cursor@b
  1137  0090  3002               	movlw	2
  1138  0091  120A  118A  26D9  120A  118A  	fcall	_Lcd_Set_Cursor
  1139  0096                     l1930:
  1140                           
  1141                           ;C:/MPlab_Digital2/Digital_2/Proyecto3Digital2.X/main.c: 97:     TRISD = 0;
  1142  0096  1283               	bcf	3,5	;RP0=0, select bank0
  1143  0097  1303               	bcf	3,6	;RP1=0, select bank0
  1144  0098  0844               	movf	_unidadesp1,w
  1145  0099  3E30               	addlw	48
  1146  009A  120A  118A  2771  120A  118A  	fcall	_Lcd_Write_Char
  1147  009F                     l1932:
  1148                           
  1149                           ;C:/MPlab_Digital2/Digital_2/Proyecto3Digital2.X/main.c: 98:     PORTB = 0;
  1150  009F  3005               	movlw	5
  1151  00A0  00FF               	movwf	btemp+1
  1152  00A1  087F               	movf	btemp+1,w
  1153  00A2  1283               	bcf	3,5	;RP0=0, select bank0
  1154  00A3  1303               	bcf	3,6	;RP1=0, select bank0
  1155  00A4  00A3               	movwf	Lcd_Set_Cursor@b
  1156  00A5  3002               	movlw	2
  1157  00A6  120A  118A  26D9  120A  118A  	fcall	_Lcd_Set_Cursor
  1158  00AB                     l1934:
  1159                           
  1160                           ;C:/MPlab_Digital2/Digital_2/Proyecto3Digital2.X/main.c: 99:     TRISE = 0;
  1161  00AB  3020               	movlw	32
  1162  00AC  120A  118A  2771  120A  118A  	fcall	_Lcd_Write_Char
  1163  00B1                     l1936:
  1164                           
  1165                           ;C:/MPlab_Digital2/Digital_2/Proyecto3Digital2.X/main.c: 100:     PORTE = 0;
  1166  00B1  3006               	movlw	6
  1167  00B2  00FF               	movwf	btemp+1
  1168  00B3  087F               	movf	btemp+1,w
  1169  00B4  1283               	bcf	3,5	;RP0=0, select bank0
  1170  00B5  1303               	bcf	3,6	;RP1=0, select bank0
  1171  00B6  00A3               	movwf	Lcd_Set_Cursor@b
  1172  00B7  3002               	movlw	2
  1173  00B8  120A  118A  26D9  120A  118A  	fcall	_Lcd_Set_Cursor
  1174  00BD                     l1938:
  1175                           
  1176                           ;C:/MPlab_Digital2/Digital_2/Proyecto3Digital2.X/main.c: 101:     PORTA = 0;
  1177  00BD  1283               	bcf	3,5	;RP0=0, select bank0
  1178  00BE  1303               	bcf	3,6	;RP1=0, select bank0
  1179  00BF  083F               	movf	_centenasp2,w
  1180  00C0  3E30               	addlw	48
  1181  00C1  120A  118A  2771  120A  118A  	fcall	_Lcd_Write_Char
  1182  00C6                     l1940:
  1183                           
  1184                           ;C:/MPlab_Digital2/Digital_2/Proyecto3Digital2.X/main.c: 102:     TRISA = 0;
  1185  00C6  3007               	movlw	7
  1186  00C7  00FF               	movwf	btemp+1
  1187  00C8  087F               	movf	btemp+1,w
  1188  00C9  1283               	bcf	3,5	;RP0=0, select bank0
  1189  00CA  1303               	bcf	3,6	;RP1=0, select bank0
  1190  00CB  00A3               	movwf	Lcd_Set_Cursor@b
  1191  00CC  3002               	movlw	2
  1192  00CD  120A  118A  26D9  120A  118A  	fcall	_Lcd_Set_Cursor
  1193  00D2                     l1942:
  1194                           
  1195                           ;C:/MPlab_Digital2/Digital_2/Proyecto3Digital2.X/main.c: 103:     TRISB = 0;
  1196  00D2  302E               	movlw	46
  1197  00D3  120A  118A  2771  120A  118A  	fcall	_Lcd_Write_Char
  1198  00D8                     l1944:
  1199                           
  1200                           ;C:/MPlab_Digital2/Digital_2/Proyecto3Digital2.X/main.c: 104:     PORTCbits.RC0 = 1;
  1201  00D8  3008               	movlw	8
  1202  00D9  00FF               	movwf	btemp+1
  1203  00DA  087F               	movf	btemp+1,w
  1204  00DB  1283               	bcf	3,5	;RP0=0, select bank0
  1205  00DC  1303               	bcf	3,6	;RP1=0, select bank0
  1206  00DD  00A3               	movwf	Lcd_Set_Cursor@b
  1207  00DE  3002               	movlw	2
  1208  00DF  120A  118A  26D9  120A  118A  	fcall	_Lcd_Set_Cursor
  1209  00E4                     l1946:
  1210                           
  1211                           ;C:/MPlab_Digital2/Digital_2/Proyecto3Digital2.X/main.c: 105:     PORTCbits.RC1 = 1;
  1212  00E4  1283               	bcf	3,5	;RP0=0, select bank0
  1213  00E5  1303               	bcf	3,6	;RP1=0, select bank0
  1214  00E6  0840               	movf	_decenasp2,w
  1215  00E7  3E30               	addlw	48
  1216  00E8  120A  118A  2771  120A  118A  	fcall	_Lcd_Write_Char
  1217  00ED                     l1948:
  1218                           
  1219                           ;C:/MPlab_Digital2/Digital_2/Proyecto3Digital2.X/main.c: 106:     PORTCbits.RC2 = 1;
  1220  00ED  3009               	movlw	9
  1221  00EE  00FF               	movwf	btemp+1
  1222  00EF  087F               	movf	btemp+1,w
  1223  00F0  1283               	bcf	3,5	;RP0=0, select bank0
  1224  00F1  1303               	bcf	3,6	;RP1=0, select bank0
  1225  00F2  00A3               	movwf	Lcd_Set_Cursor@b
  1226  00F3  3002               	movlw	2
  1227  00F4  120A  118A  26D9  120A  118A  	fcall	_Lcd_Set_Cursor
  1228  00F9                     l1950:
  1229                           
  1230                           ;C:/MPlab_Digital2/Digital_2/Proyecto3Digital2.X/main.c: 107:     Lcd_Init();
  1231  00F9  1283               	bcf	3,5	;RP0=0, select bank0
  1232  00FA  1303               	bcf	3,6	;RP1=0, select bank0
  1233  00FB  0841               	movf	_unidadesp2,w
  1234  00FC  3E30               	addlw	48
  1235  00FD  120A  118A  2771  120A  118A  	fcall	_Lcd_Write_Char
  1236  0102                     l1952:
  1237                           
  1238                           ;C:/MPlab_Digital2/Digital_2/Proyecto3Digital2.X/main.c: 108: 
  1239  0102  300A               	movlw	10
  1240  0103  00FF               	movwf	btemp+1
  1241  0104  087F               	movf	btemp+1,w
  1242  0105  1283               	bcf	3,5	;RP0=0, select bank0
  1243  0106  1303               	bcf	3,6	;RP1=0, select bank0
  1244  0107  00A3               	movwf	Lcd_Set_Cursor@b
  1245  0108  3002               	movlw	2
  1246  0109  120A  118A  26D9  120A  118A  	fcall	_Lcd_Set_Cursor
  1247  010E                     l1954:
  1248                           
  1249                           ;C:/MPlab_Digital2/Digital_2/Proyecto3Digital2.X/main.c: 109:     TRISCbits.TRISC4 = 1;
  1250  010E  3020               	movlw	32
  1251  010F  120A  118A  2771  120A  118A  	fcall	_Lcd_Write_Char
  1252  0114                     l1956:
  1253                           
  1254                           ;C:/MPlab_Digital2/Digital_2/Proyecto3Digital2.X/main.c: 110:     TRISCbits.TRISC3 = 0;
  1255  0114  300B               	movlw	11
  1256  0115  00FF               	movwf	btemp+1
  1257  0116  087F               	movf	btemp+1,w
  1258  0117  1283               	bcf	3,5	;RP0=0, select bank0
  1259  0118  1303               	bcf	3,6	;RP1=0, select bank0
  1260  0119  00A3               	movwf	Lcd_Set_Cursor@b
  1261  011A  3002               	movlw	2
  1262  011B  120A  118A  26D9  120A  118A  	fcall	_Lcd_Set_Cursor
  1263  0120                     l1958:
  1264                           
  1265                           ;C:/MPlab_Digital2/Digital_2/Proyecto3Digital2.X/main.c: 111:     TRISCbits.TRISC0 = 0;
  1266  0120  3064               	movlw	100
  1267  0121  1283               	bcf	3,5	;RP0=0, select bank0
  1268  0122  1303               	bcf	3,6	;RP1=0, select bank0
  1269  0123  00A0               	movwf	___awdiv@divisor
  1270  0124  3000               	movlw	0
  1271  0125  00A1               	movwf	___awdiv@divisor+1
  1272  0126  0847               	movf	_esclavo2,w
  1273  0127  00BB               	movwf	??_main
  1274  0128  01BC               	clrf	??_main+1
  1275  0129  083B               	movf	??_main,w
  1276  012A  00A2               	movwf	___awdiv@dividend
  1277  012B  083C               	movf	??_main+1,w
  1278  012C  00A3               	movwf	___awdiv@dividend+1
  1279  012D  120A  118A  244E  120A  118A  	fcall	___awdiv
  1280  0132  1283               	bcf	3,5	;RP0=0, select bank0
  1281  0133  1303               	bcf	3,6	;RP1=0, select bank0
  1282  0134  0820               	movf	?___awdiv,w
  1283  0135  3E30               	addlw	48
  1284  0136  120A  118A  2771  120A  118A  	fcall	_Lcd_Write_Char
  1285  013B                     l1960:
  1286                           
  1287                           ;C:/MPlab_Digital2/Digital_2/Proyecto3Digital2.X/main.c: 112:     TRISCbits.TRISC1 = 0;
  1288  013B  300C               	movlw	12
  1289  013C  00FF               	movwf	btemp+1
  1290  013D  087F               	movf	btemp+1,w
  1291  013E  1283               	bcf	3,5	;RP0=0, select bank0
  1292  013F  1303               	bcf	3,6	;RP1=0, select bank0
  1293  0140  00A3               	movwf	Lcd_Set_Cursor@b
  1294  0141  3002               	movlw	2
  1295  0142  120A  118A  26D9  120A  118A  	fcall	_Lcd_Set_Cursor
  1296  0147                     l1962:
  1297                           
  1298                           ;C:/MPlab_Digital2/Digital_2/Proyecto3Digital2.X/main.c: 113:     TRISCbits.TRISC2 = 0;
  1299  0147  3064               	movlw	100
  1300  0148  1283               	bcf	3,5	;RP0=0, select bank0
  1301  0149  1303               	bcf	3,6	;RP1=0, select bank0
  1302  014A  00A0               	movwf	___awdiv@divisor
  1303  014B  3000               	movlw	0
  1304  014C  00A1               	movwf	___awdiv@divisor+1
  1305  014D  0847               	movf	_esclavo2,w
  1306  014E  00BB               	movwf	??_main
  1307  014F  01BC               	clrf	??_main+1
  1308  0150  083B               	movf	??_main,w
  1309  0151  00A2               	movwf	___awdiv@dividend
  1310  0152  083C               	movf	??_main+1,w
  1311  0153  00A3               	movwf	___awdiv@dividend+1
  1312  0154  120A  118A  244E  120A  118A  	fcall	___awdiv
  1313  0159  1283               	bcf	3,5	;RP0=0, select bank0
  1314  015A  1303               	bcf	3,6	;RP1=0, select bank0
  1315  015B  0821               	movf	?___awdiv+1,w
  1316  015C  00A9               	movwf	___wmul@multiplier+1
  1317  015D  0820               	movf	?___awdiv,w
  1318  015E  00A8               	movwf	___wmul@multiplier
  1319  015F  309C               	movlw	156
  1320  0160  00AA               	movwf	___wmul@multiplicand
  1321  0161  30FF               	movlw	255
  1322  0162  00AB               	movwf	___wmul@multiplicand+1
  1323  0163  120A  118A  26B2  120A  118A  	fcall	___wmul
  1324  0168  1283               	bcf	3,5	;RP0=0, select bank0
  1325  0169  1303               	bcf	3,6	;RP1=0, select bank0
  1326  016A  0847               	movf	_esclavo2,w
  1327  016B  0728               	addwf	?___wmul,w
  1328  016C  00BD               	movwf	_main$1251
  1329  016D  0829               	movf	?___wmul+1,w
  1330  016E  1803               	skipnc
  1331  016F  0A29               	incf	?___wmul+1,w
  1332  0170  00BE               	movwf	_main$1251+1
  1333  0171                     l1964:
  1334                           
  1335                           ;C:/MPlab_Digital2/Digital_2/Proyecto3Digital2.X/main.c: 113:     TRISCbits.TRISC2 = 0;
  1336  0171  300A               	movlw	10
  1337  0172  00A0               	movwf	___awdiv@divisor
  1338  0173  3000               	movlw	0
  1339  0174  00A1               	movwf	___awdiv@divisor+1
  1340  0175  083E               	movf	_main$1251+1,w
  1341  0176  00A3               	movwf	___awdiv@dividend+1
  1342  0177  083D               	movf	_main$1251,w
  1343  0178  00A2               	movwf	___awdiv@dividend
  1344  0179  120A  118A  244E  120A  118A  	fcall	___awdiv
  1345  017E  1283               	bcf	3,5	;RP0=0, select bank0
  1346  017F  1303               	bcf	3,6	;RP1=0, select bank0
  1347  0180  0820               	movf	?___awdiv,w
  1348  0181  3E30               	addlw	48
  1349  0182  120A  118A  2771  120A  118A  	fcall	_Lcd_Write_Char
  1350  0187                     l1966:
  1351                           
  1352                           ;C:/MPlab_Digital2/Digital_2/Proyecto3Digital2.X/main.c: 114: 
  1353  0187  300D               	movlw	13
  1354  0188  00FF               	movwf	btemp+1
  1355  0189  087F               	movf	btemp+1,w
  1356  018A  1283               	bcf	3,5	;RP0=0, select bank0
  1357  018B  1303               	bcf	3,6	;RP1=0, select bank0
  1358  018C  00A3               	movwf	Lcd_Set_Cursor@b
  1359  018D  3002               	movlw	2
  1360  018E  120A  118A  26D9  120A  118A  	fcall	_Lcd_Set_Cursor
  1361  0193                     l1968:
  1362                           
  1363                           ;C:/MPlab_Digital2/Digital_2/Proyecto3Digital2.X/main.c: 115:     INTCONbits.GIE = 1;
  1364  0193  3064               	movlw	100
  1365  0194  1283               	bcf	3,5	;RP0=0, select bank0
  1366  0195  1303               	bcf	3,6	;RP1=0, select bank0
  1367  0196  00A0               	movwf	___awdiv@divisor
  1368  0197  3000               	movlw	0
  1369  0198  00A1               	movwf	___awdiv@divisor+1
  1370  0199  0847               	movf	_esclavo2,w
  1371  019A  00BB               	movwf	??_main
  1372  019B  01BC               	clrf	??_main+1
  1373  019C  083B               	movf	??_main,w
  1374  019D  00A2               	movwf	___awdiv@dividend
  1375  019E  083C               	movf	??_main+1,w
  1376  019F  00A3               	movwf	___awdiv@dividend+1
  1377  01A0  120A  118A  244E  120A  118A  	fcall	___awdiv
  1378  01A5  1283               	bcf	3,5	;RP0=0, select bank0
  1379  01A6  1303               	bcf	3,6	;RP1=0, select bank0
  1380  01A7  0821               	movf	?___awdiv+1,w
  1381  01A8  00A9               	movwf	___wmul@multiplier+1
  1382  01A9  0820               	movf	?___awdiv,w
  1383  01AA  00A8               	movwf	___wmul@multiplier
  1384  01AB  309C               	movlw	156
  1385  01AC  00AA               	movwf	___wmul@multiplicand
  1386  01AD  30FF               	movlw	255
  1387  01AE  00AB               	movwf	___wmul@multiplicand+1
  1388  01AF  120A  118A  26B2  120A  118A  	fcall	___wmul
  1389  01B4  1283               	bcf	3,5	;RP0=0, select bank0
  1390  01B5  1303               	bcf	3,6	;RP1=0, select bank0
  1391  01B6  0847               	movf	_esclavo2,w
  1392  01B7  0728               	addwf	?___wmul,w
  1393  01B8  00BD               	movwf	_main$1251
  1394  01B9  0829               	movf	?___wmul+1,w
  1395  01BA  1803               	skipnc
  1396  01BB  0A29               	incf	?___wmul+1,w
  1397  01BC  00BE               	movwf	_main$1251+1
  1398  01BD                     l1970:
  1399                           
  1400                           ;C:/MPlab_Digital2/Digital_2/Proyecto3Digital2.X/main.c: 115:     INTCONbits.GIE = 1;
  1401  01BD  300A               	movlw	10
  1402  01BE  00A0               	movwf	___awdiv@divisor
  1403  01BF  3000               	movlw	0
  1404  01C0  00A1               	movwf	___awdiv@divisor+1
  1405  01C1  083E               	movf	_main$1251+1,w
  1406  01C2  00A3               	movwf	___awdiv@dividend+1
  1407  01C3  083D               	movf	_main$1251,w
  1408  01C4  00A2               	movwf	___awdiv@dividend
  1409  01C5  120A  118A  244E  120A  118A  	fcall	___awdiv
  1410  01CA  1283               	bcf	3,5	;RP0=0, select bank0
  1411  01CB  1303               	bcf	3,6	;RP1=0, select bank0
  1412  01CC  0820               	movf	?___awdiv,w
  1413  01CD  0247               	subwf	_esclavo2,w
  1414  01CE  3E30               	addlw	48
  1415  01CF  120A  118A  2771  120A  118A  	fcall	_Lcd_Write_Char
  1416  01D4  2841               	goto	l1910
  1417  01D5  120A  118A  2812   	ljmp	start
  1418  01D8                     __end_of_main:
  1419                           
  1420                           	psect	text1
  1421  0568                     __ptext1:	
  1422 ;; *************** function _setup *****************
  1423 ;; Defined at:
  1424 ;;		line 122 in file "C:/MPlab_Digital2/Digital_2/Proyecto3Digital2.X/main.c"
  1425 ;; Parameters:    Size  Location     Type
  1426 ;;		None
  1427 ;; Auto vars:     Size  Location     Type
  1428 ;;		None
  1429 ;; Return value:  Size  Location     Type
  1430 ;;                  1    wreg      void 
  1431 ;; Registers used:
  1432 ;;		wreg, fsr0l, fsr0h, status,2, status,0, pclath, cstack
  1433 ;; Tracked objects:
  1434 ;;		On entry : 0/0
  1435 ;;		On exit  : 0/0
  1436 ;;		Unchanged: 0/0
  1437 ;; Data sizes:     COMMON   BANK0   BANK1   BANK3   BANK2
  1438 ;;      Params:         0       0       0       0       0
  1439 ;;      Locals:         0       0       0       0       0
  1440 ;;      Temps:          0       0       0       0       0
  1441 ;;      Totals:         0       0       0       0       0
  1442 ;;Total ram usage:        0 bytes
  1443 ;; Hardware stack levels used:    1
  1444 ;; Hardware stack levels required when called:    6
  1445 ;; This function calls:
  1446 ;;		_Lcd_Init
  1447 ;;		_initOsc
  1448 ;;		_initSPIMASTER
  1449 ;;		_initUSART
  1450 ;; This function is called by:
  1451 ;;		_main
  1452 ;; This function uses a non-reentrant model
  1453 ;;
  1454                           
  1455                           
  1456                           ;psect for function _setup
  1457  0568                     _setup:
  1458  0568                     l1766:	
  1459                           ;incstack = 0
  1460                           ; Regs used in _setup: [wreg-fsr0h+status,2+status,0+pclath+cstack]
  1461                           
  1462                           
  1463                           ;C:/MPlab_Digital2/Digital_2/Proyecto3Digital2.X/main.c: 123: }
  1464  0568  3002               	movlw	2
  1465  0569  120A  118A  2652  120A  118A  	fcall	_initSPIMASTER
  1466  056E                     l1768:
  1467                           
  1468                           ;C:/MPlab_Digital2/Digital_2/Proyecto3Digital2.X/main.c: 124: void TX_GO (void){
  1469  056E  120A  118A  275D  120A  118A  	fcall	_initUSART
  1470  0573                     l1770:
  1471                           
  1472                           ;C:/MPlab_Digital2/Digital_2/Proyecto3Digital2.X/main.c: 125:     if (controles == 10){
  1473  0573  3006               	movlw	6
  1474  0574  120A  118A  2511  120A  118A  	fcall	_initOsc
  1475  0579                     l1772:
  1476                           
  1477                           ;C:/MPlab_Digital2/Digital_2/Proyecto3Digital2.X/main.c: 126:         PIE1bits.TXIE = 1;
  1478  0579  30D7               	movlw	215
  1479  057A  1683               	bsf	3,5	;RP0=1, select bank1
  1480  057B  1303               	bcf	3,6	;RP1=0, select bank1
  1481  057C  0081               	movwf	1	;volatile
  1482  057D                     l1774:
  1483                           
  1484                           ;C:/MPlab_Digital2/Digital_2/Proyecto3Digital2.X/main.c: 127:     }
  1485  057D  1683               	bsf	3,5	;RP0=1, select bank3
  1486  057E  1703               	bsf	3,6	;RP1=1, select bank3
  1487  057F  0188               	clrf	8	;volatile
  1488  0580                     l1776:
  1489                           
  1490                           ;C:/MPlab_Digital2/Digital_2/Proyecto3Digital2.X/main.c: 128: }
  1491  0580  0189               	clrf	9	;volatile
  1492  0581                     l1778:
  1493                           
  1494                           ;C:/MPlab_Digital2/Digital_2/Proyecto3Digital2.X/main.c: 129: void envio_esclavos(void){
  1495  0581  1283               	bcf	3,5	;RP0=0, select bank0
  1496  0582  1303               	bcf	3,6	;RP1=0, select bank0
  1497  0583  0187               	clrf	7	;volatile
  1498  0584                     l1780:
  1499                           
  1500                           ;C:/MPlab_Digital2/Digital_2/Proyecto3Digital2.X/main.c: 130:     if (controles > 50){
  1501  0584  3080               	movlw	128
  1502  0585  1683               	bsf	3,5	;RP0=1, select bank1
  1503  0586  1303               	bcf	3,6	;RP1=0, select bank1
  1504  0587  0087               	movwf	7	;volatile
  1505  0588                     l1782:
  1506                           
  1507                           ;C:/MPlab_Digital2/Digital_2/Proyecto3Digital2.X/main.c: 131:         controles = 0;
  1508  0588  1283               	bcf	3,5	;RP0=0, select bank0
  1509  0589  1303               	bcf	3,6	;RP1=0, select bank0
  1510  058A  0188               	clrf	8	;volatile
  1511  058B                     l1784:
  1512                           
  1513                           ;C:/MPlab_Digital2/Digital_2/Proyecto3Digital2.X/main.c: 132:         PORTCbits.RC0 = 1;
  1514  058B  1683               	bsf	3,5	;RP0=1, select bank1
  1515  058C  1303               	bcf	3,6	;RP1=0, select bank1
  1516  058D  0188               	clrf	8	;volatile
  1517  058E                     l1786:
  1518                           
  1519                           ;C:/MPlab_Digital2/Digital_2/Proyecto3Digital2.X/main.c: 133:         PORTCbits.RC1 = 1;
  1520  058E  1283               	bcf	3,5	;RP0=0, select bank0
  1521  058F  1303               	bcf	3,6	;RP1=0, select bank0
  1522  0590  0186               	clrf	6	;volatile
  1523  0591                     l1788:
  1524                           
  1525                           ;C:/MPlab_Digital2/Digital_2/Proyecto3Digital2.X/main.c: 134:         PORTCbits.RC2 = 1;
  1526  0591  1683               	bsf	3,5	;RP0=1, select bank1
  1527  0592  1303               	bcf	3,6	;RP1=0, select bank1
  1528  0593  0189               	clrf	9	;volatile
  1529  0594                     l1790:
  1530                           
  1531                           ;C:/MPlab_Digital2/Digital_2/Proyecto3Digital2.X/main.c: 135:             switch(slave){
  1532  0594  1283               	bcf	3,5	;RP0=0, select bank0
  1533  0595  1303               	bcf	3,6	;RP1=0, select bank0
  1534  0596  0189               	clrf	9	;volatile
  1535  0597                     l1792:
  1536                           
  1537                           ;C:/MPlab_Digital2/Digital_2/Proyecto3Digital2.X/main.c: 136:                 case 0:
  1538  0597  0185               	clrf	5	;volatile
  1539  0598                     l1794:
  1540                           
  1541                           ;C:/MPlab_Digital2/Digital_2/Proyecto3Digital2.X/main.c: 137:                     PORTCb
      +                          its.RC0 = 0;
  1542  0598  1683               	bsf	3,5	;RP0=1, select bank1
  1543  0599  1303               	bcf	3,6	;RP1=0, select bank1
  1544  059A  0185               	clrf	5	;volatile
  1545  059B                     l1796:
  1546                           
  1547                           ;C:/MPlab_Digital2/Digital_2/Proyecto3Digital2.X/main.c: 138:                     while 
      +                          ( !SSPSTATbits.BF );
  1548  059B  0186               	clrf	6	;volatile
  1549  059C                     l1798:
  1550                           
  1551                           ;C:/MPlab_Digital2/Digital_2/Proyecto3Digital2.X/main.c: 139:                     esclav
      +                          o1 = SSPBUF;
  1552  059C  1283               	bcf	3,5	;RP0=0, select bank0
  1553  059D  1303               	bcf	3,6	;RP1=0, select bank0
  1554  059E  1407               	bsf	7,0	;volatile
  1555  059F                     l1800:
  1556                           
  1557                           ;C:/MPlab_Digital2/Digital_2/Proyecto3Digital2.X/main.c: 140:                     slave+
      +                          +;
  1558  059F  1487               	bsf	7,1	;volatile
  1559  05A0                     l1802:
  1560                           
  1561                           ;C:/MPlab_Digital2/Digital_2/Proyecto3Digital2.X/main.c: 141:                     break;
  1562  05A0  1507               	bsf	7,2	;volatile
  1563  05A1                     l1804:
  1564                           
  1565                           ;C:/MPlab_Digital2/Digital_2/Proyecto3Digital2.X/main.c: 142:                 case 1:
  1566  05A1  120A  118A  24B7  120A  118A  	fcall	_Lcd_Init
  1567  05A6                     l1806:
  1568                           
  1569                           ;C:/MPlab_Digital2/Digital_2/Proyecto3Digital2.X/main.c: 144:                     while 
      +                          ( !SSPSTATbits.BF );
  1570  05A6  1683               	bsf	3,5	;RP0=1, select bank1
  1571  05A7  1303               	bcf	3,6	;RP1=0, select bank1
  1572  05A8  1607               	bsf	7,4	;volatile
  1573  05A9                     l1808:
  1574                           
  1575                           ;C:/MPlab_Digital2/Digital_2/Proyecto3Digital2.X/main.c: 145:                     esclav
      +                          o2 = SSPBUF;
  1576  05A9  1187               	bcf	7,3	;volatile
  1577  05AA                     l1810:
  1578                           
  1579                           ;C:/MPlab_Digital2/Digital_2/Proyecto3Digital2.X/main.c: 146:                     slave+
      +                          +;
  1580  05AA  1007               	bcf	7,0	;volatile
  1581  05AB                     l1812:
  1582                           
  1583                           ;C:/MPlab_Digital2/Digital_2/Proyecto3Digital2.X/main.c: 147:                     break;
  1584  05AB  1087               	bcf	7,1	;volatile
  1585  05AC                     l1814:
  1586                           
  1587                           ;C:/MPlab_Digital2/Digital_2/Proyecto3Digital2.X/main.c: 148:                 case 2:
  1588  05AC  1107               	bcf	7,2	;volatile
  1589  05AD                     l1816:
  1590                           
  1591                           ;C:/MPlab_Digital2/Digital_2/Proyecto3Digital2.X/main.c: 150:                     while 
      +                          ( !SSPSTATbits.BF );
  1592  05AD  178B               	bsf	11,7	;volatile
  1593  05AE                     l1818:
  1594                           
  1595                           ;C:/MPlab_Digital2/Digital_2/Proyecto3Digital2.X/main.c: 151:                     esclav
      +                          o3 = SSPBUF;
  1596  05AE  170B               	bsf	11,6	;volatile
  1597  05AF                     l1820:
  1598                           
  1599                           ;C:/MPlab_Digital2/Digital_2/Proyecto3Digital2.X/main.c: 152:                     slave 
      +                          = 0;
  1600  05AF  168B               	bsf	11,5	;volatile
  1601  05B0                     l1822:
  1602                           
  1603                           ;C:/MPlab_Digital2/Digital_2/Proyecto3Digital2.X/main.c: 153:                     break;
  1604  05B0  110B               	bcf	11,2	;volatile
  1605  05B1                     l1824:
  1606                           
  1607                           ;C:/MPlab_Digital2/Digital_2/Proyecto3Digital2.X/main.c: 154:             }
  1608  05B1  160C               	bsf	12,4	;volatile
  1609  05B2                     l1826:
  1610                           
  1611                           ;C:/MPlab_Digital2/Digital_2/Proyecto3Digital2.X/main.c: 155:         }
  1612  05B2  1283               	bcf	3,5	;RP0=0, select bank0
  1613  05B3  1303               	bcf	3,6	;RP1=0, select bank0
  1614  05B4  120C               	bcf	12,4	;volatile
  1615  05B5                     l1828:
  1616                           
  1617                           ;C:/MPlab_Digital2/Digital_2/Proyecto3Digital2.X/main.c: 156:     }
  1618  05B5  1683               	bsf	3,5	;RP0=1, select bank1
  1619  05B6  1303               	bcf	3,6	;RP1=0, select bank1
  1620  05B7  158C               	bsf	12,3	;volatile
  1621  05B8                     l1830:
  1622                           
  1623                           ;C:/MPlab_Digital2/Digital_2/Proyecto3Digital2.X/main.c: 157: void envio (void){
  1624  05B8  1283               	bcf	3,5	;RP0=0, select bank0
  1625  05B9  1303               	bcf	3,6	;RP1=0, select bank0
  1626  05BA  118C               	bcf	12,3	;volatile
  1627  05BB                     l190:
  1628  05BB  0008               	return
  1629  05BC                     __end_of_setup:
  1630                           
  1631                           	psect	text2
  1632  075D                     __ptext2:	
  1633 ;; *************** function _initUSART *****************
  1634 ;; Defined at:
  1635 ;;		line 12 in file "C:/MPlab_Digital2/Digital_2/Proyecto3Digital2.X/usart9600.c"
  1636 ;; Parameters:    Size  Location     Type
  1637 ;;		None
  1638 ;; Auto vars:     Size  Location     Type
  1639 ;;		None
  1640 ;; Return value:  Size  Location     Type
  1641 ;;                  1    wreg      void 
  1642 ;; Registers used:
  1643 ;;		wreg, status,2
  1644 ;; Tracked objects:
  1645 ;;		On entry : 0/0
  1646 ;;		On exit  : 0/0
  1647 ;;		Unchanged: 0/0
  1648 ;; Data sizes:     COMMON   BANK0   BANK1   BANK3   BANK2
  1649 ;;      Params:         0       0       0       0       0
  1650 ;;      Locals:         0       0       0       0       0
  1651 ;;      Temps:          0       0       0       0       0
  1652 ;;      Totals:         0       0       0       0       0
  1653 ;;Total ram usage:        0 bytes
  1654 ;; Hardware stack levels used:    1
  1655 ;; Hardware stack levels required when called:    3
  1656 ;; This function calls:
  1657 ;;		Nothing
  1658 ;; This function is called by:
  1659 ;;		_setup
  1660 ;; This function uses a non-reentrant model
  1661 ;;
  1662                           
  1663                           
  1664                           ;psect for function _initUSART
  1665  075D                     _initUSART:
  1666  075D                     l1540:	
  1667                           ;incstack = 0
  1668                           ; Regs used in _initUSART: [wreg+status,2]
  1669                           
  1670                           
  1671                           ;C:/MPlab_Digital2/Digital_2/Proyecto3Digital2.X/usart9600.c: 13:     TXSTAbits.TX9 = 0;
  1672  075D  1683               	bsf	3,5	;RP0=1, select bank1
  1673  075E  1303               	bcf	3,6	;RP1=0, select bank1
  1674  075F  1318               	bcf	24,6	;volatile
  1675                           
  1676                           ;C:/MPlab_Digital2/Digital_2/Proyecto3Digital2.X/usart9600.c: 14:     TXSTAbits.SYNC = 0
      +                          ;
  1677  0760  1218               	bcf	24,4	;volatile
  1678                           
  1679                           ;C:/MPlab_Digital2/Digital_2/Proyecto3Digital2.X/usart9600.c: 15:     TXSTAbits.BRGH = 1
      +                          ;
  1680  0761  1518               	bsf	24,2	;volatile
  1681                           
  1682                           ;C:/MPlab_Digital2/Digital_2/Proyecto3Digital2.X/usart9600.c: 16:     BAUDCTLbits.BRG16 
      +                          = 0;
  1683  0762  1683               	bsf	3,5	;RP0=1, select bank3
  1684  0763  1703               	bsf	3,6	;RP1=1, select bank3
  1685  0764  1187               	bcf	7,3	;volatile
  1686  0765                     l1542:
  1687                           
  1688                           ;C:/MPlab_Digital2/Digital_2/Proyecto3Digital2.X/usart9600.c: 17:     SPBRG = 25;
  1689  0765  3019               	movlw	25
  1690  0766  1683               	bsf	3,5	;RP0=1, select bank1
  1691  0767  1303               	bcf	3,6	;RP1=0, select bank1
  1692  0768  0099               	movwf	25	;volatile
  1693  0769                     l1544:
  1694                           
  1695                           ;C:/MPlab_Digital2/Digital_2/Proyecto3Digital2.X/usart9600.c: 18:     SPBRGH = 0;
  1696  0769  019A               	clrf	26	;volatile
  1697  076A                     l1546:
  1698                           
  1699                           ;C:/MPlab_Digital2/Digital_2/Proyecto3Digital2.X/usart9600.c: 19:     TXSTAbits.TXEN = 1
      +                          ;
  1700  076A  1698               	bsf	24,5	;volatile
  1701  076B                     l1548:
  1702                           
  1703                           ;C:/MPlab_Digital2/Digital_2/Proyecto3Digital2.X/usart9600.c: 20:     RCSTAbits.SPEN = 1
      +                          ;
  1704  076B  1283               	bcf	3,5	;RP0=0, select bank0
  1705  076C  1303               	bcf	3,6	;RP1=0, select bank0
  1706  076D  1798               	bsf	24,7	;volatile
  1707  076E                     l1550:
  1708                           
  1709                           ;C:/MPlab_Digital2/Digital_2/Proyecto3Digital2.X/usart9600.c: 21:     RCSTAbits.RX9 = 0;
  1710  076E  1318               	bcf	24,6	;volatile
  1711  076F                     l1552:
  1712                           
  1713                           ;C:/MPlab_Digital2/Digital_2/Proyecto3Digital2.X/usart9600.c: 22:     RCSTAbits.CREN = 1
      +                          ;
  1714  076F  1618               	bsf	24,4	;volatile
  1715  0770                     l264:
  1716  0770  0008               	return
  1717  0771                     __end_of_initUSART:
  1718                           
  1719                           	psect	text3
  1720  0652                     __ptext3:	
  1721 ;; *************** function _initSPIMASTER *****************
  1722 ;; Defined at:
  1723 ;;		line 13 in file "C:/MPlab_Digital2/Digital_2/Proyecto3Digital2.X/initSPI.c"
  1724 ;; Parameters:    Size  Location     Type
  1725 ;;  modo            1    wreg     unsigned char 
  1726 ;; Auto vars:     Size  Location     Type
  1727 ;;  modo            1    2[BANK0 ] unsigned char 
  1728 ;; Return value:  Size  Location     Type
  1729 ;;                  1    wreg      void 
  1730 ;; Registers used:
  1731 ;;		wreg, fsr0l, fsr0h, status,2, status,0
  1732 ;; Tracked objects:
  1733 ;;		On entry : 0/0
  1734 ;;		On exit  : 0/0
  1735 ;;		Unchanged: 0/0
  1736 ;; Data sizes:     COMMON   BANK0   BANK1   BANK3   BANK2
  1737 ;;      Params:         0       0       0       0       0
  1738 ;;      Locals:         0       1       0       0       0
  1739 ;;      Temps:          0       2       0       0       0
  1740 ;;      Totals:         0       3       0       0       0
  1741 ;;Total ram usage:        3 bytes
  1742 ;; Hardware stack levels used:    1
  1743 ;; Hardware stack levels required when called:    3
  1744 ;; This function calls:
  1745 ;;		Nothing
  1746 ;; This function is called by:
  1747 ;;		_setup
  1748 ;; This function uses a non-reentrant model
  1749 ;;
  1750                           
  1751                           
  1752                           ;psect for function _initSPIMASTER
  1753  0652                     _initSPIMASTER:
  1754                           
  1755                           ;incstack = 0
  1756                           ; Regs used in _initSPIMASTER: [wreg-fsr0h+status,2+status,0]
  1757                           ;initSPIMASTER@modo stored from wreg
  1758  0652  1283               	bcf	3,5	;RP0=0, select bank0
  1759  0653  1303               	bcf	3,6	;RP1=0, select bank0
  1760  0654  00A2               	movwf	initSPIMASTER@modo
  1761  0655                     l1518:
  1762                           
  1763                           ;C:/MPlab_Digital2/Digital_2/Proyecto3Digital2.X/initSPI.c: 14:         SSPSTATbits.SMP 
      +                          = 1;
  1764  0655  1683               	bsf	3,5	;RP0=1, select bank1
  1765  0656  1303               	bcf	3,6	;RP1=0, select bank1
  1766  0657  1794               	bsf	20,7	;volatile
  1767                           
  1768                           ;C:/MPlab_Digital2/Digital_2/Proyecto3Digital2.X/initSPI.c: 15:         SSPSTATbits.CKE 
      +                          = 1;
  1769  0658  1714               	bsf	20,6	;volatile
  1770                           
  1771                           ;C:/MPlab_Digital2/Digital_2/Proyecto3Digital2.X/initSPI.c: 16:         SSPCONbits.SSPEN
      +                           = 1;
  1772  0659  1283               	bcf	3,5	;RP0=0, select bank0
  1773  065A  1303               	bcf	3,6	;RP1=0, select bank0
  1774  065B  1694               	bsf	20,5	;volatile
  1775                           
  1776                           ;C:/MPlab_Digital2/Digital_2/Proyecto3Digital2.X/initSPI.c: 17:         SSPCONbits.CKP =
      +                           0;
  1777  065C  1214               	bcf	20,4	;volatile
  1778                           
  1779                           ;C:/MPlab_Digital2/Digital_2/Proyecto3Digital2.X/initSPI.c: 18:         switch(modo){
  1780  065D  2E72               	goto	l1522
  1781  065E                     l49:	
  1782                           ;C:/MPlab_Digital2/Digital_2/Proyecto3Digital2.X/initSPI.c: 19:             case 0:
  1783                           
  1784                           
  1785                           ;C:/MPlab_Digital2/Digital_2/Proyecto3Digital2.X/initSPI.c: 20:                 SSPCONbi
      +                          ts.SSPM3 = 0;
  1786  065E  1194               	bcf	20,3	;volatile
  1787                           
  1788                           ;C:/MPlab_Digital2/Digital_2/Proyecto3Digital2.X/initSPI.c: 21:                 SSPCONbi
      +                          ts.SSPM2 = 0;
  1789  065F  1114               	bcf	20,2	;volatile
  1790                           
  1791                           ;C:/MPlab_Digital2/Digital_2/Proyecto3Digital2.X/initSPI.c: 22:                 SSPCONbi
      +                          ts.SSPM1 = 0;
  1792  0660  1094               	bcf	20,1	;volatile
  1793                           
  1794                           ;C:/MPlab_Digital2/Digital_2/Proyecto3Digital2.X/initSPI.c: 23:                 SSPCONbi
      +                          ts.SSPM0 = 0;
  1795  0661  1014               	bcf	20,0	;volatile
  1796                           
  1797                           ;C:/MPlab_Digital2/Digital_2/Proyecto3Digital2.X/initSPI.c: 24:                 break;
  1798  0662  2E88               	goto	l54
  1799  0663                     l51:	
  1800                           ;C:/MPlab_Digital2/Digital_2/Proyecto3Digital2.X/initSPI.c: 25:             case 1:
  1801                           
  1802                           
  1803                           ;C:/MPlab_Digital2/Digital_2/Proyecto3Digital2.X/initSPI.c: 26:                 SSPCONbi
      +                          ts.SSPM3 = 0;
  1804  0663  1194               	bcf	20,3	;volatile
  1805                           
  1806                           ;C:/MPlab_Digital2/Digital_2/Proyecto3Digital2.X/initSPI.c: 27:                 SSPCONbi
      +                          ts.SSPM2 = 0;
  1807  0664  1114               	bcf	20,2	;volatile
  1808                           
  1809                           ;C:/MPlab_Digital2/Digital_2/Proyecto3Digital2.X/initSPI.c: 28:                 SSPCONbi
      +                          ts.SSPM1 = 0;
  1810  0665  1094               	bcf	20,1	;volatile
  1811                           
  1812                           ;C:/MPlab_Digital2/Digital_2/Proyecto3Digital2.X/initSPI.c: 29:                 SSPCONbi
      +                          ts.SSPM0 = 1;
  1813  0666  1414               	bsf	20,0	;volatile
  1814                           
  1815                           ;C:/MPlab_Digital2/Digital_2/Proyecto3Digital2.X/initSPI.c: 30:                 break;
  1816  0667  2E88               	goto	l54
  1817  0668                     l52:	
  1818                           ;C:/MPlab_Digital2/Digital_2/Proyecto3Digital2.X/initSPI.c: 31:             case 2:
  1819                           
  1820                           
  1821                           ;C:/MPlab_Digital2/Digital_2/Proyecto3Digital2.X/initSPI.c: 32:                 SSPCONbi
      +                          ts.SSPM3 = 0;
  1822  0668  1194               	bcf	20,3	;volatile
  1823                           
  1824                           ;C:/MPlab_Digital2/Digital_2/Proyecto3Digital2.X/initSPI.c: 33:                 SSPCONbi
      +                          ts.SSPM2 = 0;
  1825  0669  1114               	bcf	20,2	;volatile
  1826                           
  1827                           ;C:/MPlab_Digital2/Digital_2/Proyecto3Digital2.X/initSPI.c: 34:                 SSPCONbi
      +                          ts.SSPM1 = 1;
  1828  066A  1494               	bsf	20,1	;volatile
  1829                           
  1830                           ;C:/MPlab_Digital2/Digital_2/Proyecto3Digital2.X/initSPI.c: 35:                 SSPCONbi
      +                          ts.SSPM0 = 0;
  1831  066B  1014               	bcf	20,0	;volatile
  1832                           
  1833                           ;C:/MPlab_Digital2/Digital_2/Proyecto3Digital2.X/initSPI.c: 36:                 break;
  1834  066C  2E88               	goto	l54
  1835  066D                     l53:	
  1836                           ;C:/MPlab_Digital2/Digital_2/Proyecto3Digital2.X/initSPI.c: 37:             case 3:
  1837                           
  1838                           
  1839                           ;C:/MPlab_Digital2/Digital_2/Proyecto3Digital2.X/initSPI.c: 38:                 SSPCONbi
      +                          ts.SSPM3 = 0;
  1840  066D  1194               	bcf	20,3	;volatile
  1841                           
  1842                           ;C:/MPlab_Digital2/Digital_2/Proyecto3Digital2.X/initSPI.c: 39:                 SSPCONbi
      +                          ts.SSPM2 = 0;
  1843  066E  1114               	bcf	20,2	;volatile
  1844                           
  1845                           ;C:/MPlab_Digital2/Digital_2/Proyecto3Digital2.X/initSPI.c: 40:                 SSPCONbi
      +                          ts.SSPM1 = 1;
  1846  066F  1494               	bsf	20,1	;volatile
  1847                           
  1848                           ;C:/MPlab_Digital2/Digital_2/Proyecto3Digital2.X/initSPI.c: 41:                 SSPCONbi
      +                          ts.SSPM0 = 1;
  1849  0670  1414               	bsf	20,0	;volatile
  1850                           
  1851                           ;C:/MPlab_Digital2/Digital_2/Proyecto3Digital2.X/initSPI.c: 42:                 break;
  1852  0671  2E88               	goto	l54
  1853  0672                     l1522:
  1854  0672  0822               	movf	initSPIMASTER@modo,w
  1855  0673  00A0               	movwf	??_initSPIMASTER
  1856  0674  01A1               	clrf	??_initSPIMASTER+1
  1857                           
  1858                           ; Switch on 2 bytes has been partitioned into a top level switch of size 1, and 1 sub-sw
      +                          itches
  1859                           ; Switch size 1, requested type "simple"
  1860                           ; Number of cases is 1, Range of values is 0 to 0
  1861                           ; switch strategies available:
  1862                           ; Name         Instructions Cycles
  1863                           ; simple_byte            4     3 (average)
  1864                           ; direct_byte           11     8 (fixed)
  1865                           ; jumptable            260     6 (fixed)
  1866                           ;	Chosen strategy is simple_byte
  1867  0675  0821               	movf	??_initSPIMASTER+1,w
  1868  0676  3A00               	xorlw	0	; case 0
  1869  0677  1903               	skipnz
  1870  0678  2E7A               	goto	l2082
  1871  0679  2E88               	goto	l54
  1872  067A                     l2082:
  1873                           
  1874                           ; Switch size 1, requested type "simple"
  1875                           ; Number of cases is 4, Range of values is 0 to 3
  1876                           ; switch strategies available:
  1877                           ; Name         Instructions Cycles
  1878                           ; simple_byte           13     7 (average)
  1879                           ; direct_byte           20     8 (fixed)
  1880                           ; jumptable            260     6 (fixed)
  1881                           ;	Chosen strategy is simple_byte
  1882  067A  0820               	movf	??_initSPIMASTER,w
  1883  067B  3A00               	xorlw	0	; case 0
  1884  067C  1903               	skipnz
  1885  067D  2E5E               	goto	l49
  1886  067E  3A01               	xorlw	1	; case 1
  1887  067F  1903               	skipnz
  1888  0680  2E63               	goto	l51
  1889  0681  3A03               	xorlw	3	; case 2
  1890  0682  1903               	skipnz
  1891  0683  2E68               	goto	l52
  1892  0684  3A01               	xorlw	1	; case 3
  1893  0685  1903               	skipnz
  1894  0686  2E6D               	goto	l53
  1895  0687  2E88               	goto	l54
  1896  0688                     l54:
  1897  0688  0008               	return
  1898  0689                     __end_of_initSPIMASTER:
  1899                           
  1900                           	psect	text4
  1901  0511                     __ptext4:	
  1902 ;; *************** function _initOsc *****************
  1903 ;; Defined at:
  1904 ;;		line 8 in file "C:/MPlab_Digital2/Digital_2/Proyecto3Digital2.X/librerias2.c"
  1905 ;; Parameters:    Size  Location     Type
  1906 ;;  option          1    wreg     unsigned char 
  1907 ;; Auto vars:     Size  Location     Type
  1908 ;;  option          1    2[BANK0 ] unsigned char 
  1909 ;; Return value:  Size  Location     Type
  1910 ;;                  1    wreg      void 
  1911 ;; Registers used:
  1912 ;;		wreg, fsr0l, fsr0h, status,2, status,0
  1913 ;; Tracked objects:
  1914 ;;		On entry : 0/0
  1915 ;;		On exit  : 0/0
  1916 ;;		Unchanged: 0/0
  1917 ;; Data sizes:     COMMON   BANK0   BANK1   BANK3   BANK2
  1918 ;;      Params:         0       0       0       0       0
  1919 ;;      Locals:         0       1       0       0       0
  1920 ;;      Temps:          0       2       0       0       0
  1921 ;;      Totals:         0       3       0       0       0
  1922 ;;Total ram usage:        3 bytes
  1923 ;; Hardware stack levels used:    1
  1924 ;; Hardware stack levels required when called:    3
  1925 ;; This function calls:
  1926 ;;		Nothing
  1927 ;; This function is called by:
  1928 ;;		_setup
  1929 ;; This function uses a non-reentrant model
  1930 ;;
  1931                           
  1932                           
  1933                           ;psect for function _initOsc
  1934  0511                     _initOsc:
  1935                           
  1936                           ;incstack = 0
  1937                           ; Regs used in _initOsc: [wreg-fsr0h+status,2+status,0]
  1938                           ;initOsc@option stored from wreg
  1939  0511  1283               	bcf	3,5	;RP0=0, select bank0
  1940  0512  1303               	bcf	3,6	;RP1=0, select bank0
  1941  0513  00A2               	movwf	initOsc@option
  1942  0514                     l1528:
  1943                           
  1944                           ;C:/MPlab_Digital2/Digital_2/Proyecto3Digital2.X/librerias2.c: 9:     switch (option){
  1945  0514  2D45               	goto	l1532
  1946  0515                     l67:	
  1947                           ;C:/MPlab_Digital2/Digital_2/Proyecto3Digital2.X/librerias2.c: 10:         case 0:
  1948                           
  1949                           
  1950                           ;C:/MPlab_Digital2/Digital_2/Proyecto3Digital2.X/librerias2.c: 11:             OSCCONbit
      +                          s.IRCF2 = 0;
  1951  0515  1683               	bsf	3,5	;RP0=1, select bank1
  1952  0516  1303               	bcf	3,6	;RP1=0, select bank1
  1953  0517  130F               	bcf	15,6	;volatile
  1954                           
  1955                           ;C:/MPlab_Digital2/Digital_2/Proyecto3Digital2.X/librerias2.c: 12:             OSCCONbit
      +                          s.IRCF1 = 0;
  1956  0518  128F               	bcf	15,5	;volatile
  1957                           
  1958                           ;C:/MPlab_Digital2/Digital_2/Proyecto3Digital2.X/librerias2.c: 13:             OSCCONbit
      +                          s.IRCF0 = 0;
  1959  0519  120F               	bcf	15,4	;volatile
  1960                           
  1961                           ;C:/MPlab_Digital2/Digital_2/Proyecto3Digital2.X/librerias2.c: 14:             break;
  1962  051A  2D67               	goto	l76
  1963  051B                     l69:	
  1964                           ;C:/MPlab_Digital2/Digital_2/Proyecto3Digital2.X/librerias2.c: 15:         case 1:
  1965                           
  1966                           
  1967                           ;C:/MPlab_Digital2/Digital_2/Proyecto3Digital2.X/librerias2.c: 16:             OSCCONbit
      +                          s.IRCF2 = 0;
  1968  051B  1683               	bsf	3,5	;RP0=1, select bank1
  1969  051C  1303               	bcf	3,6	;RP1=0, select bank1
  1970  051D  130F               	bcf	15,6	;volatile
  1971                           
  1972                           ;C:/MPlab_Digital2/Digital_2/Proyecto3Digital2.X/librerias2.c: 17:             OSCCONbit
      +                          s.IRCF1 = 0;
  1973  051E  128F               	bcf	15,5	;volatile
  1974                           
  1975                           ;C:/MPlab_Digital2/Digital_2/Proyecto3Digital2.X/librerias2.c: 18:             OSCCONbit
      +                          s.IRCF0 = 1;
  1976  051F  160F               	bsf	15,4	;volatile
  1977                           
  1978                           ;C:/MPlab_Digital2/Digital_2/Proyecto3Digital2.X/librerias2.c: 19:             break;
  1979  0520  2D67               	goto	l76
  1980  0521                     l70:	
  1981                           ;C:/MPlab_Digital2/Digital_2/Proyecto3Digital2.X/librerias2.c: 20:         case 2:
  1982                           
  1983                           
  1984                           ;C:/MPlab_Digital2/Digital_2/Proyecto3Digital2.X/librerias2.c: 21:             OSCCONbit
      +                          s.IRCF2 = 0;
  1985  0521  1683               	bsf	3,5	;RP0=1, select bank1
  1986  0522  1303               	bcf	3,6	;RP1=0, select bank1
  1987  0523  130F               	bcf	15,6	;volatile
  1988                           
  1989                           ;C:/MPlab_Digital2/Digital_2/Proyecto3Digital2.X/librerias2.c: 22:             OSCCONbit
      +                          s.IRCF1 = 1;
  1990  0524  168F               	bsf	15,5	;volatile
  1991                           
  1992                           ;C:/MPlab_Digital2/Digital_2/Proyecto3Digital2.X/librerias2.c: 23:             OSCCONbit
      +                          s.IRCF0 = 0;
  1993  0525  120F               	bcf	15,4	;volatile
  1994                           
  1995                           ;C:/MPlab_Digital2/Digital_2/Proyecto3Digital2.X/librerias2.c: 24:             break;
  1996  0526  2D67               	goto	l76
  1997  0527                     l71:	
  1998                           ;C:/MPlab_Digital2/Digital_2/Proyecto3Digital2.X/librerias2.c: 25:         case 3:
  1999                           
  2000                           
  2001                           ;C:/MPlab_Digital2/Digital_2/Proyecto3Digital2.X/librerias2.c: 26:             OSCCONbit
      +                          s.IRCF2 = 0;
  2002  0527  1683               	bsf	3,5	;RP0=1, select bank1
  2003  0528  1303               	bcf	3,6	;RP1=0, select bank1
  2004  0529  130F               	bcf	15,6	;volatile
  2005                           
  2006                           ;C:/MPlab_Digital2/Digital_2/Proyecto3Digital2.X/librerias2.c: 27:             OSCCONbit
      +                          s.IRCF1 = 1;
  2007  052A  168F               	bsf	15,5	;volatile
  2008                           
  2009                           ;C:/MPlab_Digital2/Digital_2/Proyecto3Digital2.X/librerias2.c: 28:             OSCCONbit
      +                          s.IRCF0 = 1;
  2010  052B  160F               	bsf	15,4	;volatile
  2011                           
  2012                           ;C:/MPlab_Digital2/Digital_2/Proyecto3Digital2.X/librerias2.c: 29:             break;
  2013  052C  2D67               	goto	l76
  2014  052D                     l72:	
  2015                           ;C:/MPlab_Digital2/Digital_2/Proyecto3Digital2.X/librerias2.c: 30:         case 4:
  2016                           
  2017                           
  2018                           ;C:/MPlab_Digital2/Digital_2/Proyecto3Digital2.X/librerias2.c: 31:             OSCCONbit
      +                          s.IRCF2 = 1;
  2019  052D  1683               	bsf	3,5	;RP0=1, select bank1
  2020  052E  1303               	bcf	3,6	;RP1=0, select bank1
  2021  052F  170F               	bsf	15,6	;volatile
  2022                           
  2023                           ;C:/MPlab_Digital2/Digital_2/Proyecto3Digital2.X/librerias2.c: 32:             OSCCONbit
      +                          s.IRCF1 = 0;
  2024  0530  128F               	bcf	15,5	;volatile
  2025                           
  2026                           ;C:/MPlab_Digital2/Digital_2/Proyecto3Digital2.X/librerias2.c: 33:             OSCCONbit
      +                          s.IRCF0 = 0;
  2027  0531  120F               	bcf	15,4	;volatile
  2028                           
  2029                           ;C:/MPlab_Digital2/Digital_2/Proyecto3Digital2.X/librerias2.c: 34:             break;
  2030  0532  2D67               	goto	l76
  2031  0533                     l73:	
  2032                           ;C:/MPlab_Digital2/Digital_2/Proyecto3Digital2.X/librerias2.c: 35:         case 5:
  2033                           
  2034                           
  2035                           ;C:/MPlab_Digital2/Digital_2/Proyecto3Digital2.X/librerias2.c: 36:             OSCCONbit
      +                          s.IRCF2 = 1;
  2036  0533  1683               	bsf	3,5	;RP0=1, select bank1
  2037  0534  1303               	bcf	3,6	;RP1=0, select bank1
  2038  0535  170F               	bsf	15,6	;volatile
  2039                           
  2040                           ;C:/MPlab_Digital2/Digital_2/Proyecto3Digital2.X/librerias2.c: 37:             OSCCONbit
      +                          s.IRCF1 = 0;
  2041  0536  128F               	bcf	15,5	;volatile
  2042                           
  2043                           ;C:/MPlab_Digital2/Digital_2/Proyecto3Digital2.X/librerias2.c: 38:             OSCCONbit
      +                          s.IRCF0 = 1;
  2044  0537  160F               	bsf	15,4	;volatile
  2045                           
  2046                           ;C:/MPlab_Digital2/Digital_2/Proyecto3Digital2.X/librerias2.c: 39:             break;
  2047  0538  2D67               	goto	l76
  2048  0539                     l74:	
  2049                           ;C:/MPlab_Digital2/Digital_2/Proyecto3Digital2.X/librerias2.c: 40:         case 6:
  2050                           
  2051                           
  2052                           ;C:/MPlab_Digital2/Digital_2/Proyecto3Digital2.X/librerias2.c: 41:             OSCCONbit
      +                          s.IRCF2 = 1;
  2053  0539  1683               	bsf	3,5	;RP0=1, select bank1
  2054  053A  1303               	bcf	3,6	;RP1=0, select bank1
  2055  053B  170F               	bsf	15,6	;volatile
  2056                           
  2057                           ;C:/MPlab_Digital2/Digital_2/Proyecto3Digital2.X/librerias2.c: 42:             OSCCONbit
      +                          s.IRCF1 = 1;
  2058  053C  168F               	bsf	15,5	;volatile
  2059                           
  2060                           ;C:/MPlab_Digital2/Digital_2/Proyecto3Digital2.X/librerias2.c: 43:             OSCCONbit
      +                          s.IRCF0 = 0;
  2061  053D  120F               	bcf	15,4	;volatile
  2062                           
  2063                           ;C:/MPlab_Digital2/Digital_2/Proyecto3Digital2.X/librerias2.c: 44:             break;
  2064  053E  2D67               	goto	l76
  2065  053F                     l75:	
  2066                           ;C:/MPlab_Digital2/Digital_2/Proyecto3Digital2.X/librerias2.c: 45:         case 7:
  2067                           
  2068                           
  2069                           ;C:/MPlab_Digital2/Digital_2/Proyecto3Digital2.X/librerias2.c: 46:             OSCCONbit
      +                          s.IRCF2 = 1;
  2070  053F  1683               	bsf	3,5	;RP0=1, select bank1
  2071  0540  1303               	bcf	3,6	;RP1=0, select bank1
  2072  0541  170F               	bsf	15,6	;volatile
  2073                           
  2074                           ;C:/MPlab_Digital2/Digital_2/Proyecto3Digital2.X/librerias2.c: 47:             OSCCONbit
      +                          s.IRCF1 = 1;
  2075  0542  168F               	bsf	15,5	;volatile
  2076                           
  2077                           ;C:/MPlab_Digital2/Digital_2/Proyecto3Digital2.X/librerias2.c: 48:             OSCCONbit
      +                          s.IRCF0 = 1;
  2078  0543  160F               	bsf	15,4	;volatile
  2079                           
  2080                           ;C:/MPlab_Digital2/Digital_2/Proyecto3Digital2.X/librerias2.c: 49:             break;
  2081  0544  2D67               	goto	l76
  2082  0545                     l1532:
  2083  0545  0822               	movf	initOsc@option,w
  2084  0546  00A0               	movwf	??_initOsc
  2085  0547  01A1               	clrf	??_initOsc+1
  2086                           
  2087                           ; Switch on 2 bytes has been partitioned into a top level switch of size 1, and 1 sub-sw
      +                          itches
  2088                           ; Switch size 1, requested type "simple"
  2089                           ; Number of cases is 1, Range of values is 0 to 0
  2090                           ; switch strategies available:
  2091                           ; Name         Instructions Cycles
  2092                           ; simple_byte            4     3 (average)
  2093                           ; direct_byte           11     8 (fixed)
  2094                           ; jumptable            260     6 (fixed)
  2095                           ;	Chosen strategy is simple_byte
  2096  0548  0821               	movf	??_initOsc+1,w
  2097  0549  3A00               	xorlw	0	; case 0
  2098  054A  1903               	skipnz
  2099  054B  2D4D               	goto	l2084
  2100  054C  2D67               	goto	l76
  2101  054D                     l2084:
  2102                           
  2103                           ; Switch size 1, requested type "simple"
  2104                           ; Number of cases is 8, Range of values is 0 to 7
  2105                           ; switch strategies available:
  2106                           ; Name         Instructions Cycles
  2107                           ; simple_byte           25    13 (average)
  2108                           ; direct_byte           32     8 (fixed)
  2109                           ; jumptable            260     6 (fixed)
  2110                           ;	Chosen strategy is simple_byte
  2111  054D  0820               	movf	??_initOsc,w
  2112  054E  3A00               	xorlw	0	; case 0
  2113  054F  1903               	skipnz
  2114  0550  2D15               	goto	l67
  2115  0551  3A01               	xorlw	1	; case 1
  2116  0552  1903               	skipnz
  2117  0553  2D1B               	goto	l69
  2118  0554  3A03               	xorlw	3	; case 2
  2119  0555  1903               	skipnz
  2120  0556  2D21               	goto	l70
  2121  0557  3A01               	xorlw	1	; case 3
  2122  0558  1903               	skipnz
  2123  0559  2D27               	goto	l71
  2124  055A  3A07               	xorlw	7	; case 4
  2125  055B  1903               	skipnz
  2126  055C  2D2D               	goto	l72
  2127  055D  3A01               	xorlw	1	; case 5
  2128  055E  1903               	skipnz
  2129  055F  2D33               	goto	l73
  2130  0560  3A03               	xorlw	3	; case 6
  2131  0561  1903               	skipnz
  2132  0562  2D39               	goto	l74
  2133  0563  3A01               	xorlw	1	; case 7
  2134  0564  1903               	skipnz
  2135  0565  2D3F               	goto	l75
  2136  0566  2D67               	goto	l76
  2137  0567                     l76:
  2138  0567  0008               	return
  2139  0568                     __end_of_initOsc:
  2140                           
  2141                           	psect	text5
  2142  04B7                     __ptext5:	
  2143 ;; *************** function _Lcd_Init *****************
  2144 ;; Defined at:
  2145 ;;		line 40 in file "C:/MPlab_Digital2/Digital_2/Proyecto3Digital2.X/Display8bits.c"
  2146 ;; Parameters:    Size  Location     Type
  2147 ;;		None
  2148 ;; Auto vars:     Size  Location     Type
  2149 ;;		None
  2150 ;; Return value:  Size  Location     Type
  2151 ;;                  1    wreg      void 
  2152 ;; Registers used:
  2153 ;;		wreg, status,2, status,0, pclath, cstack
  2154 ;; Tracked objects:
  2155 ;;		On entry : 0/0
  2156 ;;		On exit  : 0/0
  2157 ;;		Unchanged: 0/0
  2158 ;; Data sizes:     COMMON   BANK0   BANK1   BANK3   BANK2
  2159 ;;      Params:         0       0       0       0       0
  2160 ;;      Locals:         0       0       0       0       0
  2161 ;;      Temps:          0       2       0       0       0
  2162 ;;      Totals:         0       2       0       0       0
  2163 ;;Total ram usage:        2 bytes
  2164 ;; Hardware stack levels used:    1
  2165 ;; Hardware stack levels required when called:    5
  2166 ;; This function calls:
  2167 ;;		_Lcd_Cmd
  2168 ;;		_Lcd_Port
  2169 ;; This function is called by:
  2170 ;;		_setup
  2171 ;; This function uses a non-reentrant model
  2172 ;;
  2173                           
  2174                           
  2175                           ;psect for function _Lcd_Init
  2176  04B7                     _Lcd_Init:
  2177  04B7                     l1486:	
  2178                           ;incstack = 0
  2179                           ; Regs used in _Lcd_Init: [wreg+status,2+status,0+pclath+cstack]
  2180                           
  2181                           
  2182                           ;C:/MPlab_Digital2/Digital_2/Proyecto3Digital2.X/Display8bits.c: 41:   _delay((unsigned 
      +                          long)((15)*(400000/4000.0)));
  2183  04B7  30D5               	movlw	213
  2184  04B8  1283               	bcf	3,5	;RP0=0, select bank0
  2185  04B9  1303               	bcf	3,6	;RP1=0, select bank0
  2186  04BA  00A3               	movwf	??_Lcd_Init
  2187  04BB                     u717:
  2188  04BB  2CBC               	nop2
  2189  04BC  2CBD               	nop2
  2190  04BD  0BA3               	decfsz	??_Lcd_Init,f
  2191  04BE  2CBB               	goto	u717
  2192  04BF  2CC0               	nop2
  2193  04C0  2CC1               	nop2
  2194  04C1  2CC2               	nop2
  2195  04C2                     l1488:
  2196                           
  2197                           ;C:/MPlab_Digital2/Digital_2/Proyecto3Digital2.X/Display8bits.c: 42:   Lcd_Port(0x00);
  2198  04C2  3000               	movlw	0
  2199  04C3  120A  118A  2795  120A  118A  	fcall	_Lcd_Port
  2200  04C8                     l1490:
  2201                           
  2202                           ;C:/MPlab_Digital2/Digital_2/Proyecto3Digital2.X/Display8bits.c: 43:    _delay((unsigned
      +                           long)((20)*(400000/4000.0)));
  2203  04C8  3003               	movlw	3
  2204  04C9  1283               	bcf	3,5	;RP0=0, select bank0
  2205  04CA  1303               	bcf	3,6	;RP1=0, select bank0
  2206  04CB  00A4               	movwf	??_Lcd_Init+1
  2207  04CC  3097               	movlw	151
  2208  04CD  00A3               	movwf	??_Lcd_Init
  2209  04CE                     u727:
  2210  04CE  0BA3               	decfsz	??_Lcd_Init,f
  2211  04CF  2CCE               	goto	u727
  2212  04D0  0BA4               	decfsz	??_Lcd_Init+1,f
  2213  04D1  2CCE               	goto	u727
  2214                           
  2215                           ;C:/MPlab_Digital2/Digital_2/Proyecto3Digital2.X/Display8bits.c: 44:   Lcd_Cmd(0x30);
  2216  04D2  3030               	movlw	48
  2217  04D3  120A  118A  26FF  120A  118A  	fcall	_Lcd_Cmd
  2218  04D8                     l1492:
  2219                           
  2220                           ;C:/MPlab_Digital2/Digital_2/Proyecto3Digital2.X/Display8bits.c: 45:  _delay((unsigned l
      +                          ong)((5)*(400000/4000.0)));
  2221  04D8  30A5               	movlw	165
  2222  04D9  1283               	bcf	3,5	;RP0=0, select bank0
  2223  04DA  1303               	bcf	3,6	;RP1=0, select bank0
  2224  04DB  00A3               	movwf	??_Lcd_Init
  2225  04DC                     u737:
  2226  04DC  0BA3               	decfsz	??_Lcd_Init,f
  2227  04DD  2CDC               	goto	u737
  2228  04DE  2CDF               	nop2
  2229  04DF                     l1494:
  2230                           
  2231                           ;C:/MPlab_Digital2/Digital_2/Proyecto3Digital2.X/Display8bits.c: 46:   Lcd_Cmd(0x30);
  2232  04DF  3030               	movlw	48
  2233  04E0  120A  118A  26FF  120A  118A  	fcall	_Lcd_Cmd
  2234                           
  2235                           ;C:/MPlab_Digital2/Digital_2/Proyecto3Digital2.X/Display8bits.c: 47:  _delay((unsigned l
      +                          ong)((160)*(400000/4000000.0)));
  2236  04E5  3004               	movlw	4
  2237  04E6  1283               	bcf	3,5	;RP0=0, select bank0
  2238  04E7  1303               	bcf	3,6	;RP1=0, select bank0
  2239  04E8  00A3               	movwf	??_Lcd_Init
  2240  04E9                     u747:
  2241  04E9  0BA3               	decfsz	??_Lcd_Init,f
  2242  04EA  2CE9               	goto	u747
  2243  04EB  0000               	nop
  2244  04EC                     l1496:
  2245                           
  2246                           ;C:/MPlab_Digital2/Digital_2/Proyecto3Digital2.X/Display8bits.c: 48:   Lcd_Cmd(0x30);
  2247  04EC  3030               	movlw	48
  2248  04ED  120A  118A  26FF  120A  118A  	fcall	_Lcd_Cmd
  2249  04F2                     l1498:
  2250                           
  2251                           ;C:/MPlab_Digital2/Digital_2/Proyecto3Digital2.X/Display8bits.c: 50:   Lcd_Cmd(0x38);
  2252  04F2  3038               	movlw	56
  2253  04F3  120A  118A  26FF  120A  118A  	fcall	_Lcd_Cmd
  2254  04F8                     l1500:
  2255                           
  2256                           ;C:/MPlab_Digital2/Digital_2/Proyecto3Digital2.X/Display8bits.c: 51:   Lcd_Cmd(0x10);
  2257  04F8  3010               	movlw	16
  2258  04F9  120A  118A  26FF  120A  118A  	fcall	_Lcd_Cmd
  2259  04FE                     l1502:
  2260                           
  2261                           ;C:/MPlab_Digital2/Digital_2/Proyecto3Digital2.X/Display8bits.c: 52:   Lcd_Cmd(0x01);
  2262  04FE  3001               	movlw	1
  2263  04FF  120A  118A  26FF  120A  118A  	fcall	_Lcd_Cmd
  2264  0504                     l1504:
  2265                           
  2266                           ;C:/MPlab_Digital2/Digital_2/Proyecto3Digital2.X/Display8bits.c: 53:   Lcd_Cmd(0x06);
  2267  0504  3006               	movlw	6
  2268  0505  120A  118A  26FF  120A  118A  	fcall	_Lcd_Cmd
  2269  050A                     l1506:
  2270                           
  2271                           ;C:/MPlab_Digital2/Digital_2/Proyecto3Digital2.X/Display8bits.c: 54:   Lcd_Cmd(0x0C);
  2272  050A  300C               	movlw	12
  2273  050B  120A  118A  26FF  120A  118A  	fcall	_Lcd_Cmd
  2274  0510                     l26:
  2275  0510  0008               	return
  2276  0511                     __end_of_Lcd_Init:
  2277                           
  2278                           	psect	text6
  2279  01D8                     __ptext6:	
  2280 ;; *************** function _mapeo *****************
  2281 ;; Defined at:
  2282 ;;		line 232 in file "C:/MPlab_Digital2/Digital_2/Proyecto3Digital2.X/main.c"
  2283 ;; Parameters:    Size  Location     Type
  2284 ;;		None
  2285 ;; Auto vars:     Size  Location     Type
  2286 ;;  TEMP2           2   25[BANK0 ] unsigned int 
  2287 ;;  TEMP1           2   23[BANK0 ] unsigned int 
  2288 ;; Return value:  Size  Location     Type
  2289 ;;                  1    wreg      void 
  2290 ;; Registers used:
  2291 ;;		wreg, status,2, status,0, btemp+1, pclath, cstack
  2292 ;; Tracked objects:
  2293 ;;		On entry : 0/0
  2294 ;;		On exit  : 0/0
  2295 ;;		Unchanged: 0/0
  2296 ;; Data sizes:     COMMON   BANK0   BANK1   BANK3   BANK2
  2297 ;;      Params:         0       0       0       0       0
  2298 ;;      Locals:         0       4       0       0       0
  2299 ;;      Temps:          0       2       0       0       0
  2300 ;;      Totals:         0       6       0       0       0
  2301 ;;Total ram usage:        6 bytes
  2302 ;; Hardware stack levels used:    1
  2303 ;; Hardware stack levels required when called:    4
  2304 ;; This function calls:
  2305 ;;		___awdiv
  2306 ;;		___bmul
  2307 ;;		___lwdiv
  2308 ;;		___wmul
  2309 ;; This function is called by:
  2310 ;;		_main
  2311 ;; This function uses a non-reentrant model
  2312 ;;
  2313                           
  2314                           
  2315                           ;psect for function _mapeo
  2316  01D8                     _mapeo:
  2317  01D8                     l1866:	
  2318                           ;incstack = 0
  2319                           ; Regs used in _mapeo: [wreg+status,2+status,0+btemp+1+pclath+cstack]
  2320                           
  2321  01D8  1283               	bcf	3,5	;RP0=0, select bank0
  2322  01D9  1303               	bcf	3,6	;RP1=0, select bank0
  2323  01DA  01B9               	clrf	mapeo@TEMP2
  2324  01DB  01BA               	clrf	mapeo@TEMP2+1
  2325  01DC                     l1868:
  2326  01DC  3033               	movlw	51
  2327  01DD  00A0               	movwf	___awdiv@divisor
  2328  01DE  3000               	movlw	0
  2329  01DF  00A1               	movwf	___awdiv@divisor+1
  2330  01E0  087C               	movf	_esclavo1,w
  2331  01E1  00B5               	movwf	??_mapeo
  2332  01E2  01B6               	clrf	??_mapeo+1
  2333  01E3  0835               	movf	??_mapeo,w
  2334  01E4  00A8               	movwf	___wmul@multiplier
  2335  01E5  0836               	movf	??_mapeo+1,w
  2336  01E6  00A9               	movwf	___wmul@multiplier+1
  2337  01E7  3064               	movlw	100
  2338  01E8  00AA               	movwf	___wmul@multiplicand
  2339  01E9  3000               	movlw	0
  2340  01EA  00AB               	movwf	___wmul@multiplicand+1
  2341  01EB  120A  118A  26B2  120A  118A  	fcall	___wmul
  2342  01F0  1283               	bcf	3,5	;RP0=0, select bank0
  2343  01F1  1303               	bcf	3,6	;RP1=0, select bank0
  2344  01F2  0829               	movf	?___wmul+1,w
  2345  01F3  00A3               	movwf	___awdiv@dividend+1
  2346  01F4  0828               	movf	?___wmul,w
  2347  01F5  00A2               	movwf	___awdiv@dividend
  2348  01F6  120A  118A  244E  120A  118A  	fcall	___awdiv
  2349  01FB  1283               	bcf	3,5	;RP0=0, select bank0
  2350  01FC  1303               	bcf	3,6	;RP1=0, select bank0
  2351  01FD  0821               	movf	?___awdiv+1,w
  2352  01FE  00B8               	movwf	mapeo@TEMP1+1
  2353  01FF  0820               	movf	?___awdiv,w
  2354  0200  00B7               	movwf	mapeo@TEMP1
  2355  0201                     l1870:
  2356  0201  3011               	movlw	17
  2357  0202  00A0               	movwf	___awdiv@divisor
  2358  0203  3000               	movlw	0
  2359  0204  00A1               	movwf	___awdiv@divisor+1
  2360  0205  087B               	movf	_esclavo3,w
  2361  0206  00B5               	movwf	??_mapeo
  2362  0207  01B6               	clrf	??_mapeo+1
  2363  0208  0835               	movf	??_mapeo,w
  2364  0209  00A8               	movwf	___wmul@multiplier
  2365  020A  0836               	movf	??_mapeo+1,w
  2366  020B  00A9               	movwf	___wmul@multiplier+1
  2367  020C  300A               	movlw	10
  2368  020D  00AA               	movwf	___wmul@multiplicand
  2369  020E  3000               	movlw	0
  2370  020F  00AB               	movwf	___wmul@multiplicand+1
  2371  0210  120A  118A  26B2  120A  118A  	fcall	___wmul
  2372  0215  1283               	bcf	3,5	;RP0=0, select bank0
  2373  0216  1303               	bcf	3,6	;RP1=0, select bank0
  2374  0217  0829               	movf	?___wmul+1,w
  2375  0218  00A3               	movwf	___awdiv@dividend+1
  2376  0219  0828               	movf	?___wmul,w
  2377  021A  00A2               	movwf	___awdiv@dividend
  2378  021B  120A  118A  244E  120A  118A  	fcall	___awdiv
  2379  0220  1283               	bcf	3,5	;RP0=0, select bank0
  2380  0221  1303               	bcf	3,6	;RP1=0, select bank0
  2381  0222  0821               	movf	?___awdiv+1,w
  2382  0223  00BA               	movwf	mapeo@TEMP2+1
  2383  0224  0820               	movf	?___awdiv,w
  2384  0225  00B9               	movwf	mapeo@TEMP2
  2385  0226                     l1872:
  2386  0226  3064               	movlw	100
  2387  0227  00AE               	movwf	___lwdiv@divisor
  2388  0228  3000               	movlw	0
  2389  0229  00AF               	movwf	___lwdiv@divisor+1
  2390  022A  0838               	movf	mapeo@TEMP1+1,w
  2391  022B  00B1               	movwf	___lwdiv@dividend+1
  2392  022C  0837               	movf	mapeo@TEMP1,w
  2393  022D  00B0               	movwf	___lwdiv@dividend
  2394  022E  120A  118A  260C  120A  118A  	fcall	___lwdiv
  2395  0233  1283               	bcf	3,5	;RP0=0, select bank0
  2396  0234  1303               	bcf	3,6	;RP1=0, select bank0
  2397  0235  082E               	movf	?___lwdiv,w
  2398  0236  00FF               	movwf	btemp+1
  2399  0237  087F               	movf	btemp+1,w
  2400  0238  00C2               	movwf	_centenasp1
  2401  0239                     l1874:
  2402  0239  300A               	movlw	10
  2403  023A  00AE               	movwf	___lwdiv@divisor
  2404  023B  3000               	movlw	0
  2405  023C  00AF               	movwf	___lwdiv@divisor+1
  2406  023D  0842               	movf	_centenasp1,w
  2407  023E  00B5               	movwf	??_mapeo
  2408  023F  01B6               	clrf	??_mapeo+1
  2409  0240  0835               	movf	??_mapeo,w
  2410  0241  00A8               	movwf	___wmul@multiplier
  2411  0242  0836               	movf	??_mapeo+1,w
  2412  0243  00A9               	movwf	___wmul@multiplier+1
  2413  0244  309C               	movlw	156
  2414  0245  00AA               	movwf	___wmul@multiplicand
  2415  0246  30FF               	movlw	255
  2416  0247  00AB               	movwf	___wmul@multiplicand+1
  2417  0248  120A  118A  26B2  120A  118A  	fcall	___wmul
  2418  024D  1283               	bcf	3,5	;RP0=0, select bank0
  2419  024E  1303               	bcf	3,6	;RP1=0, select bank0
  2420  024F  0837               	movf	mapeo@TEMP1,w
  2421  0250  0728               	addwf	?___wmul,w
  2422  0251  00B0               	movwf	___lwdiv@dividend
  2423  0252  0838               	movf	mapeo@TEMP1+1,w
  2424  0253  1803               	skipnc
  2425  0254  0A38               	incf	mapeo@TEMP1+1,w
  2426  0255  0729               	addwf	?___wmul+1,w
  2427  0256  00B1               	movwf	___lwdiv@dividend+1
  2428  0257  120A  118A  260C  120A  118A  	fcall	___lwdiv
  2429  025C  1283               	bcf	3,5	;RP0=0, select bank0
  2430  025D  1303               	bcf	3,6	;RP1=0, select bank0
  2431  025E  082E               	movf	?___lwdiv,w
  2432  025F  00FF               	movwf	btemp+1
  2433  0260  087F               	movf	btemp+1,w
  2434  0261  00C3               	movwf	_decenasp1
  2435  0262                     l1876:
  2436  0262  309C               	movlw	156
  2437  0263  00FF               	movwf	btemp+1
  2438  0264  087F               	movf	btemp+1,w
  2439  0265  00A0               	movwf	___bmul@multiplicand
  2440  0266  0842               	movf	_centenasp1,w
  2441  0267  120A  118A  2731  120A  118A  	fcall	___bmul
  2442  026C  1283               	bcf	3,5	;RP0=0, select bank0
  2443  026D  1303               	bcf	3,6	;RP1=0, select bank0
  2444  026E  00B5               	movwf	??_mapeo
  2445  026F  30F6               	movlw	246
  2446  0270  00FF               	movwf	btemp+1
  2447  0271  087F               	movf	btemp+1,w
  2448  0272  00A0               	movwf	___bmul@multiplicand
  2449  0273  0843               	movf	_decenasp1,w
  2450  0274  120A  118A  2731  120A  118A  	fcall	___bmul
  2451  0279  1283               	bcf	3,5	;RP0=0, select bank0
  2452  027A  1303               	bcf	3,6	;RP1=0, select bank0
  2453  027B  0735               	addwf	??_mapeo,w
  2454  027C  0737               	addwf	mapeo@TEMP1,w
  2455  027D  00FF               	movwf	btemp+1
  2456  027E  087F               	movf	btemp+1,w
  2457  027F  00C4               	movwf	_unidadesp1
  2458  0280                     l1878:
  2459  0280  3064               	movlw	100
  2460  0281  00AE               	movwf	___lwdiv@divisor
  2461  0282  3000               	movlw	0
  2462  0283  00AF               	movwf	___lwdiv@divisor+1
  2463  0284  083A               	movf	mapeo@TEMP2+1,w
  2464  0285  00B1               	movwf	___lwdiv@dividend+1
  2465  0286  0839               	movf	mapeo@TEMP2,w
  2466  0287  00B0               	movwf	___lwdiv@dividend
  2467  0288  120A  118A  260C  120A  118A  	fcall	___lwdiv
  2468  028D  1283               	bcf	3,5	;RP0=0, select bank0
  2469  028E  1303               	bcf	3,6	;RP1=0, select bank0
  2470  028F  082E               	movf	?___lwdiv,w
  2471  0290  00FF               	movwf	btemp+1
  2472  0291  087F               	movf	btemp+1,w
  2473  0292  00BF               	movwf	_centenasp2
  2474  0293                     l1880:
  2475  0293  300A               	movlw	10
  2476  0294  00AE               	movwf	___lwdiv@divisor
  2477  0295  3000               	movlw	0
  2478  0296  00AF               	movwf	___lwdiv@divisor+1
  2479  0297  083F               	movf	_centenasp2,w
  2480  0298  00B5               	movwf	??_mapeo
  2481  0299  01B6               	clrf	??_mapeo+1
  2482  029A  0835               	movf	??_mapeo,w
  2483  029B  00A8               	movwf	___wmul@multiplier
  2484  029C  0836               	movf	??_mapeo+1,w
  2485  029D  00A9               	movwf	___wmul@multiplier+1
  2486  029E  309C               	movlw	156
  2487  029F  00AA               	movwf	___wmul@multiplicand
  2488  02A0  30FF               	movlw	255
  2489  02A1  00AB               	movwf	___wmul@multiplicand+1
  2490  02A2  120A  118A  26B2  120A  118A  	fcall	___wmul
  2491  02A7  1283               	bcf	3,5	;RP0=0, select bank0
  2492  02A8  1303               	bcf	3,6	;RP1=0, select bank0
  2493  02A9  0839               	movf	mapeo@TEMP2,w
  2494  02AA  0728               	addwf	?___wmul,w
  2495  02AB  00B0               	movwf	___lwdiv@dividend
  2496  02AC  083A               	movf	mapeo@TEMP2+1,w
  2497  02AD  1803               	skipnc
  2498  02AE  0A3A               	incf	mapeo@TEMP2+1,w
  2499  02AF  0729               	addwf	?___wmul+1,w
  2500  02B0  00B1               	movwf	___lwdiv@dividend+1
  2501  02B1  120A  118A  260C  120A  118A  	fcall	___lwdiv
  2502  02B6  1283               	bcf	3,5	;RP0=0, select bank0
  2503  02B7  1303               	bcf	3,6	;RP1=0, select bank0
  2504  02B8  082E               	movf	?___lwdiv,w
  2505  02B9  00FF               	movwf	btemp+1
  2506  02BA  087F               	movf	btemp+1,w
  2507  02BB  00C0               	movwf	_decenasp2
  2508  02BC                     l1882:
  2509  02BC  309C               	movlw	156
  2510  02BD  00FF               	movwf	btemp+1
  2511  02BE  087F               	movf	btemp+1,w
  2512  02BF  00A0               	movwf	___bmul@multiplicand
  2513  02C0  083F               	movf	_centenasp2,w
  2514  02C1  120A  118A  2731  120A  118A  	fcall	___bmul
  2515  02C6  1283               	bcf	3,5	;RP0=0, select bank0
  2516  02C7  1303               	bcf	3,6	;RP1=0, select bank0
  2517  02C8  00B5               	movwf	??_mapeo
  2518  02C9  30F6               	movlw	246
  2519  02CA  00FF               	movwf	btemp+1
  2520  02CB  087F               	movf	btemp+1,w
  2521  02CC  00A0               	movwf	___bmul@multiplicand
  2522  02CD  0840               	movf	_decenasp2,w
  2523  02CE  120A  118A  2731  120A  118A  	fcall	___bmul
  2524  02D3  1283               	bcf	3,5	;RP0=0, select bank0
  2525  02D4  1303               	bcf	3,6	;RP1=0, select bank0
  2526  02D5  0735               	addwf	??_mapeo,w
  2527  02D6  0739               	addwf	mapeo@TEMP2,w
  2528  02D7  00FF               	movwf	btemp+1
  2529  02D8  087F               	movf	btemp+1,w
  2530  02D9  00C1               	movwf	_unidadesp2
  2531  02DA                     l229:
  2532  02DA  0008               	return
  2533  02DB                     __end_of_mapeo:
  2534                           
  2535                           	psect	text7
  2536  06B2                     __ptext7:	
  2537 ;; *************** function ___wmul *****************
  2538 ;; Defined at:
  2539 ;;		line 15 in file "C:\Program Files\Microchip\xc8\v2.20\pic\sources\c90\common\Umul16.c"
  2540 ;; Parameters:    Size  Location     Type
  2541 ;;  multiplier      2    8[BANK0 ] unsigned int 
  2542 ;;  multiplicand    2   10[BANK0 ] unsigned int 
  2543 ;; Auto vars:     Size  Location     Type
  2544 ;;  product         2   12[BANK0 ] unsigned int 
  2545 ;; Return value:  Size  Location     Type
  2546 ;;                  2    8[BANK0 ] unsigned int 
  2547 ;; Registers used:
  2548 ;;		wreg, status,2, status,0
  2549 ;; Tracked objects:
  2550 ;;		On entry : 0/0
  2551 ;;		On exit  : 0/0
  2552 ;;		Unchanged: 0/0
  2553 ;; Data sizes:     COMMON   BANK0   BANK1   BANK3   BANK2
  2554 ;;      Params:         0       4       0       0       0
  2555 ;;      Locals:         0       2       0       0       0
  2556 ;;      Temps:          0       0       0       0       0
  2557 ;;      Totals:         0       6       0       0       0
  2558 ;;Total ram usage:        6 bytes
  2559 ;; Hardware stack levels used:    1
  2560 ;; Hardware stack levels required when called:    3
  2561 ;; This function calls:
  2562 ;;		Nothing
  2563 ;; This function is called by:
  2564 ;;		_main
  2565 ;;		_mapeo
  2566 ;; This function uses a non-reentrant model
  2567 ;;
  2568                           
  2569                           
  2570                           ;psect for function ___wmul
  2571  06B2                     ___wmul:
  2572  06B2                     l1598:	
  2573                           ;incstack = 0
  2574                           ; Regs used in ___wmul: [wreg+status,2+status,0]
  2575                           
  2576  06B2  1283               	bcf	3,5	;RP0=0, select bank0
  2577  06B3  1303               	bcf	3,6	;RP1=0, select bank0
  2578  06B4  01AC               	clrf	___wmul@product
  2579  06B5  01AD               	clrf	___wmul@product+1
  2580  06B6                     l1600:
  2581  06B6  1C28               	btfss	___wmul@multiplier,0
  2582  06B7  2EB9               	goto	u361
  2583  06B8  2EBA               	goto	u360
  2584  06B9                     u361:
  2585  06B9  2EC0               	goto	l350
  2586  06BA                     u360:
  2587  06BA                     l1602:
  2588  06BA  082A               	movf	___wmul@multiplicand,w
  2589  06BB  07AC               	addwf	___wmul@product,f
  2590  06BC  1803               	skipnc
  2591  06BD  0AAD               	incf	___wmul@product+1,f
  2592  06BE  082B               	movf	___wmul@multiplicand+1,w
  2593  06BF  07AD               	addwf	___wmul@product+1,f
  2594  06C0                     l350:
  2595  06C0  3001               	movlw	1
  2596  06C1                     u375:
  2597  06C1  1003               	clrc
  2598  06C2  0DAA               	rlf	___wmul@multiplicand,f
  2599  06C3  0DAB               	rlf	___wmul@multiplicand+1,f
  2600  06C4  3EFF               	addlw	-1
  2601  06C5  1D03               	skipz
  2602  06C6  2EC1               	goto	u375
  2603  06C7                     l1604:
  2604  06C7  3001               	movlw	1
  2605  06C8                     u385:
  2606  06C8  1003               	clrc
  2607  06C9  0CA9               	rrf	___wmul@multiplier+1,f
  2608  06CA  0CA8               	rrf	___wmul@multiplier,f
  2609  06CB  3EFF               	addlw	-1
  2610  06CC  1D03               	skipz
  2611  06CD  2EC8               	goto	u385
  2612  06CE                     l1606:
  2613  06CE  0828               	movf	___wmul@multiplier,w
  2614  06CF  0429               	iorwf	___wmul@multiplier+1,w
  2615  06D0  1D03               	btfss	3,2
  2616  06D1  2ED3               	goto	u391
  2617  06D2  2ED4               	goto	u390
  2618  06D3                     u391:
  2619  06D3  2EB6               	goto	l1600
  2620  06D4                     u390:
  2621  06D4                     l1608:
  2622  06D4  082D               	movf	___wmul@product+1,w
  2623  06D5  00A9               	movwf	?___wmul+1
  2624  06D6  082C               	movf	___wmul@product,w
  2625  06D7  00A8               	movwf	?___wmul
  2626  06D8                     l352:
  2627  06D8  0008               	return
  2628  06D9                     __end_of___wmul:
  2629                           
  2630                           	psect	text8
  2631  060C                     __ptext8:	
  2632 ;; *************** function ___lwdiv *****************
  2633 ;; Defined at:
  2634 ;;		line 5 in file "C:\Program Files\Microchip\xc8\v2.20\pic\sources\c90\common\lwdiv.c"
  2635 ;; Parameters:    Size  Location     Type
  2636 ;;  divisor         2   14[BANK0 ] unsigned int 
  2637 ;;  dividend        2   16[BANK0 ] unsigned int 
  2638 ;; Auto vars:     Size  Location     Type
  2639 ;;  quotient        2   18[BANK0 ] unsigned int 
  2640 ;;  counter         1   20[BANK0 ] unsigned char 
  2641 ;; Return value:  Size  Location     Type
  2642 ;;                  2   14[BANK0 ] unsigned int 
  2643 ;; Registers used:
  2644 ;;		wreg, status,2, status,0, btemp+1
  2645 ;; Tracked objects:
  2646 ;;		On entry : 0/0
  2647 ;;		On exit  : 0/0
  2648 ;;		Unchanged: 0/0
  2649 ;; Data sizes:     COMMON   BANK0   BANK1   BANK3   BANK2
  2650 ;;      Params:         0       4       0       0       0
  2651 ;;      Locals:         0       3       0       0       0
  2652 ;;      Temps:          0       0       0       0       0
  2653 ;;      Totals:         0       7       0       0       0
  2654 ;;Total ram usage:        7 bytes
  2655 ;; Hardware stack levels used:    1
  2656 ;; Hardware stack levels required when called:    3
  2657 ;; This function calls:
  2658 ;;		Nothing
  2659 ;; This function is called by:
  2660 ;;		_mapeo
  2661 ;; This function uses a non-reentrant model
  2662 ;;
  2663                           
  2664                           
  2665                           ;psect for function ___lwdiv
  2666  060C                     ___lwdiv:
  2667  060C                     l1672:	
  2668                           ;incstack = 0
  2669                           ; Regs used in ___lwdiv: [wreg+status,2+status,0+btemp+1]
  2670                           
  2671  060C  1283               	bcf	3,5	;RP0=0, select bank0
  2672  060D  1303               	bcf	3,6	;RP1=0, select bank0
  2673  060E  01B2               	clrf	___lwdiv@quotient
  2674  060F  01B3               	clrf	___lwdiv@quotient+1
  2675  0610                     l1674:
  2676  0610  082E               	movf	___lwdiv@divisor,w
  2677  0611  042F               	iorwf	___lwdiv@divisor+1,w
  2678  0612  1903               	btfsc	3,2
  2679  0613  2E15               	goto	u521
  2680  0614  2E16               	goto	u520
  2681  0615                     u521:
  2682  0615  2E4D               	goto	l1694
  2683  0616                     u520:
  2684  0616                     l1676:
  2685  0616  01B4               	clrf	___lwdiv@counter
  2686  0617  0AB4               	incf	___lwdiv@counter,f
  2687  0618  2E24               	goto	l1682
  2688  0619                     l1678:
  2689  0619  3001               	movlw	1
  2690  061A                     u535:
  2691  061A  1003               	clrc
  2692  061B  0DAE               	rlf	___lwdiv@divisor,f
  2693  061C  0DAF               	rlf	___lwdiv@divisor+1,f
  2694  061D  3EFF               	addlw	-1
  2695  061E  1D03               	skipz
  2696  061F  2E1A               	goto	u535
  2697  0620                     l1680:
  2698  0620  3001               	movlw	1
  2699  0621  00FF               	movwf	btemp+1
  2700  0622  087F               	movf	btemp+1,w
  2701  0623  07B4               	addwf	___lwdiv@counter,f
  2702  0624                     l1682:
  2703  0624  1FAF               	btfss	___lwdiv@divisor+1,7
  2704  0625  2E27               	goto	u541
  2705  0626  2E28               	goto	u540
  2706  0627                     u541:
  2707  0627  2E19               	goto	l1678
  2708  0628                     u540:
  2709  0628                     l1684:
  2710  0628  3001               	movlw	1
  2711  0629                     u555:
  2712  0629  1003               	clrc
  2713  062A  0DB2               	rlf	___lwdiv@quotient,f
  2714  062B  0DB3               	rlf	___lwdiv@quotient+1,f
  2715  062C  3EFF               	addlw	-1
  2716  062D  1D03               	skipz
  2717  062E  2E29               	goto	u555
  2718  062F  082F               	movf	___lwdiv@divisor+1,w
  2719  0630  0231               	subwf	___lwdiv@dividend+1,w
  2720  0631  1D03               	skipz
  2721  0632  2E35               	goto	u565
  2722  0633  082E               	movf	___lwdiv@divisor,w
  2723  0634  0230               	subwf	___lwdiv@dividend,w
  2724  0635                     u565:
  2725  0635  1C03               	skipc
  2726  0636  2E38               	goto	u561
  2727  0637  2E39               	goto	u560
  2728  0638                     u561:
  2729  0638  2E40               	goto	l1690
  2730  0639                     u560:
  2731  0639                     l1686:
  2732  0639  082E               	movf	___lwdiv@divisor,w
  2733  063A  02B0               	subwf	___lwdiv@dividend,f
  2734  063B  082F               	movf	___lwdiv@divisor+1,w
  2735  063C  1C03               	skipc
  2736  063D  03B1               	decf	___lwdiv@dividend+1,f
  2737  063E  02B1               	subwf	___lwdiv@dividend+1,f
  2738  063F                     l1688:
  2739  063F  1432               	bsf	___lwdiv@quotient,0
  2740  0640                     l1690:
  2741  0640  3001               	movlw	1
  2742  0641                     u575:
  2743  0641  1003               	clrc
  2744  0642  0CAF               	rrf	___lwdiv@divisor+1,f
  2745  0643  0CAE               	rrf	___lwdiv@divisor,f
  2746  0644  3EFF               	addlw	-1
  2747  0645  1D03               	skipz
  2748  0646  2E41               	goto	u575
  2749  0647                     l1692:
  2750  0647  3001               	movlw	1
  2751  0648  02B4               	subwf	___lwdiv@counter,f
  2752  0649  1D03               	btfss	3,2
  2753  064A  2E4C               	goto	u581
  2754  064B  2E4D               	goto	u580
  2755  064C                     u581:
  2756  064C  2E28               	goto	l1684
  2757  064D                     u580:
  2758  064D                     l1694:
  2759  064D  0833               	movf	___lwdiv@quotient+1,w
  2760  064E  00AF               	movwf	?___lwdiv+1
  2761  064F  0832               	movf	___lwdiv@quotient,w
  2762  0650  00AE               	movwf	?___lwdiv
  2763  0651                     l622:
  2764  0651  0008               	return
  2765  0652                     __end_of___lwdiv:
  2766                           
  2767                           	psect	text9
  2768  0731                     __ptext9:	
  2769 ;; *************** function ___bmul *****************
  2770 ;; Defined at:
  2771 ;;		line 4 in file "C:\Program Files\Microchip\xc8\v2.20\pic\sources\c90\common\Umul8.c"
  2772 ;; Parameters:    Size  Location     Type
  2773 ;;  multiplier      1    wreg     unsigned char 
  2774 ;;  multiplicand    1    0[BANK0 ] unsigned char 
  2775 ;; Auto vars:     Size  Location     Type
  2776 ;;  multiplier      1    2[BANK0 ] unsigned char 
  2777 ;;  product         1    1[BANK0 ] unsigned char 
  2778 ;; Return value:  Size  Location     Type
  2779 ;;                  1    wreg      unsigned char 
  2780 ;; Registers used:
  2781 ;;		wreg, status,2, status,0, btemp+1
  2782 ;; Tracked objects:
  2783 ;;		On entry : 0/0
  2784 ;;		On exit  : 0/0
  2785 ;;		Unchanged: 0/0
  2786 ;; Data sizes:     COMMON   BANK0   BANK1   BANK3   BANK2
  2787 ;;      Params:         0       1       0       0       0
  2788 ;;      Locals:         0       2       0       0       0
  2789 ;;      Temps:          0       0       0       0       0
  2790 ;;      Totals:         0       3       0       0       0
  2791 ;;Total ram usage:        3 bytes
  2792 ;; Hardware stack levels used:    1
  2793 ;; Hardware stack levels required when called:    3
  2794 ;; This function calls:
  2795 ;;		Nothing
  2796 ;; This function is called by:
  2797 ;;		_mapeo
  2798 ;; This function uses a non-reentrant model
  2799 ;;
  2800                           
  2801                           
  2802                           ;psect for function ___bmul
  2803  0731                     ___bmul:
  2804                           
  2805                           ;incstack = 0
  2806                           ; Regs used in ___bmul: [wreg+status,2+status,0+btemp+1]
  2807                           ;___bmul@multiplier stored from wreg
  2808  0731  1283               	bcf	3,5	;RP0=0, select bank0
  2809  0732  1303               	bcf	3,6	;RP1=0, select bank0
  2810  0733  00A2               	movwf	___bmul@multiplier
  2811  0734                     l1612:
  2812  0734  01A1               	clrf	___bmul@product
  2813  0735                     l1614:
  2814  0735  1C22               	btfss	___bmul@multiplier,0
  2815  0736  2F38               	goto	u401
  2816  0737  2F39               	goto	u400
  2817  0738                     u401:
  2818  0738  2F3D               	goto	l1618
  2819  0739                     u400:
  2820  0739                     l1616:
  2821  0739  0820               	movf	___bmul@multiplicand,w
  2822  073A  00FF               	movwf	btemp+1
  2823  073B  087F               	movf	btemp+1,w
  2824  073C  07A1               	addwf	___bmul@product,f
  2825  073D                     l1618:
  2826  073D  1003               	clrc
  2827  073E  0DA0               	rlf	___bmul@multiplicand,f
  2828  073F                     l1620:
  2829  073F  1003               	clrc
  2830  0740  0CA2               	rrf	___bmul@multiplier,f
  2831  0741                     l1622:
  2832  0741  0822               	movf	___bmul@multiplier,w
  2833  0742  1D03               	btfss	3,2
  2834  0743  2F45               	goto	u411
  2835  0744  2F46               	goto	u410
  2836  0745                     u411:
  2837  0745  2F35               	goto	l1614
  2838  0746                     u410:
  2839  0746                     l1624:
  2840  0746  0821               	movf	___bmul@product,w
  2841  0747                     l376:
  2842  0747  0008               	return
  2843  0748                     __end_of___bmul:
  2844                           
  2845                           	psect	text10
  2846  044E                     __ptext10:	
  2847 ;; *************** function ___awdiv *****************
  2848 ;; Defined at:
  2849 ;;		line 5 in file "C:\Program Files\Microchip\xc8\v2.20\pic\sources\c90\common\awdiv.c"
  2850 ;; Parameters:    Size  Location     Type
  2851 ;;  divisor         2    0[BANK0 ] int 
  2852 ;;  dividend        2    2[BANK0 ] int 
  2853 ;; Auto vars:     Size  Location     Type
  2854 ;;  quotient        2    6[BANK0 ] int 
  2855 ;;  sign            1    5[BANK0 ] unsigned char 
  2856 ;;  counter         1    4[BANK0 ] unsigned char 
  2857 ;; Return value:  Size  Location     Type
  2858 ;;                  2    0[BANK0 ] int 
  2859 ;; Registers used:
  2860 ;;		wreg, status,2, status,0, btemp+1
  2861 ;; Tracked objects:
  2862 ;;		On entry : 0/0
  2863 ;;		On exit  : 0/0
  2864 ;;		Unchanged: 0/0
  2865 ;; Data sizes:     COMMON   BANK0   BANK1   BANK3   BANK2
  2866 ;;      Params:         0       4       0       0       0
  2867 ;;      Locals:         0       4       0       0       0
  2868 ;;      Temps:          0       0       0       0       0
  2869 ;;      Totals:         0       8       0       0       0
  2870 ;;Total ram usage:        8 bytes
  2871 ;; Hardware stack levels used:    1
  2872 ;; Hardware stack levels required when called:    3
  2873 ;; This function calls:
  2874 ;;		Nothing
  2875 ;; This function is called by:
  2876 ;;		_main
  2877 ;;		_mapeo
  2878 ;; This function uses a non-reentrant model
  2879 ;;
  2880                           
  2881                           
  2882                           ;psect for function ___awdiv
  2883  044E                     ___awdiv:
  2884  044E                     l1628:	
  2885                           ;incstack = 0
  2886                           ; Regs used in ___awdiv: [wreg+status,2+status,0+btemp+1]
  2887                           
  2888  044E  1283               	bcf	3,5	;RP0=0, select bank0
  2889  044F  1303               	bcf	3,6	;RP1=0, select bank0
  2890  0450  01A5               	clrf	___awdiv@sign
  2891  0451                     l1630:
  2892  0451  1FA1               	btfss	___awdiv@divisor+1,7
  2893  0452  2C54               	goto	u421
  2894  0453  2C55               	goto	u420
  2895  0454                     u421:
  2896  0454  2C5C               	goto	l1636
  2897  0455                     u420:
  2898  0455                     l1632:
  2899  0455  09A0               	comf	___awdiv@divisor,f
  2900  0456  09A1               	comf	___awdiv@divisor+1,f
  2901  0457  0AA0               	incf	___awdiv@divisor,f
  2902  0458  1903               	skipnz
  2903  0459  0AA1               	incf	___awdiv@divisor+1,f
  2904  045A                     l1634:
  2905  045A  01A5               	clrf	___awdiv@sign
  2906  045B  0AA5               	incf	___awdiv@sign,f
  2907  045C                     l1636:
  2908  045C  1FA3               	btfss	___awdiv@dividend+1,7
  2909  045D  2C5F               	goto	u431
  2910  045E  2C60               	goto	u430
  2911  045F                     u431:
  2912  045F  2C69               	goto	l1642
  2913  0460                     u430:
  2914  0460                     l1638:
  2915  0460  09A2               	comf	___awdiv@dividend,f
  2916  0461  09A3               	comf	___awdiv@dividend+1,f
  2917  0462  0AA2               	incf	___awdiv@dividend,f
  2918  0463  1903               	skipnz
  2919  0464  0AA3               	incf	___awdiv@dividend+1,f
  2920  0465                     l1640:
  2921  0465  3001               	movlw	1
  2922  0466  00FF               	movwf	btemp+1
  2923  0467  087F               	movf	btemp+1,w
  2924  0468  06A5               	xorwf	___awdiv@sign,f
  2925  0469                     l1642:
  2926  0469  01A6               	clrf	___awdiv@quotient
  2927  046A  01A7               	clrf	___awdiv@quotient+1
  2928  046B                     l1644:
  2929  046B  0820               	movf	___awdiv@divisor,w
  2930  046C  0421               	iorwf	___awdiv@divisor+1,w
  2931  046D  1903               	btfsc	3,2
  2932  046E  2C70               	goto	u441
  2933  046F  2C71               	goto	u440
  2934  0470                     u441:
  2935  0470  2CA8               	goto	l1664
  2936  0471                     u440:
  2937  0471                     l1646:
  2938  0471  01A4               	clrf	___awdiv@counter
  2939  0472  0AA4               	incf	___awdiv@counter,f
  2940  0473  2C7F               	goto	l1652
  2941  0474                     l1648:
  2942  0474  3001               	movlw	1
  2943  0475                     u455:
  2944  0475  1003               	clrc
  2945  0476  0DA0               	rlf	___awdiv@divisor,f
  2946  0477  0DA1               	rlf	___awdiv@divisor+1,f
  2947  0478  3EFF               	addlw	-1
  2948  0479  1D03               	skipz
  2949  047A  2C75               	goto	u455
  2950  047B                     l1650:
  2951  047B  3001               	movlw	1
  2952  047C  00FF               	movwf	btemp+1
  2953  047D  087F               	movf	btemp+1,w
  2954  047E  07A4               	addwf	___awdiv@counter,f
  2955  047F                     l1652:
  2956  047F  1FA1               	btfss	___awdiv@divisor+1,7
  2957  0480  2C82               	goto	u461
  2958  0481  2C83               	goto	u460
  2959  0482                     u461:
  2960  0482  2C74               	goto	l1648
  2961  0483                     u460:
  2962  0483                     l1654:
  2963  0483  3001               	movlw	1
  2964  0484                     u475:
  2965  0484  1003               	clrc
  2966  0485  0DA6               	rlf	___awdiv@quotient,f
  2967  0486  0DA7               	rlf	___awdiv@quotient+1,f
  2968  0487  3EFF               	addlw	-1
  2969  0488  1D03               	skipz
  2970  0489  2C84               	goto	u475
  2971  048A  0821               	movf	___awdiv@divisor+1,w
  2972  048B  0223               	subwf	___awdiv@dividend+1,w
  2973  048C  1D03               	skipz
  2974  048D  2C90               	goto	u485
  2975  048E  0820               	movf	___awdiv@divisor,w
  2976  048F  0222               	subwf	___awdiv@dividend,w
  2977  0490                     u485:
  2978  0490  1C03               	skipc
  2979  0491  2C93               	goto	u481
  2980  0492  2C94               	goto	u480
  2981  0493                     u481:
  2982  0493  2C9B               	goto	l1660
  2983  0494                     u480:
  2984  0494                     l1656:
  2985  0494  0820               	movf	___awdiv@divisor,w
  2986  0495  02A2               	subwf	___awdiv@dividend,f
  2987  0496  0821               	movf	___awdiv@divisor+1,w
  2988  0497  1C03               	skipc
  2989  0498  03A3               	decf	___awdiv@dividend+1,f
  2990  0499  02A3               	subwf	___awdiv@dividend+1,f
  2991  049A                     l1658:
  2992  049A  1426               	bsf	___awdiv@quotient,0
  2993  049B                     l1660:
  2994  049B  3001               	movlw	1
  2995  049C                     u495:
  2996  049C  1003               	clrc
  2997  049D  0CA1               	rrf	___awdiv@divisor+1,f
  2998  049E  0CA0               	rrf	___awdiv@divisor,f
  2999  049F  3EFF               	addlw	-1
  3000  04A0  1D03               	skipz
  3001  04A1  2C9C               	goto	u495
  3002  04A2                     l1662:
  3003  04A2  3001               	movlw	1
  3004  04A3  02A4               	subwf	___awdiv@counter,f
  3005  04A4  1D03               	btfss	3,2
  3006  04A5  2CA7               	goto	u501
  3007  04A6  2CA8               	goto	u500
  3008  04A7                     u501:
  3009  04A7  2C83               	goto	l1654
  3010  04A8                     u500:
  3011  04A8                     l1664:
  3012  04A8  0825               	movf	___awdiv@sign,w
  3013  04A9  1903               	btfsc	3,2
  3014  04AA  2CAC               	goto	u511
  3015  04AB  2CAD               	goto	u510
  3016  04AC                     u511:
  3017  04AC  2CB2               	goto	l1668
  3018  04AD                     u510:
  3019  04AD                     l1666:
  3020  04AD  09A6               	comf	___awdiv@quotient,f
  3021  04AE  09A7               	comf	___awdiv@quotient+1,f
  3022  04AF  0AA6               	incf	___awdiv@quotient,f
  3023  04B0  1903               	skipnz
  3024  04B1  0AA7               	incf	___awdiv@quotient+1,f
  3025  04B2                     l1668:
  3026  04B2  0827               	movf	___awdiv@quotient+1,w
  3027  04B3  00A1               	movwf	?___awdiv+1
  3028  04B4  0826               	movf	___awdiv@quotient,w
  3029  04B5  00A0               	movwf	?___awdiv
  3030  04B6                     l503:
  3031  04B6  0008               	return
  3032  04B7                     __end_of___awdiv:
  3033                           
  3034                           	psect	text11
  3035  05BC                     __ptext11:	
  3036 ;; *************** function _envio_esclavos *****************
  3037 ;; Defined at:
  3038 ;;		line 164 in file "C:/MPlab_Digital2/Digital_2/Proyecto3Digital2.X/main.c"
  3039 ;; Parameters:    Size  Location     Type
  3040 ;;		None
  3041 ;; Auto vars:     Size  Location     Type
  3042 ;;		None
  3043 ;; Return value:  Size  Location     Type
  3044 ;;                  1    wreg      void 
  3045 ;; Registers used:
  3046 ;;		wreg, fsr0l, fsr0h, status,2, status,0, btemp+1
  3047 ;; Tracked objects:
  3048 ;;		On entry : 0/0
  3049 ;;		On exit  : 0/0
  3050 ;;		Unchanged: 0/0
  3051 ;; Data sizes:     COMMON   BANK0   BANK1   BANK3   BANK2
  3052 ;;      Params:         0       0       0       0       0
  3053 ;;      Locals:         0       0       0       0       0
  3054 ;;      Temps:          0       2       0       0       0
  3055 ;;      Totals:         0       2       0       0       0
  3056 ;;Total ram usage:        2 bytes
  3057 ;; Hardware stack levels used:    1
  3058 ;; Hardware stack levels required when called:    3
  3059 ;; This function calls:
  3060 ;;		Nothing
  3061 ;; This function is called by:
  3062 ;;		_main
  3063 ;; This function uses a non-reentrant model
  3064 ;;
  3065                           
  3066                           
  3067                           ;psect for function _envio_esclavos
  3068  05BC                     _envio_esclavos:
  3069  05BC                     l1836:	
  3070                           ;incstack = 0
  3071                           ; Regs used in _envio_esclavos: [wreg-fsr0h+status,2+status,0+btemp+1]
  3072                           
  3073                           
  3074                           ;C:/MPlab_Digital2/Digital_2/Proyecto3Digital2.X/main.c: 165:            var_envio++;
  3075  05BC  3033               	movlw	51
  3076  05BD  027D               	subwf	_controles,w
  3077  05BE  1C03               	skipc
  3078  05BF  2DC1               	goto	u661
  3079  05C0  2DC2               	goto	u660
  3080  05C1                     u661:
  3081  05C1  2E0B               	goto	l212
  3082  05C2                     u660:
  3083  05C2                     l1838:
  3084                           
  3085                           ;C:/MPlab_Digital2/Digital_2/Proyecto3Digital2.X/main.c: 166:            break;
  3086  05C2  01FD               	clrf	_controles
  3087  05C3                     l1840:
  3088                           
  3089                           ;C:/MPlab_Digital2/Digital_2/Proyecto3Digital2.X/main.c: 167:         case 2:
  3090  05C3  1283               	bcf	3,5	;RP0=0, select bank0
  3091  05C4  1303               	bcf	3,6	;RP1=0, select bank0
  3092  05C5  1407               	bsf	7,0	;volatile
  3093  05C6                     l1842:
  3094                           
  3095                           ;C:/MPlab_Digital2/Digital_2/Proyecto3Digital2.X/main.c: 168:            TXREG = 44;
  3096  05C6  1487               	bsf	7,1	;volatile
  3097  05C7                     l1844:
  3098                           
  3099                           ;C:/MPlab_Digital2/Digital_2/Proyecto3Digital2.X/main.c: 169:            var_envio++;
  3100  05C7  1507               	bsf	7,2	;volatile
  3101                           
  3102                           ;C:/MPlab_Digital2/Digital_2/Proyecto3Digital2.X/main.c: 170:            break;
  3103  05C8  2DF8               	goto	l1860
  3104  05C9                     l199:	
  3105                           ;C:/MPlab_Digital2/Digital_2/Proyecto3Digital2.X/main.c: 171:         case 3:
  3106                           
  3107                           
  3108                           ;C:/MPlab_Digital2/Digital_2/Proyecto3Digital2.X/main.c: 172:            tabla_hex(((esc
      +                          lavo2 & 0b11110000)>>4),&TXREG);
  3109  05C9  1007               	bcf	7,0	;volatile
  3110  05CA                     l200:	
  3111                           ;C:/MPlab_Digital2/Digital_2/Proyecto3Digital2.X/main.c: 173:            var_envio++;
  3112                           
  3113  05CA  1683               	bsf	3,5	;RP0=1, select bank1
  3114  05CB  1303               	bcf	3,6	;RP1=0, select bank1
  3115  05CC  1C14               	btfss	20,0	;volatile
  3116  05CD  2DCF               	goto	u671
  3117  05CE  2DD0               	goto	u670
  3118  05CF                     u671:
  3119  05CF  2DCA               	goto	l200
  3120  05D0                     u670:
  3121  05D0                     l1846:
  3122                           
  3123                           ;C:/MPlab_Digital2/Digital_2/Proyecto3Digital2.X/main.c: 174:            break;
  3124  05D0  1283               	bcf	3,5	;RP0=0, select bank0
  3125  05D1  1303               	bcf	3,6	;RP1=0, select bank0
  3126  05D2  0813               	movf	19,w	;volatile
  3127  05D3  00FF               	movwf	btemp+1
  3128  05D4  087F               	movf	btemp+1,w
  3129  05D5  00FC               	movwf	_esclavo1
  3130  05D6                     l1848:
  3131                           
  3132                           ;C:/MPlab_Digital2/Digital_2/Proyecto3Digital2.X/main.c: 175:         case 4:
  3133  05D6  3001               	movlw	1
  3134  05D7  00FF               	movwf	btemp+1
  3135  05D8  087F               	movf	btemp+1,w
  3136  05D9  07C6               	addwf	_slave,f
  3137                           
  3138                           ;C:/MPlab_Digital2/Digital_2/Proyecto3Digital2.X/main.c: 176:            tabla_hex((escl
      +                          avo2 & 0b00001111),&TXREG);
  3139  05DA  2E0B               	goto	l212
  3140  05DB                     l204:	
  3141                           ;C:/MPlab_Digital2/Digital_2/Proyecto3Digital2.X/main.c: 177:            var_envio++;
  3142                           
  3143                           
  3144                           ;C:/MPlab_Digital2/Digital_2/Proyecto3Digital2.X/main.c: 178:            break;
  3145  05DB  1087               	bcf	7,1	;volatile
  3146  05DC                     l205:	
  3147                           ;C:/MPlab_Digital2/Digital_2/Proyecto3Digital2.X/main.c: 179:         case 5:
  3148                           
  3149  05DC  1683               	bsf	3,5	;RP0=1, select bank1
  3150  05DD  1303               	bcf	3,6	;RP1=0, select bank1
  3151  05DE  1C14               	btfss	20,0	;volatile
  3152  05DF  2DE1               	goto	u681
  3153  05E0  2DE2               	goto	u680
  3154  05E1                     u681:
  3155  05E1  2DDC               	goto	l205
  3156  05E2                     u680:
  3157  05E2                     l1850:
  3158                           
  3159                           ;C:/MPlab_Digital2/Digital_2/Proyecto3Digital2.X/main.c: 180:            TXREG = 44;
  3160  05E2  1283               	bcf	3,5	;RP0=0, select bank0
  3161  05E3  1303               	bcf	3,6	;RP1=0, select bank0
  3162  05E4  0813               	movf	19,w	;volatile
  3163  05E5  00FF               	movwf	btemp+1
  3164  05E6  087F               	movf	btemp+1,w
  3165  05E7  00C7               	movwf	_esclavo2
  3166  05E8  2DD6               	goto	l1848
  3167  05E9                     l208:	
  3168                           ;C:/MPlab_Digital2/Digital_2/Proyecto3Digital2.X/main.c: 183:         case 6:
  3169                           
  3170                           
  3171                           ;C:/MPlab_Digital2/Digital_2/Proyecto3Digital2.X/main.c: 184:            tabla_hex(((esc
      +                          lavo3 & 0b11110000)>>4),&TXREG);
  3172  05E9  1507               	bsf	7,2	;volatile
  3173  05EA                     l209:	
  3174                           ;C:/MPlab_Digital2/Digital_2/Proyecto3Digital2.X/main.c: 185:            var_envio++;
  3175                           
  3176  05EA  1683               	bsf	3,5	;RP0=1, select bank1
  3177  05EB  1303               	bcf	3,6	;RP1=0, select bank1
  3178  05EC  1C14               	btfss	20,0	;volatile
  3179  05ED  2DEF               	goto	u691
  3180  05EE  2DF0               	goto	u690
  3181  05EF                     u691:
  3182  05EF  2DEA               	goto	l209
  3183  05F0                     u690:
  3184  05F0                     l1854:
  3185                           
  3186                           ;C:/MPlab_Digital2/Digital_2/Proyecto3Digital2.X/main.c: 186:            break;
  3187  05F0  1283               	bcf	3,5	;RP0=0, select bank0
  3188  05F1  1303               	bcf	3,6	;RP1=0, select bank0
  3189  05F2  0813               	movf	19,w	;volatile
  3190  05F3  00FF               	movwf	btemp+1
  3191  05F4  087F               	movf	btemp+1,w
  3192  05F5  00FB               	movwf	_esclavo3
  3193  05F6                     l1856:
  3194                           
  3195                           ;C:/MPlab_Digital2/Digital_2/Proyecto3Digital2.X/main.c: 187:         case 7:
  3196  05F6  01C6               	clrf	_slave
  3197                           
  3198                           ;C:/MPlab_Digital2/Digital_2/Proyecto3Digital2.X/main.c: 188:            tabla_hex((escl
      +                          avo3 & 0b00001111),&TXREG);
  3199  05F7  2E0B               	goto	l212
  3200  05F8                     l1860:
  3201  05F8  0846               	movf	_slave,w
  3202  05F9  00A0               	movwf	??_envio_esclavos
  3203  05FA  01A1               	clrf	??_envio_esclavos+1
  3204                           
  3205                           ; Switch on 2 bytes has been partitioned into a top level switch of size 1, and 1 sub-sw
      +                          itches
  3206                           ; Switch size 1, requested type "simple"
  3207                           ; Number of cases is 1, Range of values is 0 to 0
  3208                           ; switch strategies available:
  3209                           ; Name         Instructions Cycles
  3210                           ; simple_byte            4     3 (average)
  3211                           ; direct_byte           11     8 (fixed)
  3212                           ; jumptable            260     6 (fixed)
  3213                           ;	Chosen strategy is simple_byte
  3214  05FB  0821               	movf	??_envio_esclavos+1,w
  3215  05FC  3A00               	xorlw	0	; case 0
  3216  05FD  1903               	skipnz
  3217  05FE  2E00               	goto	l2086
  3218  05FF  2E0B               	goto	l212
  3219  0600                     l2086:
  3220                           
  3221                           ; Switch size 1, requested type "simple"
  3222                           ; Number of cases is 3, Range of values is 0 to 2
  3223                           ; switch strategies available:
  3224                           ; Name         Instructions Cycles
  3225                           ; simple_byte           10     6 (average)
  3226                           ; direct_byte           17     8 (fixed)
  3227                           ; jumptable            260     6 (fixed)
  3228                           ;	Chosen strategy is simple_byte
  3229  0600  0820               	movf	??_envio_esclavos,w
  3230  0601  3A00               	xorlw	0	; case 0
  3231  0602  1903               	skipnz
  3232  0603  2DC9               	goto	l199
  3233  0604  3A01               	xorlw	1	; case 1
  3234  0605  1903               	skipnz
  3235  0606  2DDB               	goto	l204
  3236  0607  3A03               	xorlw	3	; case 2
  3237  0608  1903               	skipnz
  3238  0609  2DE9               	goto	l208
  3239  060A  2E0B               	goto	l212
  3240  060B                     l212:
  3241  060B  0008               	return
  3242  060C                     __end_of_envio_esclavos:
  3243                           
  3244                           	psect	text12
  3245  0784                     __ptext12:	
  3246 ;; *************** function _TX_GO *****************
  3247 ;; Defined at:
  3248 ;;		line 159 in file "C:/MPlab_Digital2/Digital_2/Proyecto3Digital2.X/main.c"
  3249 ;; Parameters:    Size  Location     Type
  3250 ;;		None
  3251 ;; Auto vars:     Size  Location     Type
  3252 ;;		None
  3253 ;; Return value:  Size  Location     Type
  3254 ;;                  1    wreg      void 
  3255 ;; Registers used:
  3256 ;;		wreg, status,2, status,0
  3257 ;; Tracked objects:
  3258 ;;		On entry : 0/0
  3259 ;;		On exit  : 0/0
  3260 ;;		Unchanged: 0/0
  3261 ;; Data sizes:     COMMON   BANK0   BANK1   BANK3   BANK2
  3262 ;;      Params:         0       0       0       0       0
  3263 ;;      Locals:         0       0       0       0       0
  3264 ;;      Temps:          0       0       0       0       0
  3265 ;;      Totals:         0       0       0       0       0
  3266 ;;Total ram usage:        0 bytes
  3267 ;; Hardware stack levels used:    1
  3268 ;; Hardware stack levels required when called:    3
  3269 ;; This function calls:
  3270 ;;		Nothing
  3271 ;; This function is called by:
  3272 ;;		_main
  3273 ;; This function uses a non-reentrant model
  3274 ;;
  3275                           
  3276                           
  3277                           ;psect for function _TX_GO
  3278  0784                     _TX_GO:
  3279  0784                     l1832:	
  3280                           ;incstack = 0
  3281                           ; Regs used in _TX_GO: [wreg+status,2+status,0]
  3282                           
  3283                           
  3284                           ;C:/MPlab_Digital2/Digital_2/Proyecto3Digital2.X/main.c: 160:            tabla_hex(((esc
      +                          lavo1 & 0b11110000)>>4),&TXREG);
  3285  0784  300A               	movlw	10
  3286  0785  067D               	xorwf	_controles,w
  3287  0786  1D03               	btfss	3,2
  3288  0787  2F89               	goto	u651
  3289  0788  2F8A               	goto	u650
  3290  0789                     u651:
  3291  0789  2F8D               	goto	l194
  3292  078A                     u650:
  3293  078A                     l1834:
  3294                           
  3295                           ;C:/MPlab_Digital2/Digital_2/Proyecto3Digital2.X/main.c: 161:            var_envio++;
  3296  078A  1683               	bsf	3,5	;RP0=1, select bank1
  3297  078B  1303               	bcf	3,6	;RP1=0, select bank1
  3298  078C  160C               	bsf	12,4	;volatile
  3299  078D                     l194:
  3300  078D  0008               	return
  3301  078E                     __end_of_TX_GO:
  3302                           
  3303                           	psect	text13
  3304  0689                     __ptext13:	
  3305 ;; *************** function _Lcd_Write_String *****************
  3306 ;; Defined at:
  3307 ;;		line 64 in file "C:/MPlab_Digital2/Digital_2/Proyecto3Digital2.X/Display8bits.c"
  3308 ;; Parameters:    Size  Location     Type
  3309 ;;  a               1    wreg     PTR unsigned char 
  3310 ;;		 -> STR_1(15), 
  3311 ;; Auto vars:     Size  Location     Type
  3312 ;;  a               1    4[BANK0 ] PTR unsigned char 
  3313 ;;		 -> STR_1(15), 
  3314 ;;  i               2    2[BANK0 ] int 
  3315 ;; Return value:  Size  Location     Type
  3316 ;;                  1    wreg      void 
  3317 ;; Registers used:
  3318 ;;		wreg, fsr0l, fsr0h, status,2, status,0, pclath, cstack
  3319 ;; Tracked objects:
  3320 ;;		On entry : 0/0
  3321 ;;		On exit  : 0/0
  3322 ;;		Unchanged: 0/0
  3323 ;; Data sizes:     COMMON   BANK0   BANK1   BANK3   BANK2
  3324 ;;      Params:         0       0       0       0       0
  3325 ;;      Locals:         0       3       0       0       0
  3326 ;;      Temps:          0       0       0       0       0
  3327 ;;      Totals:         0       3       0       0       0
  3328 ;;Total ram usage:        3 bytes
  3329 ;; Hardware stack levels used:    1
  3330 ;; Hardware stack levels required when called:    5
  3331 ;; This function calls:
  3332 ;;		_Lcd_Write_Char
  3333 ;; This function is called by:
  3334 ;;		_main
  3335 ;; This function uses a non-reentrant model
  3336 ;;
  3337                           
  3338                           
  3339                           ;psect for function _Lcd_Write_String
  3340  0689                     _Lcd_Write_String:
  3341                           
  3342                           ;incstack = 0
  3343                           ; Regs used in _Lcd_Write_String: [wreg-fsr0h+status,2+status,0+pclath+cstack]
  3344                           ;Lcd_Write_String@a stored from wreg
  3345  0689  1283               	bcf	3,5	;RP0=0, select bank0
  3346  068A  1303               	bcf	3,6	;RP1=0, select bank0
  3347  068B  00A4               	movwf	Lcd_Write_String@a
  3348  068C                     l1712:
  3349                           
  3350                           ;C:/MPlab_Digital2/Digital_2/Proyecto3Digital2.X/Display8bits.c: 65:  int i;;C:/MPlab_Di
      +                          gital2/Digital_2/Proyecto3Digital2.X/Display8bits.c: 66:  for(i=0;a[i]!='\0';i++)
  3351  068C  01A2               	clrf	Lcd_Write_String@i
  3352  068D  01A3               	clrf	Lcd_Write_String@i+1
  3353  068E  2EA4               	goto	l1718
  3354  068F                     l1714:
  3355                           
  3356                           ;C:/MPlab_Digital2/Digital_2/Proyecto3Digital2.X/Display8bits.c: 67:     Lcd_Write_Char(
      +                          a[i]);
  3357  068F  0822               	movf	Lcd_Write_String@i,w
  3358  0690  0724               	addwf	Lcd_Write_String@a,w
  3359  0691  0084               	movwf	4
  3360  0692  120A  118A  2748  120A  118A  	fcall	stringdir
  3361  0697  120A  118A  2771  120A  118A  	fcall	_Lcd_Write_Char
  3362  069C                     l1716:
  3363  069C  3001               	movlw	1
  3364  069D  1283               	bcf	3,5	;RP0=0, select bank0
  3365  069E  1303               	bcf	3,6	;RP1=0, select bank0
  3366  069F  07A2               	addwf	Lcd_Write_String@i,f
  3367  06A0  1803               	skipnc
  3368  06A1  0AA3               	incf	Lcd_Write_String@i+1,f
  3369  06A2  3000               	movlw	0
  3370  06A3  07A3               	addwf	Lcd_Write_String@i+1,f
  3371  06A4                     l1718:
  3372  06A4  0822               	movf	Lcd_Write_String@i,w
  3373  06A5  0724               	addwf	Lcd_Write_String@a,w
  3374  06A6  0084               	movwf	4
  3375  06A7  120A  118A  2748  120A  118A  	fcall	stringdir
  3376  06AC  3A00               	xorlw	0
  3377  06AD  1D03               	skipz
  3378  06AE  2EB0               	goto	u611
  3379  06AF  2EB1               	goto	u610
  3380  06B0                     u611:
  3381  06B0  2E8F               	goto	l1714
  3382  06B1                     u610:
  3383  06B1                     l35:
  3384  06B1  0008               	return
  3385  06B2                     __end_of_Lcd_Write_String:
  3386                           
  3387                           	psect	text14
  3388  0771                     __ptext14:	
  3389 ;; *************** function _Lcd_Write_Char *****************
  3390 ;; Defined at:
  3391 ;;		line 57 in file "C:/MPlab_Digital2/Digital_2/Proyecto3Digital2.X/Display8bits.c"
  3392 ;; Parameters:    Size  Location     Type
  3393 ;;  a               1    wreg     unsigned char 
  3394 ;; Auto vars:     Size  Location     Type
  3395 ;;  a               1    1[BANK0 ] unsigned char 
  3396 ;; Return value:  Size  Location     Type
  3397 ;;                  1    wreg      void 
  3398 ;; Registers used:
  3399 ;;		wreg, status,2, status,0, pclath, cstack
  3400 ;; Tracked objects:
  3401 ;;		On entry : 0/0
  3402 ;;		On exit  : 0/0
  3403 ;;		Unchanged: 0/0
  3404 ;; Data sizes:     COMMON   BANK0   BANK1   BANK3   BANK2
  3405 ;;      Params:         0       0       0       0       0
  3406 ;;      Locals:         0       1       0       0       0
  3407 ;;      Temps:          0       0       0       0       0
  3408 ;;      Totals:         0       1       0       0       0
  3409 ;;Total ram usage:        1 bytes
  3410 ;; Hardware stack levels used:    1
  3411 ;; Hardware stack levels required when called:    4
  3412 ;; This function calls:
  3413 ;;		_Lcd_Port
  3414 ;; This function is called by:
  3415 ;;		_Lcd_Write_String
  3416 ;;		_main
  3417 ;; This function uses a non-reentrant model
  3418 ;;
  3419                           
  3420                           
  3421                           ;psect for function _Lcd_Write_Char
  3422  0771                     _Lcd_Write_Char:
  3423                           
  3424                           ;incstack = 0
  3425                           ; Regs used in _Lcd_Write_Char: [wreg+status,2+status,0+pclath+cstack]
  3426                           ;Lcd_Write_Char@a stored from wreg
  3427  0771  1283               	bcf	3,5	;RP0=0, select bank0
  3428  0772  1303               	bcf	3,6	;RP1=0, select bank0
  3429  0773  00A1               	movwf	Lcd_Write_Char@a
  3430  0774                     l1508:
  3431                           
  3432                           ;C:/MPlab_Digital2/Digital_2/Proyecto3Digital2.X/Display8bits.c: 58:    RE0 = 1;
  3433  0774  1409               	bsf	9,0	;volatile
  3434  0775                     l1510:
  3435                           
  3436                           ;C:/MPlab_Digital2/Digital_2/Proyecto3Digital2.X/Display8bits.c: 59:    Lcd_Port(a);
  3437  0775  0821               	movf	Lcd_Write_Char@a,w
  3438  0776  120A  118A  2795  120A  118A  	fcall	_Lcd_Port
  3439  077B                     l1512:
  3440                           
  3441                           ;C:/MPlab_Digital2/Digital_2/Proyecto3Digital2.X/Display8bits.c: 60:    RE2 = 1;
  3442  077B  1283               	bcf	3,5	;RP0=0, select bank0
  3443  077C  1303               	bcf	3,6	;RP1=0, select bank0
  3444  077D  1509               	bsf	9,2	;volatile
  3445  077E                     l1514:
  3446                           
  3447                           ;C:/MPlab_Digital2/Digital_2/Proyecto3Digital2.X/Display8bits.c: 61:    _delay((unsigned
      +                           long)((40)*(400000/4000000.0)));
  3448  077E  2F7F               	nop2	;2 cycle nop
  3449  077F  2F80               	nop2	;2 cycle nop
  3450  0780                     l1516:
  3451                           
  3452                           ;C:/MPlab_Digital2/Digital_2/Proyecto3Digital2.X/Display8bits.c: 62:    RE2 = 0;;
  3453  0780  1283               	bcf	3,5	;RP0=0, select bank0
  3454  0781  1303               	bcf	3,6	;RP1=0, select bank0
  3455  0782  1109               	bcf	9,2	;volatile
  3456  0783                     l29:
  3457  0783  0008               	return
  3458  0784                     __end_of_Lcd_Write_Char:
  3459                           
  3460                           	psect	text15
  3461  06D9                     __ptext15:	
  3462 ;; *************** function _Lcd_Set_Cursor *****************
  3463 ;; Defined at:
  3464 ;;		line 27 in file "C:/MPlab_Digital2/Digital_2/Proyecto3Digital2.X/Display8bits.c"
  3465 ;; Parameters:    Size  Location     Type
  3466 ;;  a               1    wreg     unsigned char 
  3467 ;;  b               1    3[BANK0 ] unsigned char 
  3468 ;; Auto vars:     Size  Location     Type
  3469 ;;  a               1    4[BANK0 ] unsigned char 
  3470 ;;  temp            1    5[BANK0 ] unsigned char 
  3471 ;; Return value:  Size  Location     Type
  3472 ;;                  1    wreg      void 
  3473 ;; Registers used:
  3474 ;;		wreg, status,2, status,0, btemp+1, pclath, cstack
  3475 ;; Tracked objects:
  3476 ;;		On entry : 0/0
  3477 ;;		On exit  : 0/0
  3478 ;;		Unchanged: 0/0
  3479 ;; Data sizes:     COMMON   BANK0   BANK1   BANK3   BANK2
  3480 ;;      Params:         0       1       0       0       0
  3481 ;;      Locals:         0       2       0       0       0
  3482 ;;      Temps:          0       0       0       0       0
  3483 ;;      Totals:         0       3       0       0       0
  3484 ;;Total ram usage:        3 bytes
  3485 ;; Hardware stack levels used:    1
  3486 ;; Hardware stack levels required when called:    5
  3487 ;; This function calls:
  3488 ;;		_Lcd_Cmd
  3489 ;; This function is called by:
  3490 ;;		_main
  3491 ;; This function uses a non-reentrant model
  3492 ;;
  3493                           
  3494                           
  3495                           ;psect for function _Lcd_Set_Cursor
  3496  06D9                     _Lcd_Set_Cursor:
  3497                           
  3498                           ;incstack = 0
  3499                           ; Regs used in _Lcd_Set_Cursor: [wreg+status,2+status,0+btemp+1+pclath+cstack]
  3500                           ;Lcd_Set_Cursor@a stored from wreg
  3501  06D9  1283               	bcf	3,5	;RP0=0, select bank0
  3502  06DA  1303               	bcf	3,6	;RP1=0, select bank0
  3503  06DB  00A4               	movwf	Lcd_Set_Cursor@a
  3504  06DC                     l1700:
  3505                           
  3506                           ;C:/MPlab_Digital2/Digital_2/Proyecto3Digital2.X/Display8bits.c: 28:  char temp;;C:/MPla
      +                          b_Digital2/Digital_2/Proyecto3Digital2.X/Display8bits.c: 29:  if(a == 1)
  3507  06DC  0324               	decf	Lcd_Set_Cursor@a,w
  3508  06DD  1D03               	btfss	3,2
  3509  06DE  2EE0               	goto	u591
  3510  06DF  2EE1               	goto	u590
  3511  06E0                     u591:
  3512  06E0  2EED               	goto	l1706
  3513  06E1                     u590:
  3514  06E1                     l1702:
  3515                           
  3516                           ;C:/MPlab_Digital2/Digital_2/Proyecto3Digital2.X/Display8bits.c: 30:  {;C:/MPlab_Digital
      +                          2/Digital_2/Proyecto3Digital2.X/Display8bits.c: 31:    temp = 0x80 + b - 1;
  3517  06E1  0823               	movf	Lcd_Set_Cursor@b,w
  3518  06E2  3E7F               	addlw	127
  3519  06E3  00FF               	movwf	btemp+1
  3520  06E4  087F               	movf	btemp+1,w
  3521  06E5  00A5               	movwf	Lcd_Set_Cursor@temp
  3522  06E6                     l1704:
  3523                           
  3524                           ;C:/MPlab_Digital2/Digital_2/Proyecto3Digital2.X/Display8bits.c: 32:       Lcd_Cmd(temp)
      +                          ;
  3525  06E6  0825               	movf	Lcd_Set_Cursor@temp,w
  3526  06E7  120A  118A  26FF  120A  118A  	fcall	_Lcd_Cmd
  3527                           
  3528                           ;C:/MPlab_Digital2/Digital_2/Proyecto3Digital2.X/Display8bits.c: 33:  }
  3529  06EC  2EFE               	goto	l23
  3530  06ED                     l1706:
  3531  06ED  3002               	movlw	2
  3532  06EE  0624               	xorwf	Lcd_Set_Cursor@a,w
  3533  06EF  1D03               	btfss	3,2
  3534  06F0  2EF2               	goto	u601
  3535  06F1  2EF3               	goto	u600
  3536  06F2                     u601:
  3537  06F2  2EFE               	goto	l23
  3538  06F3                     u600:
  3539  06F3                     l1708:
  3540                           
  3541                           ;C:/MPlab_Digital2/Digital_2/Proyecto3Digital2.X/Display8bits.c: 35:  {;C:/MPlab_Digital
      +                          2/Digital_2/Proyecto3Digital2.X/Display8bits.c: 36:   temp = 0xC0 + b - 1;
  3542  06F3  0823               	movf	Lcd_Set_Cursor@b,w
  3543  06F4  3EBF               	addlw	191
  3544  06F5  00FF               	movwf	btemp+1
  3545  06F6  087F               	movf	btemp+1,w
  3546  06F7  00A5               	movwf	Lcd_Set_Cursor@temp
  3547  06F8                     l1710:
  3548                           
  3549                           ;C:/MPlab_Digital2/Digital_2/Proyecto3Digital2.X/Display8bits.c: 37:         Lcd_Cmd(tem
      +                          p);
  3550  06F8  0825               	movf	Lcd_Set_Cursor@temp,w
  3551  06F9  120A  118A  26FF  120A  118A  	fcall	_Lcd_Cmd
  3552  06FE                     l23:
  3553  06FE  0008               	return
  3554  06FF                     __end_of_Lcd_Set_Cursor:
  3555                           
  3556                           	psect	text16
  3557  078E                     __ptext16:	
  3558 ;; *************** function _Lcd_Clear *****************
  3559 ;; Defined at:
  3560 ;;		line 24 in file "C:/MPlab_Digital2/Digital_2/Proyecto3Digital2.X/Display8bits.c"
  3561 ;; Parameters:    Size  Location     Type
  3562 ;;		None
  3563 ;; Auto vars:     Size  Location     Type
  3564 ;;		None
  3565 ;; Return value:  Size  Location     Type
  3566 ;;                  1    wreg      void 
  3567 ;; Registers used:
  3568 ;;		wreg, status,2, status,0, pclath, cstack
  3569 ;; Tracked objects:
  3570 ;;		On entry : 0/0
  3571 ;;		On exit  : 0/0
  3572 ;;		Unchanged: 0/0
  3573 ;; Data sizes:     COMMON   BANK0   BANK1   BANK3   BANK2
  3574 ;;      Params:         0       0       0       0       0
  3575 ;;      Locals:         0       0       0       0       0
  3576 ;;      Temps:          0       0       0       0       0
  3577 ;;      Totals:         0       0       0       0       0
  3578 ;;Total ram usage:        0 bytes
  3579 ;; Hardware stack levels used:    1
  3580 ;; Hardware stack levels required when called:    5
  3581 ;; This function calls:
  3582 ;;		_Lcd_Cmd
  3583 ;; This function is called by:
  3584 ;;		_main
  3585 ;; This function uses a non-reentrant model
  3586 ;;
  3587                           
  3588                           
  3589                           ;psect for function _Lcd_Clear
  3590  078E                     _Lcd_Clear:
  3591  078E                     l1698:	
  3592                           ;incstack = 0
  3593                           ; Regs used in _Lcd_Clear: [wreg+status,2+status,0+pclath+cstack]
  3594                           
  3595                           
  3596                           ;C:/MPlab_Digital2/Digital_2/Proyecto3Digital2.X/Display8bits.c: 25:  Lcd_Cmd(1);
  3597  078E  3001               	movlw	1
  3598  078F  120A  118A  26FF  120A  118A  	fcall	_Lcd_Cmd
  3599  0794                     l17:
  3600  0794  0008               	return
  3601  0795                     __end_of_Lcd_Clear:
  3602                           
  3603                           	psect	text17
  3604  06FF                     __ptext17:	
  3605 ;; *************** function _Lcd_Cmd *****************
  3606 ;; Defined at:
  3607 ;;		line 17 in file "C:/MPlab_Digital2/Digital_2/Proyecto3Digital2.X/Display8bits.c"
  3608 ;; Parameters:    Size  Location     Type
  3609 ;;  a               1    wreg     unsigned char 
  3610 ;; Auto vars:     Size  Location     Type
  3611 ;;  a               1    2[BANK0 ] unsigned char 
  3612 ;; Return value:  Size  Location     Type
  3613 ;;                  1    wreg      void 
  3614 ;; Registers used:
  3615 ;;		wreg, status,2, status,0, pclath, cstack
  3616 ;; Tracked objects:
  3617 ;;		On entry : 0/0
  3618 ;;		On exit  : 0/0
  3619 ;;		Unchanged: 0/0
  3620 ;; Data sizes:     COMMON   BANK0   BANK1   BANK3   BANK2
  3621 ;;      Params:         0       0       0       0       0
  3622 ;;      Locals:         0       1       0       0       0
  3623 ;;      Temps:          0       1       0       0       0
  3624 ;;      Totals:         0       2       0       0       0
  3625 ;;Total ram usage:        2 bytes
  3626 ;; Hardware stack levels used:    1
  3627 ;; Hardware stack levels required when called:    4
  3628 ;; This function calls:
  3629 ;;		_Lcd_Port
  3630 ;; This function is called by:
  3631 ;;		_Lcd_Clear
  3632 ;;		_Lcd_Set_Cursor
  3633 ;;		_Lcd_Init
  3634 ;;		_Lcd_Shift_Right
  3635 ;;		_Lcd_Shift_Left
  3636 ;; This function uses a non-reentrant model
  3637 ;;
  3638                           
  3639                           
  3640                           ;psect for function _Lcd_Cmd
  3641  06FF                     _Lcd_Cmd:
  3642                           
  3643                           ;incstack = 0
  3644                           ; Regs used in _Lcd_Cmd: [wreg+status,2+status,0+pclath+cstack]
  3645                           ;Lcd_Cmd@a stored from wreg
  3646  06FF  1283               	bcf	3,5	;RP0=0, select bank0
  3647  0700  1303               	bcf	3,6	;RP1=0, select bank0
  3648  0701  00A2               	movwf	Lcd_Cmd@a
  3649  0702                     l1476:
  3650                           
  3651                           ;C:/MPlab_Digital2/Digital_2/Proyecto3Digital2.X/Display8bits.c: 18:  RE0 = 0;
  3652  0702  1009               	bcf	9,0	;volatile
  3653  0703                     l1478:
  3654                           
  3655                           ;C:/MPlab_Digital2/Digital_2/Proyecto3Digital2.X/Display8bits.c: 19:  Lcd_Port(a);
  3656  0703  0822               	movf	Lcd_Cmd@a,w
  3657  0704  120A  118A  2795  120A  118A  	fcall	_Lcd_Port
  3658  0709                     l1480:
  3659                           
  3660                           ;C:/MPlab_Digital2/Digital_2/Proyecto3Digital2.X/Display8bits.c: 20:  RE2 = 1;
  3661  0709  1283               	bcf	3,5	;RP0=0, select bank0
  3662  070A  1303               	bcf	3,6	;RP1=0, select bank0
  3663  070B  1509               	bsf	9,2	;volatile
  3664  070C                     l1482:
  3665                           
  3666                           ;C:/MPlab_Digital2/Digital_2/Proyecto3Digital2.X/Display8bits.c: 21:     _delay((unsigne
      +                          d long)((10)*(400000/4000.0)));
  3667  070C  30C7               	movlw	199
  3668  070D  1283               	bcf	3,5	;RP0=0, select bank0
  3669  070E  1303               	bcf	3,6	;RP1=0, select bank0
  3670  070F  00A1               	movwf	??_Lcd_Cmd
  3671  0710                     u757:
  3672  0710  2F11               	nop2
  3673  0711  0BA1               	decfsz	??_Lcd_Cmd,f
  3674  0712  2F10               	goto	u757
  3675  0713  2F14               	nop2
  3676  0714                     l1484:
  3677                           
  3678                           ;C:/MPlab_Digital2/Digital_2/Proyecto3Digital2.X/Display8bits.c: 22:     RE2 = 0;
  3679  0714  1283               	bcf	3,5	;RP0=0, select bank0
  3680  0715  1303               	bcf	3,6	;RP1=0, select bank0
  3681  0716  1109               	bcf	9,2	;volatile
  3682  0717                     l14:
  3683  0717  0008               	return
  3684  0718                     __end_of_Lcd_Cmd:
  3685                           
  3686                           	psect	text18
  3687  0795                     __ptext18:	
  3688 ;; *************** function _Lcd_Port *****************
  3689 ;; Defined at:
  3690 ;;		line 14 in file "C:/MPlab_Digital2/Digital_2/Proyecto3Digital2.X/Display8bits.c"
  3691 ;; Parameters:    Size  Location     Type
  3692 ;;  a               1    wreg     unsigned char 
  3693 ;; Auto vars:     Size  Location     Type
  3694 ;;  a               1    0[BANK0 ] unsigned char 
  3695 ;; Return value:  Size  Location     Type
  3696 ;;                  1    wreg      void 
  3697 ;; Registers used:
  3698 ;;		wreg
  3699 ;; Tracked objects:
  3700 ;;		On entry : 0/0
  3701 ;;		On exit  : 0/0
  3702 ;;		Unchanged: 0/0
  3703 ;; Data sizes:     COMMON   BANK0   BANK1   BANK3   BANK2
  3704 ;;      Params:         0       0       0       0       0
  3705 ;;      Locals:         0       1       0       0       0
  3706 ;;      Temps:          0       0       0       0       0
  3707 ;;      Totals:         0       1       0       0       0
  3708 ;;Total ram usage:        1 bytes
  3709 ;; Hardware stack levels used:    1
  3710 ;; Hardware stack levels required when called:    3
  3711 ;; This function calls:
  3712 ;;		Nothing
  3713 ;; This function is called by:
  3714 ;;		_Lcd_Cmd
  3715 ;;		_Lcd_Init
  3716 ;;		_Lcd_Write_Char
  3717 ;; This function uses a non-reentrant model
  3718 ;;
  3719                           
  3720                           
  3721                           ;psect for function _Lcd_Port
  3722  0795                     _Lcd_Port:
  3723                           
  3724                           ;incstack = 0
  3725                           ; Regs used in _Lcd_Port: [wreg]
  3726                           ;Lcd_Port@a stored from wreg
  3727  0795  1283               	bcf	3,5	;RP0=0, select bank0
  3728  0796  1303               	bcf	3,6	;RP1=0, select bank0
  3729  0797  00A0               	movwf	Lcd_Port@a
  3730  0798                     l1474:
  3731                           
  3732                           ;C:/MPlab_Digital2/Digital_2/Proyecto3Digital2.X/Display8bits.c: 15:     PORTA = a;
  3733  0798  0820               	movf	Lcd_Port@a,w
  3734  0799  0085               	movwf	5	;volatile
  3735  079A                     l11:
  3736  079A  0008               	return
  3737  079B                     __end_of_Lcd_Port:
  3738                           
  3739                           	psect	text19
  3740  0718                     __ptext19:	
  3741 ;; *************** function _isr *****************
  3742 ;; Defined at:
  3743 ;;		line 63 in file "C:/MPlab_Digital2/Digital_2/Proyecto3Digital2.X/main.c"
  3744 ;; Parameters:    Size  Location     Type
  3745 ;;		None
  3746 ;; Auto vars:     Size  Location     Type
  3747 ;;		None
  3748 ;; Return value:  Size  Location     Type
  3749 ;;                  1    wreg      void 
  3750 ;; Registers used:
  3751 ;;		wreg, fsr0l, fsr0h, status,2, status,0, btemp+1, pclath, cstack
  3752 ;; Tracked objects:
  3753 ;;		On entry : 0/0
  3754 ;;		On exit  : 0/0
  3755 ;;		Unchanged: 0/0
  3756 ;; Data sizes:     COMMON   BANK0   BANK1   BANK3   BANK2
  3757 ;;      Params:         0       0       0       0       0
  3758 ;;      Locals:         0       0       0       0       0
  3759 ;;      Temps:          4       0       0       0       0
  3760 ;;      Totals:         4       0       0       0       0
  3761 ;;Total ram usage:        4 bytes
  3762 ;; Hardware stack levels used:    1
  3763 ;; Hardware stack levels required when called:    2
  3764 ;; This function calls:
  3765 ;;		_envio
  3766 ;; This function is called by:
  3767 ;;		Interrupt level 1
  3768 ;; This function uses a non-reentrant model
  3769 ;;
  3770                           
  3771                           
  3772                           ;psect for function _isr
  3773  0718                     _isr:
  3774  0718                     i1l1888:
  3775                           
  3776                           ;C:/MPlab_Digital2/Digital_2/Proyecto3Digital2.X/main.c: 64:         Lcd_Write_Char(32);
  3777  0718  110B               	bcf	11,2	;volatile
  3778  0719                     i1l1896:
  3779                           
  3780                           ;C:/MPlab_Digital2/Digital_2/Proyecto3Digital2.X/main.c: 69:         Lcd_Set_Cursor(2,8)
      +                          ;
  3781  0719  1E0C               	btfss	12,4	;volatile
  3782  071A  2F1C               	goto	u70_21
  3783  071B  2F1D               	goto	u70_20
  3784  071C                     u70_21:
  3785  071C  2F25               	goto	i1l179
  3786  071D                     u70_20:
  3787  071D                     i1l1898:
  3788                           
  3789                           ;C:/MPlab_Digital2/Digital_2/Proyecto3Digital2.X/main.c: 70:         Lcd_Write_Char(dece
      +                          nasp2+48);
  3790  071D  120A  118A  23B8  120A  118A  	fcall	_envio
  3791  0722                     i1l1900:
  3792                           
  3793                           ;C:/MPlab_Digital2/Digital_2/Proyecto3Digital2.X/main.c: 71:         Lcd_Set_Cursor(2,9)
      +                          ;
  3794  0722  1683               	bsf	3,5	;RP0=1, select bank1
  3795  0723  1303               	bcf	3,6	;RP1=0, select bank1
  3796  0724  120C               	bcf	12,4	;volatile
  3797  0725                     i1l179:
  3798  0725  087A               	movf	??_isr+3,w
  3799  0726  1283               	bcf	3,5	;RP0=0, select bank0
  3800  0727  00FF               	movwf	btemp+1
  3801  0728  0879               	movf	??_isr+2,w
  3802  0729  008A               	movwf	10
  3803  072A  0878               	movf	??_isr+1,w
  3804  072B  0084               	movwf	4
  3805  072C  0E77               	swapf	??_isr^(0+4294967168),w
  3806  072D  0083               	movwf	3
  3807  072E  0EFE               	swapf	btemp,f
  3808  072F  0E7E               	swapf	btemp,w
  3809  0730  0009               	retfie
  3810  0731                     __end_of_isr:
  3811                           
  3812                           	psect	intentry
  3813  0004                     __pintentry:	
  3814                           ;incstack = 0
  3815                           ; Regs used in _isr: [wreg-fsr0h+status,2+status,0+btemp+1+pclath+cstack]
  3816                           
  3817  0004                     interrupt_function:
  3818  007E                     saved_w	set	btemp
  3819  0004  00FE               	movwf	btemp
  3820  0005  0E03               	swapf	3,w
  3821  0006  00F7               	movwf	??_isr
  3822  0007  0804               	movf	4,w
  3823  0008  00F8               	movwf	??_isr+1
  3824  0009  080A               	movf	10,w
  3825  000A  00F9               	movwf	??_isr+2
  3826  000B  1283               	bcf	3,5	;RP0=0, select bank0
  3827  000C  1303               	bcf	3,6	;RP1=0, select bank0
  3828  000D  087F               	movf	btemp+1,w
  3829  000E  00FA               	movwf	??_isr+3
  3830  000F  120A  118A  2F18   	ljmp	_isr
  3831                           
  3832                           	psect	text20
  3833  03B8                     __ptext20:	
  3834 ;; *************** function _envio *****************
  3835 ;; Defined at:
  3836 ;;		line 192 in file "C:/MPlab_Digital2/Digital_2/Proyecto3Digital2.X/main.c"
  3837 ;; Parameters:    Size  Location     Type
  3838 ;;		None
  3839 ;; Auto vars:     Size  Location     Type
  3840 ;;		None
  3841 ;; Return value:  Size  Location     Type
  3842 ;;                  1    wreg      void 
  3843 ;; Registers used:
  3844 ;;		wreg, fsr0l, fsr0h, status,2, status,0, btemp+1, pclath, cstack
  3845 ;; Tracked objects:
  3846 ;;		On entry : 0/0
  3847 ;;		On exit  : 0/0
  3848 ;;		Unchanged: 0/0
  3849 ;; Data sizes:     COMMON   BANK0   BANK1   BANK3   BANK2
  3850 ;;      Params:         0       0       0       0       0
  3851 ;;      Locals:         0       0       0       0       0
  3852 ;;      Temps:          2       0       0       0       0
  3853 ;;      Totals:         2       0       0       0       0
  3854 ;;Total ram usage:        2 bytes
  3855 ;; Hardware stack levels used:    1
  3856 ;; Hardware stack levels required when called:    1
  3857 ;; This function calls:
  3858 ;;		_tabla_hex
  3859 ;; This function is called by:
  3860 ;;		_isr
  3861 ;; This function uses a non-reentrant model
  3862 ;;
  3863                           
  3864                           
  3865                           ;psect for function _envio
  3866  03B8                     _envio:
  3867  03B8                     i1l1720:	
  3868                           ;incstack = 0
  3869                           ; Regs used in _envio: [wreg-fsr0h+status,2+status,0+btemp+1+pclath+cstack]
  3870                           
  3871                           
  3872                           ;C:/MPlab_Digital2/Digital_2/Proyecto3Digital2.X/main.c: 193:            var_envio = 0;
  3873  03B8  2C26               	goto	i1l1760
  3874  03B9                     i1l1722:
  3875                           
  3876                           ;C:/MPlab_Digital2/Digital_2/Proyecto3Digital2.X/main.c: 195:     }
  3877  03B9  3019               	movlw	25
  3878  03BA  00F0               	movwf	tabla_hex@port
  3879  03BB  3000               	movlw	0
  3880  03BC  00F1               	movwf	tabla_hex@port+1
  3881  03BD  087C               	movf	_esclavo1,w
  3882  03BE  00F5               	movwf	??_envio
  3883  03BF  3004               	movlw	4
  3884  03C0                     u62_25:
  3885  03C0  1003               	clrc
  3886  03C1  0CF5               	rrf	??_envio,f
  3887  03C2  3EFF               	addlw	-1
  3888  03C3  1D03               	skipz
  3889  03C4  2BC0               	goto	u62_25
  3890  03C5  0875               	movf	??_envio,w
  3891  03C6  390F               	andlw	15
  3892  03C7  120A  118A  22DB  120A  118A  	fcall	_tabla_hex
  3893  03CC                     i1l1724:
  3894                           
  3895                           ;C:/MPlab_Digital2/Digital_2/Proyecto3Digital2.X/main.c: 196: }
  3896  03CC  3001               	movlw	1
  3897  03CD  00FF               	movwf	btemp+1
  3898  03CE  087F               	movf	btemp+1,w
  3899  03CF  1283               	bcf	3,5	;RP0=0, select bank0
  3900  03D0  1303               	bcf	3,6	;RP1=0, select bank0
  3901  03D1  07C5               	addwf	_var_envio,f
  3902                           
  3903                           ;C:/MPlab_Digital2/Digital_2/Proyecto3Digital2.X/main.c: 197: void mapeo (void){
  3904  03D2  2C4D               	goto	i1l226
  3905  03D3                     i1l1726:
  3906                           
  3907                           ;C:/MPlab_Digital2/Digital_2/Proyecto3Digital2.X/main.c: 199:     uint16_t TEMP2 = 0;
  3908  03D3  3019               	movlw	25
  3909  03D4  00F0               	movwf	tabla_hex@port
  3910  03D5  3000               	movlw	0
  3911  03D6  00F1               	movwf	tabla_hex@port+1
  3912  03D7  087C               	movf	_esclavo1,w
  3913  03D8  390F               	andlw	15
  3914  03D9  120A  118A  22DB  120A  118A  	fcall	_tabla_hex
  3915  03DE  2BCC               	goto	i1l1724
  3916  03DF                     i1l1730:
  3917                           
  3918                           ;C:/MPlab_Digital2/Digital_2/Proyecto3Digital2.X/main.c: 203:     centenasp1 = TEMP1/100
      +                          ;
  3919  03DF  302C               	movlw	44
  3920  03E0  0099               	movwf	25	;volatile
  3921  03E1  2BCC               	goto	i1l1724
  3922  03E2                     i1l1734:
  3923                           
  3924                           ;C:/MPlab_Digital2/Digital_2/Proyecto3Digital2.X/main.c: 207:     centenasp2 = TEMP2/100
      +                          ;
  3925  03E2  3019               	movlw	25
  3926  03E3  00F0               	movwf	tabla_hex@port
  3927  03E4  3000               	movlw	0
  3928  03E5  00F1               	movwf	tabla_hex@port+1
  3929  03E6  0847               	movf	_esclavo2,w
  3930  03E7  00F5               	movwf	??_envio
  3931  03E8  3004               	movlw	4
  3932  03E9                     u63_25:
  3933  03E9  1003               	clrc
  3934  03EA  0CF5               	rrf	??_envio,f
  3935  03EB  3EFF               	addlw	-1
  3936  03EC  1D03               	skipz
  3937  03ED  2BE9               	goto	u63_25
  3938  03EE  0875               	movf	??_envio,w
  3939  03EF  390F               	andlw	15
  3940  03F0  120A  118A  22DB  120A  118A  	fcall	_tabla_hex
  3941  03F5  2BCC               	goto	i1l1724
  3942  03F6                     i1l1738:
  3943  03F6  3019               	movlw	25
  3944  03F7  00F0               	movwf	tabla_hex@port
  3945  03F8  3000               	movlw	0
  3946  03F9  00F1               	movwf	tabla_hex@port+1
  3947  03FA  0847               	movf	_esclavo2,w
  3948  03FB  390F               	andlw	15
  3949  03FC  120A  118A  22DB  120A  118A  	fcall	_tabla_hex
  3950  0401  2BCC               	goto	i1l1724
  3951  0402                     i1l1746:
  3952  0402  3019               	movlw	25
  3953  0403  00F0               	movwf	tabla_hex@port
  3954  0404  3000               	movlw	0
  3955  0405  00F1               	movwf	tabla_hex@port+1
  3956  0406  087B               	movf	_esclavo3,w
  3957  0407  00F5               	movwf	??_envio
  3958  0408  3004               	movlw	4
  3959  0409                     u64_25:
  3960  0409  1003               	clrc
  3961  040A  0CF5               	rrf	??_envio,f
  3962  040B  3EFF               	addlw	-1
  3963  040C  1D03               	skipz
  3964  040D  2C09               	goto	u64_25
  3965  040E  0875               	movf	??_envio,w
  3966  040F  390F               	andlw	15
  3967  0410  120A  118A  22DB  120A  118A  	fcall	_tabla_hex
  3968  0415  2BCC               	goto	i1l1724
  3969  0416                     i1l1750:
  3970  0416  3019               	movlw	25
  3971  0417  00F0               	movwf	tabla_hex@port
  3972  0418  3000               	movlw	0
  3973  0419  00F1               	movwf	tabla_hex@port+1
  3974  041A  087B               	movf	_esclavo3,w
  3975  041B  390F               	andlw	15
  3976  041C  120A  118A  22DB  120A  118A  	fcall	_tabla_hex
  3977  0421  2BCC               	goto	i1l1724
  3978  0422                     i1l1754:
  3979  0422  300B               	movlw	11
  3980  0423  0099               	movwf	25	;volatile
  3981  0424                     i1l1756:
  3982  0424  01C5               	clrf	_var_envio
  3983  0425  2C4D               	goto	i1l226
  3984  0426                     i1l1760:
  3985  0426  1283               	bcf	3,5	;RP0=0, select bank0
  3986  0427  1303               	bcf	3,6	;RP1=0, select bank0
  3987  0428  0845               	movf	_var_envio,w
  3988  0429  00F5               	movwf	??_envio
  3989  042A  01F6               	clrf	??_envio+1
  3990                           
  3991                           ; Switch on 2 bytes has been partitioned into a top level switch of size 1, and 1 sub-sw
      +                          itches
  3992                           ; Switch size 1, requested type "simple"
  3993                           ; Number of cases is 1, Range of values is 0 to 0
  3994                           ; switch strategies available:
  3995                           ; Name         Instructions Cycles
  3996                           ; simple_byte            4     3 (average)
  3997                           ; direct_byte           11     8 (fixed)
  3998                           ; jumptable            260     6 (fixed)
  3999                           ;	Chosen strategy is simple_byte
  4000  042B  0876               	movf	??_envio+1,w
  4001  042C  3A00               	xorlw	0	; case 0
  4002  042D  1903               	skipnz
  4003  042E  2C30               	goto	i1l2088
  4004  042F  2C4D               	goto	i1l226
  4005  0430                     i1l2088:
  4006                           
  4007                           ; Switch size 1, requested type "simple"
  4008                           ; Number of cases is 9, Range of values is 0 to 8
  4009                           ; switch strategies available:
  4010                           ; Name         Instructions Cycles
  4011                           ; simple_byte           28    15 (average)
  4012                           ; direct_byte           35     8 (fixed)
  4013                           ; jumptable            260     6 (fixed)
  4014                           ;	Chosen strategy is simple_byte
  4015  0430  0875               	movf	??_envio,w
  4016  0431  3A00               	xorlw	0	; case 0
  4017  0432  1903               	skipnz
  4018  0433  2BB9               	goto	i1l1722
  4019  0434  3A01               	xorlw	1	; case 1
  4020  0435  1903               	skipnz
  4021  0436  2BD3               	goto	i1l1726
  4022  0437  3A03               	xorlw	3	; case 2
  4023  0438  1903               	skipnz
  4024  0439  2BDF               	goto	i1l1730
  4025  043A  3A01               	xorlw	1	; case 3
  4026  043B  1903               	skipnz
  4027  043C  2BE2               	goto	i1l1734
  4028  043D  3A07               	xorlw	7	; case 4
  4029  043E  1903               	skipnz
  4030  043F  2BF6               	goto	i1l1738
  4031  0440  3A01               	xorlw	1	; case 5
  4032  0441  1903               	skipnz
  4033  0442  2BDF               	goto	i1l1730
  4034  0443  3A03               	xorlw	3	; case 6
  4035  0444  1903               	skipnz
  4036  0445  2C02               	goto	i1l1746
  4037  0446  3A01               	xorlw	1	; case 7
  4038  0447  1903               	skipnz
  4039  0448  2C16               	goto	i1l1750
  4040  0449  3A0F               	xorlw	15	; case 8
  4041  044A  1903               	skipnz
  4042  044B  2C22               	goto	i1l1754
  4043  044C  2C4D               	goto	i1l226
  4044  044D                     i1l226:
  4045  044D  0008               	return
  4046  044E                     __end_of_envio:
  4047                           
  4048                           	psect	text21
  4049  02DB                     __ptext21:	
  4050 ;; *************** function _tabla_hex *****************
  4051 ;; Defined at:
  4052 ;;		line 11 in file "C:/MPlab_Digital2/Digital_2/Proyecto3Digital2.X/TablaACSII_HEX.c"
  4053 ;; Parameters:    Size  Location     Type
  4054 ;;  selector        1    wreg     unsigned char 
  4055 ;;  port            2    0[COMMON] PTR volatile unsigned ch
  4056 ;;		 -> TXREG(1), 
  4057 ;; Auto vars:     Size  Location     Type
  4058 ;;  selector        1    4[COMMON] unsigned char 
  4059 ;; Return value:  Size  Location     Type
  4060 ;;                  1    wreg      void 
  4061 ;; Registers used:
  4062 ;;		wreg, fsr0l, fsr0h, status,2, status,0, btemp+1
  4063 ;; Tracked objects:
  4064 ;;		On entry : 0/0
  4065 ;;		On exit  : 0/0
  4066 ;;		Unchanged: 0/0
  4067 ;; Data sizes:     COMMON   BANK0   BANK1   BANK3   BANK2
  4068 ;;      Params:         2       0       0       0       0
  4069 ;;      Locals:         1       0       0       0       0
  4070 ;;      Temps:          2       0       0       0       0
  4071 ;;      Totals:         5       0       0       0       0
  4072 ;;Total ram usage:        5 bytes
  4073 ;; Hardware stack levels used:    1
  4074 ;; This function calls:
  4075 ;;		Nothing
  4076 ;; This function is called by:
  4077 ;;		_envio
  4078 ;; This function uses a non-reentrant model
  4079 ;;
  4080                           
  4081                           
  4082                           ;psect for function _tabla_hex
  4083  02DB                     _tabla_hex:
  4084                           
  4085                           ;incstack = 0
  4086                           ; Regs used in _tabla_hex: [wreg-fsr0h+status,2+status,0+btemp+1]
  4087                           ;tabla_hex@selector stored from wreg
  4088  02DB  00F4               	movwf	tabla_hex@selector
  4089  02DC                     i1l1554:
  4090                           
  4091                           ;C:/MPlab_Digital2/Digital_2/Proyecto3Digital2.X/TablaACSII_HEX.c: 12: switch (selector)
      +                          {
  4092  02DC  2B7D               	goto	i1l1592
  4093  02DD                     i1l1556:
  4094                           
  4095                           ;C:/MPlab_Digital2/Digital_2/Proyecto3Digital2.X/TablaACSII_HEX.c: 14:             *port
      +                           = 48;
  4096  02DD  3030               	movlw	48
  4097  02DE  00FF               	movwf	btemp+1
  4098  02DF  0870               	movf	tabla_hex@port,w
  4099  02E0  0084               	movwf	4
  4100  02E1  1783               	bsf	3,7
  4101  02E2  1C71               	btfss	tabla_hex@port+1,0
  4102  02E3  1383               	bcf	3,7
  4103  02E4  087F               	movf	btemp+1,w
  4104  02E5  0080               	movwf	0
  4105                           
  4106                           ;C:/MPlab_Digital2/Digital_2/Proyecto3Digital2.X/TablaACSII_HEX.c: 15:             break
      +                          ;
  4107  02E6  2BB7               	goto	i1l251
  4108  02E7                     i1l1558:
  4109                           
  4110                           ;C:/MPlab_Digital2/Digital_2/Proyecto3Digital2.X/TablaACSII_HEX.c: 17:             *port
      +                           = 49;
  4111  02E7  3031               	movlw	49
  4112  02E8  00FF               	movwf	btemp+1
  4113  02E9  0870               	movf	tabla_hex@port,w
  4114  02EA  0084               	movwf	4
  4115  02EB  1783               	bsf	3,7
  4116  02EC  1C71               	btfss	tabla_hex@port+1,0
  4117  02ED  1383               	bcf	3,7
  4118  02EE  087F               	movf	btemp+1,w
  4119  02EF  0080               	movwf	0
  4120                           
  4121                           ;C:/MPlab_Digital2/Digital_2/Proyecto3Digital2.X/TablaACSII_HEX.c: 18:             break
      +                          ;
  4122  02F0  2BB7               	goto	i1l251
  4123  02F1                     i1l1560:
  4124                           
  4125                           ;C:/MPlab_Digital2/Digital_2/Proyecto3Digital2.X/TablaACSII_HEX.c: 20:             *port
      +                           = 50;
  4126  02F1  3032               	movlw	50
  4127  02F2  00FF               	movwf	btemp+1
  4128  02F3  0870               	movf	tabla_hex@port,w
  4129  02F4  0084               	movwf	4
  4130  02F5  1783               	bsf	3,7
  4131  02F6  1C71               	btfss	tabla_hex@port+1,0
  4132  02F7  1383               	bcf	3,7
  4133  02F8  087F               	movf	btemp+1,w
  4134  02F9  0080               	movwf	0
  4135                           
  4136                           ;C:/MPlab_Digital2/Digital_2/Proyecto3Digital2.X/TablaACSII_HEX.c: 21:             break
      +                          ;
  4137  02FA  2BB7               	goto	i1l251
  4138  02FB                     i1l1562:
  4139                           
  4140                           ;C:/MPlab_Digital2/Digital_2/Proyecto3Digital2.X/TablaACSII_HEX.c: 23:             *port
      +                           = 51;
  4141  02FB  3033               	movlw	51
  4142  02FC  00FF               	movwf	btemp+1
  4143  02FD  0870               	movf	tabla_hex@port,w
  4144  02FE  0084               	movwf	4
  4145  02FF  1783               	bsf	3,7
  4146  0300  1C71               	btfss	tabla_hex@port+1,0
  4147  0301  1383               	bcf	3,7
  4148  0302  087F               	movf	btemp+1,w
  4149  0303  0080               	movwf	0
  4150                           
  4151                           ;C:/MPlab_Digital2/Digital_2/Proyecto3Digital2.X/TablaACSII_HEX.c: 24:             break
      +                          ;
  4152  0304  2BB7               	goto	i1l251
  4153  0305                     i1l1564:
  4154                           
  4155                           ;C:/MPlab_Digital2/Digital_2/Proyecto3Digital2.X/TablaACSII_HEX.c: 26:            *port 
      +                          = 52;
  4156  0305  3034               	movlw	52
  4157  0306  00FF               	movwf	btemp+1
  4158  0307  0870               	movf	tabla_hex@port,w
  4159  0308  0084               	movwf	4
  4160  0309  1783               	bsf	3,7
  4161  030A  1C71               	btfss	tabla_hex@port+1,0
  4162  030B  1383               	bcf	3,7
  4163  030C  087F               	movf	btemp+1,w
  4164  030D  0080               	movwf	0
  4165                           
  4166                           ;C:/MPlab_Digital2/Digital_2/Proyecto3Digital2.X/TablaACSII_HEX.c: 27:             break
      +                          ;
  4167  030E  2BB7               	goto	i1l251
  4168  030F                     i1l1566:
  4169                           
  4170                           ;C:/MPlab_Digital2/Digital_2/Proyecto3Digital2.X/TablaACSII_HEX.c: 29:             *port
      +                           = 53;
  4171  030F  3035               	movlw	53
  4172  0310  00FF               	movwf	btemp+1
  4173  0311  0870               	movf	tabla_hex@port,w
  4174  0312  0084               	movwf	4
  4175  0313  1783               	bsf	3,7
  4176  0314  1C71               	btfss	tabla_hex@port+1,0
  4177  0315  1383               	bcf	3,7
  4178  0316  087F               	movf	btemp+1,w
  4179  0317  0080               	movwf	0
  4180                           
  4181                           ;C:/MPlab_Digital2/Digital_2/Proyecto3Digital2.X/TablaACSII_HEX.c: 30:             break
      +                          ;
  4182  0318  2BB7               	goto	i1l251
  4183  0319                     i1l1568:
  4184                           
  4185                           ;C:/MPlab_Digital2/Digital_2/Proyecto3Digital2.X/TablaACSII_HEX.c: 32:             *port
      +                           = 54;
  4186  0319  3036               	movlw	54
  4187  031A  00FF               	movwf	btemp+1
  4188  031B  0870               	movf	tabla_hex@port,w
  4189  031C  0084               	movwf	4
  4190  031D  1783               	bsf	3,7
  4191  031E  1C71               	btfss	tabla_hex@port+1,0
  4192  031F  1383               	bcf	3,7
  4193  0320  087F               	movf	btemp+1,w
  4194  0321  0080               	movwf	0
  4195                           
  4196                           ;C:/MPlab_Digital2/Digital_2/Proyecto3Digital2.X/TablaACSII_HEX.c: 33:             break
      +                          ;
  4197  0322  2BB7               	goto	i1l251
  4198  0323                     i1l1570:
  4199                           
  4200                           ;C:/MPlab_Digital2/Digital_2/Proyecto3Digital2.X/TablaACSII_HEX.c: 35:             *port
      +                           = 55;
  4201  0323  3037               	movlw	55
  4202  0324  00FF               	movwf	btemp+1
  4203  0325  0870               	movf	tabla_hex@port,w
  4204  0326  0084               	movwf	4
  4205  0327  1783               	bsf	3,7
  4206  0328  1C71               	btfss	tabla_hex@port+1,0
  4207  0329  1383               	bcf	3,7
  4208  032A  087F               	movf	btemp+1,w
  4209  032B  0080               	movwf	0
  4210                           
  4211                           ;C:/MPlab_Digital2/Digital_2/Proyecto3Digital2.X/TablaACSII_HEX.c: 36:             break
      +                          ;
  4212  032C  2BB7               	goto	i1l251
  4213  032D                     i1l1572:
  4214                           
  4215                           ;C:/MPlab_Digital2/Digital_2/Proyecto3Digital2.X/TablaACSII_HEX.c: 38:             *port
      +                           = 56;
  4216  032D  3038               	movlw	56
  4217  032E  00FF               	movwf	btemp+1
  4218  032F  0870               	movf	tabla_hex@port,w
  4219  0330  0084               	movwf	4
  4220  0331  1783               	bsf	3,7
  4221  0332  1C71               	btfss	tabla_hex@port+1,0
  4222  0333  1383               	bcf	3,7
  4223  0334  087F               	movf	btemp+1,w
  4224  0335  0080               	movwf	0
  4225                           
  4226                           ;C:/MPlab_Digital2/Digital_2/Proyecto3Digital2.X/TablaACSII_HEX.c: 39:             break
      +                          ;
  4227  0336  2BB7               	goto	i1l251
  4228  0337                     i1l1574:
  4229                           
  4230                           ;C:/MPlab_Digital2/Digital_2/Proyecto3Digital2.X/TablaACSII_HEX.c: 41:             *port
      +                           = 57;
  4231  0337  3039               	movlw	57
  4232  0338  00FF               	movwf	btemp+1
  4233  0339  0870               	movf	tabla_hex@port,w
  4234  033A  0084               	movwf	4
  4235  033B  1783               	bsf	3,7
  4236  033C  1C71               	btfss	tabla_hex@port+1,0
  4237  033D  1383               	bcf	3,7
  4238  033E  087F               	movf	btemp+1,w
  4239  033F  0080               	movwf	0
  4240                           
  4241                           ;C:/MPlab_Digital2/Digital_2/Proyecto3Digital2.X/TablaACSII_HEX.c: 42:             break
      +                          ;
  4242  0340  2BB7               	goto	i1l251
  4243  0341                     i1l1576:
  4244                           
  4245                           ;C:/MPlab_Digital2/Digital_2/Proyecto3Digital2.X/TablaACSII_HEX.c: 44:             *port
      +                           = 65;
  4246  0341  3041               	movlw	65
  4247  0342  00FF               	movwf	btemp+1
  4248  0343  0870               	movf	tabla_hex@port,w
  4249  0344  0084               	movwf	4
  4250  0345  1783               	bsf	3,7
  4251  0346  1C71               	btfss	tabla_hex@port+1,0
  4252  0347  1383               	bcf	3,7
  4253  0348  087F               	movf	btemp+1,w
  4254  0349  0080               	movwf	0
  4255                           
  4256                           ;C:/MPlab_Digital2/Digital_2/Proyecto3Digital2.X/TablaACSII_HEX.c: 45:             break
      +                          ;
  4257  034A  2BB7               	goto	i1l251
  4258  034B                     i1l1578:
  4259                           
  4260                           ;C:/MPlab_Digital2/Digital_2/Proyecto3Digital2.X/TablaACSII_HEX.c: 47:             *port
      +                           = 66;
  4261  034B  3042               	movlw	66
  4262  034C  00FF               	movwf	btemp+1
  4263  034D  0870               	movf	tabla_hex@port,w
  4264  034E  0084               	movwf	4
  4265  034F  1783               	bsf	3,7
  4266  0350  1C71               	btfss	tabla_hex@port+1,0
  4267  0351  1383               	bcf	3,7
  4268  0352  087F               	movf	btemp+1,w
  4269  0353  0080               	movwf	0
  4270                           
  4271                           ;C:/MPlab_Digital2/Digital_2/Proyecto3Digital2.X/TablaACSII_HEX.c: 48:             break
      +                          ;
  4272  0354  2BB7               	goto	i1l251
  4273  0355                     i1l1580:
  4274                           
  4275                           ;C:/MPlab_Digital2/Digital_2/Proyecto3Digital2.X/TablaACSII_HEX.c: 50:             *port
      +                           = 67;
  4276  0355  3043               	movlw	67
  4277  0356  00FF               	movwf	btemp+1
  4278  0357  0870               	movf	tabla_hex@port,w
  4279  0358  0084               	movwf	4
  4280  0359  1783               	bsf	3,7
  4281  035A  1C71               	btfss	tabla_hex@port+1,0
  4282  035B  1383               	bcf	3,7
  4283  035C  087F               	movf	btemp+1,w
  4284  035D  0080               	movwf	0
  4285                           
  4286                           ;C:/MPlab_Digital2/Digital_2/Proyecto3Digital2.X/TablaACSII_HEX.c: 51:             break
      +                          ;
  4287  035E  2BB7               	goto	i1l251
  4288  035F                     i1l1582:
  4289                           
  4290                           ;C:/MPlab_Digital2/Digital_2/Proyecto3Digital2.X/TablaACSII_HEX.c: 53:             *port
      +                           = 68;
  4291  035F  3044               	movlw	68
  4292  0360  00FF               	movwf	btemp+1
  4293  0361  0870               	movf	tabla_hex@port,w
  4294  0362  0084               	movwf	4
  4295  0363  1783               	bsf	3,7
  4296  0364  1C71               	btfss	tabla_hex@port+1,0
  4297  0365  1383               	bcf	3,7
  4298  0366  087F               	movf	btemp+1,w
  4299  0367  0080               	movwf	0
  4300                           
  4301                           ;C:/MPlab_Digital2/Digital_2/Proyecto3Digital2.X/TablaACSII_HEX.c: 54:             break
      +                          ;
  4302  0368  2BB7               	goto	i1l251
  4303  0369                     i1l1584:
  4304                           
  4305                           ;C:/MPlab_Digital2/Digital_2/Proyecto3Digital2.X/TablaACSII_HEX.c: 56:             *port
      +                           = 69;
  4306  0369  3045               	movlw	69
  4307  036A  00FF               	movwf	btemp+1
  4308  036B  0870               	movf	tabla_hex@port,w
  4309  036C  0084               	movwf	4
  4310  036D  1783               	bsf	3,7
  4311  036E  1C71               	btfss	tabla_hex@port+1,0
  4312  036F  1383               	bcf	3,7
  4313  0370  087F               	movf	btemp+1,w
  4314  0371  0080               	movwf	0
  4315                           
  4316                           ;C:/MPlab_Digital2/Digital_2/Proyecto3Digital2.X/TablaACSII_HEX.c: 57:             break
      +                          ;
  4317  0372  2BB7               	goto	i1l251
  4318  0373                     i1l1586:
  4319                           
  4320                           ;C:/MPlab_Digital2/Digital_2/Proyecto3Digital2.X/TablaACSII_HEX.c: 59:             *port
      +                           = 70;
  4321  0373  3046               	movlw	70
  4322  0374  00FF               	movwf	btemp+1
  4323  0375  0870               	movf	tabla_hex@port,w
  4324  0376  0084               	movwf	4
  4325  0377  1783               	bsf	3,7
  4326  0378  1C71               	btfss	tabla_hex@port+1,0
  4327  0379  1383               	bcf	3,7
  4328  037A  087F               	movf	btemp+1,w
  4329  037B  0080               	movwf	0
  4330                           
  4331                           ;C:/MPlab_Digital2/Digital_2/Proyecto3Digital2.X/TablaACSII_HEX.c: 60:             break
      +                          ;
  4332  037C  2BB7               	goto	i1l251
  4333  037D                     i1l1592:
  4334  037D  0874               	movf	tabla_hex@selector,w
  4335  037E  00F2               	movwf	??_tabla_hex
  4336  037F  01F3               	clrf	??_tabla_hex+1
  4337                           
  4338                           ; Switch on 2 bytes has been partitioned into a top level switch of size 1, and 1 sub-sw
      +                          itches
  4339                           ; Switch size 1, requested type "simple"
  4340                           ; Number of cases is 1, Range of values is 0 to 0
  4341                           ; switch strategies available:
  4342                           ; Name         Instructions Cycles
  4343                           ; simple_byte            4     3 (average)
  4344                           ; direct_byte           11     8 (fixed)
  4345                           ; jumptable            260     6 (fixed)
  4346                           ;	Chosen strategy is simple_byte
  4347  0380  0873               	movf	??_tabla_hex+1,w
  4348  0381  3A00               	xorlw	0	; case 0
  4349  0382  1903               	skipnz
  4350  0383  2B85               	goto	i1l2090
  4351  0384  2ADD               	goto	i1l1556
  4352  0385                     i1l2090:
  4353                           
  4354                           ; Switch size 1, requested type "simple"
  4355                           ; Number of cases is 16, Range of values is 0 to 15
  4356                           ; switch strategies available:
  4357                           ; Name         Instructions Cycles
  4358                           ; simple_byte           49    25 (average)
  4359                           ; direct_byte           56     8 (fixed)
  4360                           ; jumptable            260     6 (fixed)
  4361                           ;	Chosen strategy is simple_byte
  4362  0385  0872               	movf	??_tabla_hex,w
  4363  0386  3A00               	xorlw	0	; case 0
  4364  0387  1903               	skipnz
  4365  0388  2ADD               	goto	i1l1556
  4366  0389  3A01               	xorlw	1	; case 1
  4367  038A  1903               	skipnz
  4368  038B  2AE7               	goto	i1l1558
  4369  038C  3A03               	xorlw	3	; case 2
  4370  038D  1903               	skipnz
  4371  038E  2AF1               	goto	i1l1560
  4372  038F  3A01               	xorlw	1	; case 3
  4373  0390  1903               	skipnz
  4374  0391  2AFB               	goto	i1l1562
  4375  0392  3A07               	xorlw	7	; case 4
  4376  0393  1903               	skipnz
  4377  0394  2B05               	goto	i1l1564
  4378  0395  3A01               	xorlw	1	; case 5
  4379  0396  1903               	skipnz
  4380  0397  2B0F               	goto	i1l1566
  4381  0398  3A03               	xorlw	3	; case 6
  4382  0399  1903               	skipnz
  4383  039A  2B19               	goto	i1l1568
  4384  039B  3A01               	xorlw	1	; case 7
  4385  039C  1903               	skipnz
  4386  039D  2B23               	goto	i1l1570
  4387  039E  3A0F               	xorlw	15	; case 8
  4388  039F  1903               	skipnz
  4389  03A0  2B2D               	goto	i1l1572
  4390  03A1  3A01               	xorlw	1	; case 9
  4391  03A2  1903               	skipnz
  4392  03A3  2B37               	goto	i1l1574
  4393  03A4  3A03               	xorlw	3	; case 10
  4394  03A5  1903               	skipnz
  4395  03A6  2B41               	goto	i1l1576
  4396  03A7  3A01               	xorlw	1	; case 11
  4397  03A8  1903               	skipnz
  4398  03A9  2B4B               	goto	i1l1578
  4399  03AA  3A07               	xorlw	7	; case 12
  4400  03AB  1903               	skipnz
  4401  03AC  2B55               	goto	i1l1580
  4402  03AD  3A01               	xorlw	1	; case 13
  4403  03AE  1903               	skipnz
  4404  03AF  2B5F               	goto	i1l1582
  4405  03B0  3A03               	xorlw	3	; case 14
  4406  03B1  1903               	skipnz
  4407  03B2  2B69               	goto	i1l1584
  4408  03B3  3A01               	xorlw	1	; case 15
  4409  03B4  1903               	skipnz
  4410  03B5  2B73               	goto	i1l1586
  4411  03B6  2ADD               	goto	i1l1556
  4412  03B7                     i1l251:
  4413  03B7  0008               	return
  4414  03B8                     __end_of_tabla_hex:
  4415  007E                     btemp	set	126	;btemp
  4416  007E                     wtemp0	set	126
  4417                           
  4418                           	psect	config
  4419                           
  4420                           ;Config register CONFIG1 @ 0x2007
  4421                           ;	Oscillator Selection bits
  4422                           ;	FOSC = INTRC_NOCLKOUT, INTOSCIO oscillator: I/O function on RA6/OSC2/CLKOUT pin, I/O f
      +                          unction on RA7/OSC1/CLKIN
  4423                           ;	Watchdog Timer Enable bit
  4424                           ;	WDTE = OFF, WDT disabled and can be enabled by SWDTEN bit of the WDTCON register
  4425                           ;	Power-up Timer Enable bit
  4426                           ;	PWRTE = OFF, PWRT disabled
  4427                           ;	RE3/MCLR pin function select bit
  4428                           ;	MCLRE = OFF, RE3/MCLR pin function is digital input, MCLR internally tied to VDD
  4429                           ;	Code Protection bit
  4430                           ;	CP = OFF, Program memory code protection is disabled
  4431                           ;	Data Code Protection bit
  4432                           ;	CPD = OFF, Data memory code protection is disabled
  4433                           ;	Brown Out Reset Selection bits
  4434                           ;	BOREN = OFF, BOR disabled
  4435                           ;	Internal External Switchover bit
  4436                           ;	IESO = OFF, Internal/External Switchover mode is disabled
  4437                           ;	Fail-Safe Clock Monitor Enabled bit
  4438                           ;	FCMEN = OFF, Fail-Safe Clock Monitor is disabled
  4439                           ;	Low Voltage Programming Enable bit
  4440                           ;	LVP = OFF, RB3 pin has digital I/O, HV on MCLR must be used for programming
  4441                           ;	In-Circuit Debugger Mode bit
  4442                           ;	DEBUG = 0x1, unprogrammed default
  4443  2007                     	org	8199
  4444  2007  20D4               	dw	8404
  4445                           
  4446                           ;Config register CONFIG2 @ 0x2008
  4447                           ;	Brown-out Reset Selection bit
  4448                           ;	BOR4V = BOR40V, Brown-out Reset set to 4.0V
  4449                           ;	Flash Program Memory Self Write Enable bits
  4450                           ;	WRT = OFF, Write protection off
  4451  2008                     	org	8200
  4452  2008  3FFF               	dw	16383

Data Sizes:
    Strings     15
    Constant    0
    Data        0
    BSS         12
    Persistent  0
    Stack       0

Auto Spaces:
    Space          Size  Autos    Used
    COMMON           14     11      14
    BANK0            80     31      40
    BANK1            80      0       0
    BANK3            96      0       0
    BANK2            96      0       0

Pointer List with Targets:

    tabla_hex@port	PTR volatile unsigned char  size(2) Largest target is 1
		 -> TXREG(SFR0[1]), 

    Lcd_Write_String@a	PTR unsigned char  size(1) Largest target is 15
		 -> STR_1(CODE[15]), 


Critical Paths under _main in COMMON

    None.

Critical Paths under _isr in COMMON

    _isr->_envio
    _envio->_tabla_hex

Critical Paths under _main in BANK0

    _main->_mapeo
    _setup->_Lcd_Init
    _Lcd_Init->_Lcd_Cmd
    _mapeo->___lwdiv
    ___wmul->___awdiv
    ___lwdiv->___wmul
    _Lcd_Write_String->_Lcd_Write_Char
    _Lcd_Write_Char->_Lcd_Port
    _Lcd_Set_Cursor->_Lcd_Cmd
    _Lcd_Clear->_Lcd_Cmd
    _Lcd_Cmd->_Lcd_Port

Critical Paths under _isr in BANK0

    None.

Critical Paths under _main in BANK1

    None.

Critical Paths under _isr in BANK1

    None.

Critical Paths under _main in BANK3

    None.

Critical Paths under _isr in BANK3

    None.

Critical Paths under _main in BANK2

    None.

Critical Paths under _isr in BANK2

    None.

Call Graph Tables:

 ---------------------------------------------------------------------------------
 (Depth) Function   	        Calls       Base Space   Used Autos Params    Refs
 ---------------------------------------------------------------------------------
 (0) _main                                                 4     4      0    7691
                                             27 BANK0      4     4      0
                          _Lcd_Clear
                     _Lcd_Set_Cursor
                     _Lcd_Write_Char
                   _Lcd_Write_String
                              _TX_GO
                            ___awdiv
                             ___wmul
                     _envio_esclavos
                              _mapeo
                              _setup
 ---------------------------------------------------------------------------------
 (1) _setup                                                0     0      0     110
                           _Lcd_Init
                            _initOsc
                      _initSPIMASTER
                          _initUSART
 ---------------------------------------------------------------------------------
 (2) _initUSART                                            0     0      0       0
 ---------------------------------------------------------------------------------
 (2) _initSPIMASTER                                        3     3      0      22
                                              0 BANK0      3     3      0
 ---------------------------------------------------------------------------------
 (2) _initOsc                                              3     3      0      22
                                              0 BANK0      3     3      0
 ---------------------------------------------------------------------------------
 (2) _Lcd_Init                                             2     2      0      66
                                              3 BANK0      2     2      0
                            _Lcd_Cmd
                           _Lcd_Port
 ---------------------------------------------------------------------------------
 (1) _mapeo                                                6     6      0    3670
                                             21 BANK0      6     6      0
                            ___awdiv
                             ___bmul
                            ___lwdiv
                             ___wmul
 ---------------------------------------------------------------------------------
 (2) ___wmul                                               6     2      4    1004
                                              8 BANK0      6     2      4
                            ___awdiv (ARG)
 ---------------------------------------------------------------------------------
 (2) ___lwdiv                                              7     3      4     770
                                             14 BANK0      7     3      4
                             ___wmul (ARG)
 ---------------------------------------------------------------------------------
 (2) ___bmul                                               3     2      1     396
                                              0 BANK0      3     2      1
 ---------------------------------------------------------------------------------
 (2) ___awdiv                                              8     4      4    1364
                                              0 BANK0      8     4      4
 ---------------------------------------------------------------------------------
 (1) _envio_esclavos                                       2     2      0       0
                                              0 BANK0      2     2      0
 ---------------------------------------------------------------------------------
 (1) _TX_GO                                                0     0      0       0
 ---------------------------------------------------------------------------------
 (1) _Lcd_Write_String                                     3     3      0     167
                                              2 BANK0      3     3      0
                     _Lcd_Write_Char
 ---------------------------------------------------------------------------------
 (2) _Lcd_Write_Char                                       1     1      0      44
                                              1 BANK0      1     1      0
                           _Lcd_Port
 ---------------------------------------------------------------------------------
 (1) _Lcd_Set_Cursor                                       3     2      1    1242
                                              3 BANK0      3     2      1
                            _Lcd_Cmd
 ---------------------------------------------------------------------------------
 (1) _Lcd_Clear                                            0     0      0      44
                            _Lcd_Cmd
 ---------------------------------------------------------------------------------
 (3) _Lcd_Cmd                                              2     2      0      44
                                              1 BANK0      2     2      0
                           _Lcd_Port
 ---------------------------------------------------------------------------------
 (3) _Lcd_Port                                             1     1      0      22
                                              0 BANK0      1     1      0
 ---------------------------------------------------------------------------------
 Estimated maximum stack depth 3
 ---------------------------------------------------------------------------------
 (Depth) Function   	        Calls       Base Space   Used Autos Params    Refs
 ---------------------------------------------------------------------------------
 (5) _isr                                                  4     4      0     852
                                              7 COMMON     4     4      0
                              _envio
 ---------------------------------------------------------------------------------
 (6) _envio                                                2     2      0     852
                                              5 COMMON     2     2      0
                          _tabla_hex
 ---------------------------------------------------------------------------------
 (7) _tabla_hex                                            5     3      2     852
                                              0 COMMON     5     3      2
 ---------------------------------------------------------------------------------
 Estimated maximum stack depth 7
 ---------------------------------------------------------------------------------

 Call Graph Graphs:

 _main (ROOT)
   _Lcd_Clear
     _Lcd_Cmd
       _Lcd_Port
   _Lcd_Set_Cursor
     _Lcd_Cmd
       _Lcd_Port
   _Lcd_Write_Char
     _Lcd_Port
   _Lcd_Write_String
     _Lcd_Write_Char
       _Lcd_Port
   _TX_GO
   ___awdiv
   ___wmul
     ___awdiv (ARG)
   _envio_esclavos
   _mapeo
     ___awdiv
     ___bmul
     ___lwdiv
       ___wmul (ARG)
         ___awdiv (ARG)
     ___wmul
       ___awdiv (ARG)
   _setup
     _Lcd_Init
       _Lcd_Cmd
         _Lcd_Port
       _Lcd_Port
     _initOsc
     _initSPIMASTER
     _initUSART

 _isr (ROOT)
   _envio
     _tabla_hex

 Address spaces:
Name               Size   Autos  Total    Cost      Usage
BITCOMMON            E      0       0       0        0.0%
EEDATA             100      0       0       0        0.0%
NULL                 0      0       0       0        0.0%
CODE                 0      0       0       0        0.0%
COMMON               E      B       E       1      100.0%
BITSFR0              0      0       0       1        0.0%
SFR0                 0      0       0       1        0.0%
BITSFR1              0      0       0       2        0.0%
SFR1                 0      0       0       2        0.0%
STACK                0      0       0       2        0.0%
ABS                  0      0      36       3        0.0%
BITBANK0            50      0       0       4        0.0%
BITSFR3              0      0       0       4        0.0%
SFR3                 0      0       0       4        0.0%
BANK0               50     1F      28       5       50.0%
BITSFR2              0      0       0       5        0.0%
SFR2                 0      0       0       5        0.0%
BITBANK1            50      0       0       6        0.0%
BANK1               50      0       0       7        0.0%
BITBANK3            60      0       0       8        0.0%
BANK3               60      0       0       9        0.0%
BITBANK2            60      0       0      10        0.0%
BANK2               60      0       0      11        0.0%
DATA                 0      0      36      12        0.0%


Microchip Technology PIC Macro Assembler V2.20 build 20200408173844 
Symbol Table                                                                                   Thu Feb 11 23:55:54 2021

                        pc 0002             ___bmul@product 0021                _SSPSTATbits 0094  
                       l11 079A                         l14 0717                         l23 06FE  
                       l17 0794                         l26 0510                         l35 06B1  
                       l51 0663                         l52 0668                         l29 0783  
                       l53 066D                         l70 0521                         l54 0688  
                       l71 0527                         l72 052D                         l73 0533  
                       l49 065E                         l74 0539                         l75 053F  
                       l67 0515                         l76 0567                         l69 051B  
             ___awdiv@sign 0025                         fsr 0004        ___wmul@multiplicand 002A  
                      l200 05CA                        l204 05DB                        l212 060B  
                      l205 05DC                        l208 05E9                        l209 05EA  
                      l229 02DA                        l350 06C0                        l190 05BB  
                      l503 04B6                        l352 06D8                        l264 0770  
                      l194 078D                        l622 0651                        l199 05C9  
                      l376 0747                        _RE0 0048                        _RE2 004A  
                      u400 0739                        u401 0738                        u410 0746  
                      u411 0745                        u500 04A8                        u420 0455  
                      u501 04A7                        u421 0454                        u510 04AD  
                      u430 0460                        u511 04AC                        u431 045F  
                      u600 06F3                        u440 0471                        u520 0616  
                      u360 06BA                        u601 06F2                        u441 0470  
                      u521 0615                        u361 06B9                        u610 06B1  
                      u611 06B0                        u460 0483                        u540 0628  
                      u461 0482                        u541 0627                        u390 06D4  
                      u455 0475                        u535 061A                        u391 06D3  
                      u375 06C1                        u480 0494                        u560 0639  
                      u481 0493                        u561 0638                        u385 06C8  
                      u650 078A                        u651 0789                        u475 0484  
                      u555 0629                        u660 05C2                        u580 064D  
                      u661 05C1                        u485 0490                        u581 064C  
                      u565 0635                        u717 04BB                        u590 06E1  
                      u670 05D0                        u591 06E0                        u671 05CF  
                      u495 049C                        u575 0641                        u727 04CE  
                      u680 05E2                        u681 05E1                        u737 04DC  
                      u690 05F0                        u691 05EF                        u747 04E9  
                      u757 0710                        _isr 0718                        fsr0 0004  
                      indf 0000     __size_of_initSPIMASTER 0037                       l1500 04F8  
                     l1510 0775                       l1502 04FE                       l1512 077B  
                     l1600 06B6                       l1504 0504                       l1514 077E  
                     l1602 06BA                       l1506 050A                       l2082 067A  
                     l1522 0672                       l1700 06DC                       l1516 0780  
                     l1508 0774                       l1620 073F                       l1612 0734  
                     l1604 06C7                       l2084 054D                       l1532 0545  
                     l1540 075D                       l1710 06F8                       l1702 06E1  
                     l2086 0600                       l1630 0451                       l1622 0741  
                     l1614 0735                       l1606 06CE                       l1518 0655  
                     l1550 076E                       l1542 0765                       l1480 0709  
                     l1704 06E6                       l1712 068C                       l1640 0465  
                     l1632 0455                       l1624 0746                       l1616 0739  
                     l1608 06D4                       l1528 0514                       l1552 076F  
                     l1544 0769                       l1800 059F                       l1474 0798  
                     l1482 070C                       l1706 06ED                       l1714 068F  
                     l1650 047B                       l1642 0469                       l1634 045A  
                     l1618 073D                       l1490 04C8                       l1546 076A  
                     l1810 05AA                       l1802 05A0                       l1484 0714  
                     l1476 0702                       l1708 06F3                       l1716 069C  
                     l1660 049B                       l1652 047F                       l1644 046B  
                     l1636 045C                       l1628 044E                       l1492 04D8  
                     l1548 076B                       l1820 05AF                       l1812 05AB  
                     l1804 05A1                       l1478 0703                       l1718 06A4  
                     l1662 04A2                       l1654 0483                       l1646 0471  
                     l1638 0460                       l1494 04DF                       l1486 04B7  
                     l1830 05B8                       l1822 05B0                       l1814 05AC  
                     l1806 05A6                       l1910 0041                       l1902 0027  
                     l1832 0784                       l1840 05C3                       l1656 0494  
                     l1648 0474                       l1664 04A8                       l1680 0620  
                     l1672 060C                       l1496 04EC                       l1488 04C2  
                     l1824 05B1                       l1816 05AD                       l1808 05A9  
                     l1920 0063                       l1912 0046                       l1904 002C  
                     l1834 078A                       l1850 05E2                       l1842 05C6  
                     l1666 04AD                       l1658 049A                       l1690 0640  
                     l1682 0624                       l1674 0610                       l1498 04F2  
                     l1826 05B2                       l1818 05AE                       l1770 0573  
                     l1930 0096                       l1922 006F                       l1914 004B  
                     l1906 0031                       l1860 05F8                       l1844 05C7  
                     l1836 05BC                       l1668 04B2                       l1692 0647  
                     l1684 0628                       l1676 0616                       l1828 05B5  
                     l1780 0584                       l1772 0579                       l1940 00C6  
                     l1932 009F                       l1924 0075                       l1916 0050  
                     l1908 003B                       l1854 05F0                       l1846 05D0  
                     l1838 05C2                       l1686 0639                       l1678 0619  
                     l1694 064D                       l1598 06B2                       l1870 0201  
                     l1790 0594                       l1782 0588                       l1774 057D  
                     l1766 0568                       l1950 00F9                       l1942 00D2  
                     l1934 00AB                       l1926 0081                       l1918 005A  
                     l1856 05F6                       l1848 05D6                       l1688 063F  
                     l1880 0293                       l1872 0226                       l1792 0597  
                     l1784 058B                       l1776 0580                       l1768 056E  
                     l1960 013B                       l1952 0102                       l1944 00D8  
                     l1936 00B1                       l1928 008A                       l1698 078E  
                     l1882 02BC                       l1874 0239                       l1866 01D8  
                     l1794 0598                       l1786 058E                       l1778 0581  
                     l1970 01BD                       l1962 0147                       l1954 010E  
                     l1946 00E4                       l1938 00BD                       l1876 0262  
                     l1868 01DC                       l1796 059B                       l1788 0591  
                     l1964 0171                       l1956 0114                       l1948 00ED  
                     l1878 0280                       l1798 059C                       l1966 0187  
                     l1958 0120                       l1968 0193                       ?_isr 0070  
                     STR_1 074E                       _TMR0 0001          ?_Lcd_Write_String 0070  
                     _main 0027                       btemp 007E                       start 0012  
       ??_Lcd_Write_String 0022            __end_of_Lcd_Cmd 0718          ___bmul@multiplier 0022  
                    ??_isr 0077              tabla_hex@port 0070                      ?_main 0070  
          __end_of___awdiv 04B7                      _ANSEL 0188            ___awdiv@divisor 0020  
          __end_of___lwdiv 0652                      i1l226 044D                      i1l251 03B7  
                    i1l179 0725            ___awdiv@counter 0024                      _SPBRG 0099  
                    _PORTA 0005                      _PORTB 0006                      _PORTC 0007  
                    _PORTD 0008                      _PORTE 0009                      u70_20 071D  
                    u70_21 071C                      u62_25 03C0                      u63_25 03E9  
                    u64_25 0409    __size_of_Lcd_Set_Cursor 0026                      _TRISA 0085  
                    _TRISB 0086                      _TRISC 0087                      _TRISD 0088  
                    _TRISE 0089                      _TXREG 0019                      _TX_GO 0784  
          __end_of_initOsc 0568                      _mapeo 01D8                      _envio 03B8  
                    _slave 0046                      _setup 0568                      pclath 000A  
                    status 0003                      wtemp0 007E           __end_of_Lcd_Init 0511  
         __end_of_Lcd_Port 079B            __initialization 0015              _initSPIMASTER 0652  
             __end_of_main 01D8                     ??_main 003B         __size_of_Lcd_Clear 0007  
                   ?_TX_GO 0070                     ?_mapeo 0070                     ?_envio 0070  
         ___awdiv@dividend 0022                     ?_setup 0070                     _ANSELH 0189  
                   i1l2090 0385                     i1l1560 02F1                     i1l2088 0430  
                   i1l1720 03B8                     i1l1570 0323                     i1l1562 02FB  
                   i1l1554 02DC                     i1l1730 03DF                     i1l1722 03B9  
                   i1l1580 0355                     i1l1572 032D                     i1l1564 0305  
                   i1l1556 02DD                     i1l1724 03CC                     i1l1900 0722  
                   i1l1582 035F                     i1l1574 0337                     i1l1566 030F  
                   i1l1558 02E7                     i1l1750 0416                     i1l1734 03E2  
                   i1l1726 03D3                     i1l1584 0369                     i1l1576 0341  
                   i1l1568 0319                     i1l1592 037D                     i1l1760 0426  
                   i1l1586 0373                     i1l1578 034B                     i1l1754 0422  
                   i1l1746 0402                     i1l1738 03F6                     i1l1756 0424  
                   i1l1896 0719                     i1l1888 0718                     i1l1898 071D  
                ??_Lcd_Cmd 0021                     _SPBRGH 009A    __size_of_Lcd_Write_Char 0013  
                   _SSPBUF 0013             ?_initSPIMASTER 0070                     ___bmul 0731  
                   ___wmul 06B2                  ??___awdiv 0024                  ??___lwdiv 0032  
         ___awdiv@quotient 0026    __size_of_envio_esclavos 0050                  ??_initOsc 0020  
                   saved_w 007E            Lcd_Set_Cursor@a 0024            Lcd_Set_Cursor@b 0023  
  __end_of__initialization 0023          __end_of_Lcd_Clear 0795        ___bmul@multiplicand 0020  
            __end_of_TX_GO 078E             __pcstackCOMMON 0070              __end_of_mapeo 02DB  
            __end_of_envio 044E              __end_of_setup 05BC             _Lcd_Set_Cursor 06D9  
                  ??_TX_GO 0020                  ?_Lcd_Init 0070                  ?_Lcd_Port 0070  
                  ??_mapeo 0035                    ??_envio 0075                    ??_setup 0025  
        tabla_hex@selector 0074                 __pbssBANK0 003F         __size_of_initUSART 0014  
          ??_initSPIMASTER 0020         __size_of_tabla_hex 00DD                 __pmaintext 0027  
                  ?___bmul 0020                 _centenasp1 0042                 _centenasp2 003F  
                  ?___wmul 0028                 __pintentry 0004  __size_of_Lcd_Write_String 0029  
   __end_of_Lcd_Set_Cursor 06FF                 ??_Lcd_Init 0023                 ??_Lcd_Port 0020  
               __stringtab 0748             _Lcd_Write_Char 0771                    _Lcd_Cmd 06FF  
          __size_of___bmul 0017                    ___awdiv 044E            __size_of___wmul 0027  
                  ___lwdiv 060C             _envio_esclavos 05BC            ?_Lcd_Set_Cursor 0023  
        __end_of_initUSART 0771                    __ptext1 0568                    __ptext2 075D  
                  __ptext3 0652                    __ptext4 0511                    __ptext5 04B7  
                  __ptext6 01D8                    __ptext7 06B2                    __ptext8 060C  
                  __ptext9 0731                    _initOsc 0511               __size_of_isr 0019  
        __end_of_tabla_hex 03B8     __end_of_Lcd_Write_Char 0784       end_of_initialization 0023  
                _RCSTAbits 0018     __end_of_envio_esclavos 060C                  Lcd_Port@a 0020  
                _PORTCbits 0007                 _unidadesp1 0044                 _unidadesp2 0041  
                _TRISCbits 0087            ?_Lcd_Write_Char 0070          Lcd_Write_String@a 0024  
        Lcd_Write_String@i 0022                  _TXSTAbits 0098                  _Lcd_Clear 078E  
          ?_envio_esclavos 0070             __end_of___bmul 0748             __end_of___wmul 06D9  
               mapeo@TEMP1 0037                 mapeo@TEMP2 0039           _Lcd_Write_String 0689  
              _BAUDCTLbits 0187        start_initialization 0015                __end_of_isr 0731  
        __size_of_Lcd_Init 005A          __size_of_Lcd_Port 0006                 ?_Lcd_Clear 0070  
                 ??___bmul 0021                   ??___wmul 002C            Lcd_Write_Char@a 0021  
              __pbssCOMMON 007B                  ___latbits 0002              __pcstackBANK0 0020  
        initSPIMASTER@modo 0022                   ?_Lcd_Cmd 0070                  _decenasp1 0043  
                _decenasp2 0040                  _main$1251 003D      __end_of_initSPIMASTER 0689  
         ___lwdiv@dividend 0030           ??_Lcd_Set_Cursor 0024                   ?___awdiv 0020  
                 ?___lwdiv 002E                  __pstrings 0748                   ?_initOsc 0070  
                _controles 007D             __size_of_TX_GO 000A                  _initUSART 075D  
         ___lwdiv@quotient 0032             __size_of_mapeo 0103             __size_of_envio 0096  
           __size_of_setup 0054                  _tabla_hex 02DB          interrupt_function 0004  
           ___wmul@product 002C                   _PIE1bits 008C                   Lcd_Cmd@a 0022  
                 _PIR1bits 000C                  _var_envio 0045                ??_Lcd_Clear 0023  
            initOsc@option 0022                __stringbase 074D          ___wmul@multiplier 0028  
         ??_Lcd_Write_Char 0021                 ?_initUSART 0070                   _Lcd_Init 04B7  
                 _Lcd_Port 0795                 ?_tabla_hex 0070   __end_of_Lcd_Write_String 06B2  
         __size_of_Lcd_Cmd 0019           ??_envio_esclavos 0020           __size_of___awdiv 0069  
         __size_of___lwdiv 0046         __end_of__stringtab 074E           __size_of_initOsc 0057  
          ___lwdiv@divisor 002E            ___lwdiv@counter 0034                   __ptext10 044E  
                 __ptext11 05BC                   __ptext20 03B8                   __ptext12 0784  
                 __ptext21 02DB                   __ptext13 0689                   __ptext14 0771  
                 __ptext15 06D9                   __ptext16 078E                   __ptext17 06FF  
                 __ptext18 0795                   __ptext19 0718                   _esclavo1 007C  
                 _esclavo2 0047                   _esclavo3 007B              __size_of_main 01B1  
               _INTCONbits 000B                ??_initUSART 0020                   intlevel1 0000  
              ??_tabla_hex 0072                  stringcode 0748                 _OSCCONbits 008F  
       Lcd_Set_Cursor@temp 0025                 _OPTION_REG 0081                   stringdir 0748  
                 stringtab 0748                 _SSPCONbits 0014  
