

Microchip MPLAB XC8 Assembler V2.20 build 20200408173844 
                                                                                               Tue Feb 16 22:25:02 2021

Microchip MPLAB XC8 C Compiler v2.20 (Free license) build 20200408173844 Og1 
     1                           	processor	16F887
     2                           	pagewidth 120
     3                           	opt	flic
     4                           	psect	strings,global,class=STRING,delta=2,noexec
     5                           	psect	cinit,global,class=CODE,merge=1,delta=2
     6                           	psect	bssBANK0,global,class=BANK0,space=1,delta=1,noexec
     7                           	psect	bssBANK1,global,class=BANK1,space=1,delta=1,noexec
     8                           	psect	cstackBANK1,global,class=BANK1,space=1,delta=1,noexec
     9                           	psect	cstackCOMMON,global,class=COMMON,space=1,delta=1,noexec
    10                           	psect	cstackBANK0,global,class=BANK0,space=1,delta=1,noexec
    11                           	psect	maintext,global,class=CODE,split=1,delta=2
    12                           	psect	text1,local,class=CODE,merge=1,delta=2
    13                           	psect	text2,local,class=CODE,merge=1,delta=2
    14                           	psect	text3,local,class=CODE,merge=1,delta=2,group=1
    15                           	psect	text4,local,class=CODE,merge=1,delta=2,group=1
    16                           	psect	text5,local,class=CODE,merge=1,delta=2,group=1
    17                           	psect	text6,local,class=CODE,merge=1,delta=2,group=1
    18                           	psect	text7,local,class=CODE,merge=1,delta=2,group=1
    19                           	psect	text8,local,class=CODE,merge=1,delta=2,group=1
    20                           	psect	text9,local,class=CODE,merge=1,delta=2
    21                           	psect	text10,local,class=CODE,merge=1,delta=2
    22                           	psect	text11,local,class=CODE,merge=1,delta=2
    23                           	psect	text12,local,class=CODE,merge=1,delta=2
    24                           	psect	text13,local,class=CODE,merge=1,delta=2
    25                           	psect	text14,local,class=CODE,merge=1,delta=2
    26                           	psect	text15,local,class=CODE,merge=1,delta=2,group=1
    27                           	psect	text16,local,class=CODE,merge=1,delta=2,group=1
    28                           	psect	text17,local,class=CODE,merge=1,delta=2,group=1
    29                           	psect	text18,local,class=CODE,merge=1,delta=2,group=1
    30                           	psect	text19,local,class=CODE,merge=1,delta=2
    31                           	psect	text20,local,class=CODE,merge=1,delta=2
    32                           	psect	text21,local,class=CODE,merge=1,delta=2
    33                           	psect	text22,local,class=CODE,merge=1,delta=2
    34                           	psect	text23,local,class=CODE,merge=1,delta=2
    35                           	psect	text24,local,class=CODE,merge=1,delta=2
    36                           	psect	text25,local,class=CODE,merge=1,delta=2
    37                           	psect	text26,local,class=CODE,merge=1,delta=2
    38                           	psect	text27,local,class=CODE,merge=1,delta=2
    39                           	psect	text28,local,class=CODE,merge=1,delta=2
    40                           	psect	text29,local,class=CODE,merge=1,delta=2
    41                           	psect	intentry,global,class=CODE,delta=2
    42                           	psect	text30,local,class=CODE,merge=1,delta=2
    43                           	psect	text31,local,class=CODE,merge=1,delta=2
    44                           	psect	text32,local,class=CODE,merge=1,delta=2
    45                           	psect	text33,local,class=CODE,merge=1,delta=2
    46                           	psect	config,global,abs,ovrld,class=CONFIG,space=4,delta=2,noexec
    47                           	dabs	1,0x7E,2
    48  0000                     
    49                           ; Version 2.20
    50                           ; Generated 09/04/2020 GMT
    51                           ; 
    52                           ; Copyright © 2020, Microchip Technology Inc. and its subsidiaries ("Microchip")
    53                           ; All rights reserved.
    54                           ; 
    55                           ; This software is developed by Microchip Technology Inc. and its subsidiaries ("Microch
      +                          ip").
    56                           ; 
    57                           ; Redistribution and use in source and binary forms, with or without modification, are
    58                           ; permitted provided that the following conditions are met:
    59                           ; 
    60                           ;     1. Redistributions of source code must retain the above copyright notice, this lis
      +                          t of
    61                           ;        conditions and the following disclaimer.
    62                           ; 
    63                           ;     2. Redistributions in binary form must reproduce the above copyright notice, this 
      +                          list
    64                           ;        of conditions and the following disclaimer in the documentation and/or other
    65                           ;        materials provided with the distribution.
    66                           ; 
    67                           ;     3. Microchip's name may not be used to endorse or promote products derived from th
      +                          is
    68                           ;        software without specific prior written permission.
    69                           ; 
    70                           ; THIS SOFTWARE IS PROVIDED BY MICROCHIP "AS IS" AND ANY EXPRESS OR IMPLIED WARRANTIES,
    71                           ; INCLUDING, BUT NOT LIMITED TO, THE IMPLIED WARRANTIES OF MERCHANTABILITY AND FITNESS F
      +                          OR
    72                           ; PURPOSE ARE DISCLAIMED.  IN NO EVENT SHALL MICROCHIP BE LIABLE FOR ANY DIRECT, INDIREC
      +                          T,
    73                           ; INCIDENTAL, SPECIAL, EXEMPLARY, OR CONSEQUENTIAL DAMAGES (INCLUDING BUT NOT LIMITED TO
    74                           ; PROCUREMENT OF SUBSTITUTE GOODS OR SERVICES; LOSS OF USE, DATA OR PROFITS; OR BUSINESS
    75                           ; INTERRUPTION) HOWSOEVER CAUSED AND ON ANY THEORY OF LIABILITY, WHETHER IN CONTRACT, ST
      +                          RICT
    76                           ; LIABILITY, OR TORT (INCLUDING NEGLIGENCE OR OTHERWISE) ARISING IN ANY WAY OUT OF THE U
      +                          SE OF
    77                           ; THIS SOFTWARE, EVEN IF ADVISED OF THE POSSIBILITY OF SUCH DAMAGE.
    78                           ; 
    79                           ; 
    80                           ; Code-generator required, PIC16F887 Definitions
    81                           ; 
    82                           ; SFR Addresses
    83  0000                     	;# 
    84  0001                     	;# 
    85  0002                     	;# 
    86  0003                     	;# 
    87  0004                     	;# 
    88  0005                     	;# 
    89  0006                     	;# 
    90  0007                     	;# 
    91  0008                     	;# 
    92  0009                     	;# 
    93  000A                     	;# 
    94  000B                     	;# 
    95  000C                     	;# 
    96  000D                     	;# 
    97  000E                     	;# 
    98  000E                     	;# 
    99  000F                     	;# 
   100  0010                     	;# 
   101  0011                     	;# 
   102  0012                     	;# 
   103  0013                     	;# 
   104  0014                     	;# 
   105  0015                     	;# 
   106  0015                     	;# 
   107  0016                     	;# 
   108  0017                     	;# 
   109  0018                     	;# 
   110  0019                     	;# 
   111  001A                     	;# 
   112  001B                     	;# 
   113  001B                     	;# 
   114  001C                     	;# 
   115  001D                     	;# 
   116  001E                     	;# 
   117  001F                     	;# 
   118  0081                     	;# 
   119  0085                     	;# 
   120  0086                     	;# 
   121  0087                     	;# 
   122  0088                     	;# 
   123  0089                     	;# 
   124  008C                     	;# 
   125  008D                     	;# 
   126  008E                     	;# 
   127  008F                     	;# 
   128  0090                     	;# 
   129  0091                     	;# 
   130  0092                     	;# 
   131  0093                     	;# 
   132  0093                     	;# 
   133  0093                     	;# 
   134  0094                     	;# 
   135  0095                     	;# 
   136  0096                     	;# 
   137  0097                     	;# 
   138  0098                     	;# 
   139  0099                     	;# 
   140  009A                     	;# 
   141  009B                     	;# 
   142  009C                     	;# 
   143  009D                     	;# 
   144  009E                     	;# 
   145  009F                     	;# 
   146  0105                     	;# 
   147  0107                     	;# 
   148  0108                     	;# 
   149  0109                     	;# 
   150  010C                     	;# 
   151  010C                     	;# 
   152  010D                     	;# 
   153  010E                     	;# 
   154  010F                     	;# 
   155  0185                     	;# 
   156  0187                     	;# 
   157  0188                     	;# 
   158  0189                     	;# 
   159  018C                     	;# 
   160  018D                     	;# 
   161  0000                     	;# 
   162  0001                     	;# 
   163  0002                     	;# 
   164  0003                     	;# 
   165  0004                     	;# 
   166  0005                     	;# 
   167  0006                     	;# 
   168  0007                     	;# 
   169  0008                     	;# 
   170  0009                     	;# 
   171  000A                     	;# 
   172  000B                     	;# 
   173  000C                     	;# 
   174  000D                     	;# 
   175  000E                     	;# 
   176  000E                     	;# 
   177  000F                     	;# 
   178  0010                     	;# 
   179  0011                     	;# 
   180  0012                     	;# 
   181  0013                     	;# 
   182  0014                     	;# 
   183  0015                     	;# 
   184  0015                     	;# 
   185  0016                     	;# 
   186  0017                     	;# 
   187  0018                     	;# 
   188  0019                     	;# 
   189  001A                     	;# 
   190  001B                     	;# 
   191  001B                     	;# 
   192  001C                     	;# 
   193  001D                     	;# 
   194  001E                     	;# 
   195  001F                     	;# 
   196  0081                     	;# 
   197  0085                     	;# 
   198  0086                     	;# 
   199  0087                     	;# 
   200  0088                     	;# 
   201  0089                     	;# 
   202  008C                     	;# 
   203  008D                     	;# 
   204  008E                     	;# 
   205  008F                     	;# 
   206  0090                     	;# 
   207  0091                     	;# 
   208  0092                     	;# 
   209  0093                     	;# 
   210  0093                     	;# 
   211  0093                     	;# 
   212  0094                     	;# 
   213  0095                     	;# 
   214  0096                     	;# 
   215  0097                     	;# 
   216  0098                     	;# 
   217  0099                     	;# 
   218  009A                     	;# 
   219  009B                     	;# 
   220  009C                     	;# 
   221  009D                     	;# 
   222  009E                     	;# 
   223  009F                     	;# 
   224  0105                     	;# 
   225  0107                     	;# 
   226  0108                     	;# 
   227  0109                     	;# 
   228  010C                     	;# 
   229  010C                     	;# 
   230  010D                     	;# 
   231  010E                     	;# 
   232  010F                     	;# 
   233  0185                     	;# 
   234  0187                     	;# 
   235  0188                     	;# 
   236  0189                     	;# 
   237  018C                     	;# 
   238  018D                     	;# 
   239  0000                     	;# 
   240  0001                     	;# 
   241  0002                     	;# 
   242  0003                     	;# 
   243  0004                     	;# 
   244  0005                     	;# 
   245  0006                     	;# 
   246  0007                     	;# 
   247  0008                     	;# 
   248  0009                     	;# 
   249  000A                     	;# 
   250  000B                     	;# 
   251  000C                     	;# 
   252  000D                     	;# 
   253  000E                     	;# 
   254  000E                     	;# 
   255  000F                     	;# 
   256  0010                     	;# 
   257  0011                     	;# 
   258  0012                     	;# 
   259  0013                     	;# 
   260  0014                     	;# 
   261  0015                     	;# 
   262  0015                     	;# 
   263  0016                     	;# 
   264  0017                     	;# 
   265  0018                     	;# 
   266  0019                     	;# 
   267  001A                     	;# 
   268  001B                     	;# 
   269  001B                     	;# 
   270  001C                     	;# 
   271  001D                     	;# 
   272  001E                     	;# 
   273  001F                     	;# 
   274  0081                     	;# 
   275  0085                     	;# 
   276  0086                     	;# 
   277  0087                     	;# 
   278  0088                     	;# 
   279  0089                     	;# 
   280  008C                     	;# 
   281  008D                     	;# 
   282  008E                     	;# 
   283  008F                     	;# 
   284  0090                     	;# 
   285  0091                     	;# 
   286  0092                     	;# 
   287  0093                     	;# 
   288  0093                     	;# 
   289  0093                     	;# 
   290  0094                     	;# 
   291  0095                     	;# 
   292  0096                     	;# 
   293  0097                     	;# 
   294  0098                     	;# 
   295  0099                     	;# 
   296  009A                     	;# 
   297  009B                     	;# 
   298  009C                     	;# 
   299  009D                     	;# 
   300  009E                     	;# 
   301  009F                     	;# 
   302  0105                     	;# 
   303  0107                     	;# 
   304  0108                     	;# 
   305  0109                     	;# 
   306  010C                     	;# 
   307  010C                     	;# 
   308  010D                     	;# 
   309  010E                     	;# 
   310  010F                     	;# 
   311  0185                     	;# 
   312  0187                     	;# 
   313  0188                     	;# 
   314  0189                     	;# 
   315  018C                     	;# 
   316  018D                     	;# 
   317  0000                     	;# 
   318  0001                     	;# 
   319  0002                     	;# 
   320  0003                     	;# 
   321  0004                     	;# 
   322  0005                     	;# 
   323  0006                     	;# 
   324  0007                     	;# 
   325  0008                     	;# 
   326  0009                     	;# 
   327  000A                     	;# 
   328  000B                     	;# 
   329  000C                     	;# 
   330  000D                     	;# 
   331  000E                     	;# 
   332  000E                     	;# 
   333  000F                     	;# 
   334  0010                     	;# 
   335  0011                     	;# 
   336  0012                     	;# 
   337  0013                     	;# 
   338  0014                     	;# 
   339  0015                     	;# 
   340  0015                     	;# 
   341  0016                     	;# 
   342  0017                     	;# 
   343  0018                     	;# 
   344  0019                     	;# 
   345  001A                     	;# 
   346  001B                     	;# 
   347  001B                     	;# 
   348  001C                     	;# 
   349  001D                     	;# 
   350  001E                     	;# 
   351  001F                     	;# 
   352  0081                     	;# 
   353  0085                     	;# 
   354  0086                     	;# 
   355  0087                     	;# 
   356  0088                     	;# 
   357  0089                     	;# 
   358  008C                     	;# 
   359  008D                     	;# 
   360  008E                     	;# 
   361  008F                     	;# 
   362  0090                     	;# 
   363  0091                     	;# 
   364  0092                     	;# 
   365  0093                     	;# 
   366  0093                     	;# 
   367  0093                     	;# 
   368  0094                     	;# 
   369  0095                     	;# 
   370  0096                     	;# 
   371  0097                     	;# 
   372  0098                     	;# 
   373  0099                     	;# 
   374  009A                     	;# 
   375  009B                     	;# 
   376  009C                     	;# 
   377  009D                     	;# 
   378  009E                     	;# 
   379  009F                     	;# 
   380  0105                     	;# 
   381  0107                     	;# 
   382  0108                     	;# 
   383  0109                     	;# 
   384  010C                     	;# 
   385  010C                     	;# 
   386  010D                     	;# 
   387  010E                     	;# 
   388  010F                     	;# 
   389  0185                     	;# 
   390  0187                     	;# 
   391  0188                     	;# 
   392  0189                     	;# 
   393  018C                     	;# 
   394  018D                     	;# 
   395  0000                     	;# 
   396  0001                     	;# 
   397  0002                     	;# 
   398  0003                     	;# 
   399  0004                     	;# 
   400  0005                     	;# 
   401  0006                     	;# 
   402  0007                     	;# 
   403  0008                     	;# 
   404  0009                     	;# 
   405  000A                     	;# 
   406  000B                     	;# 
   407  000C                     	;# 
   408  000D                     	;# 
   409  000E                     	;# 
   410  000E                     	;# 
   411  000F                     	;# 
   412  0010                     	;# 
   413  0011                     	;# 
   414  0012                     	;# 
   415  0013                     	;# 
   416  0014                     	;# 
   417  0015                     	;# 
   418  0015                     	;# 
   419  0016                     	;# 
   420  0017                     	;# 
   421  0018                     	;# 
   422  0019                     	;# 
   423  001A                     	;# 
   424  001B                     	;# 
   425  001B                     	;# 
   426  001C                     	;# 
   427  001D                     	;# 
   428  001E                     	;# 
   429  001F                     	;# 
   430  0081                     	;# 
   431  0085                     	;# 
   432  0086                     	;# 
   433  0087                     	;# 
   434  0088                     	;# 
   435  0089                     	;# 
   436  008C                     	;# 
   437  008D                     	;# 
   438  008E                     	;# 
   439  008F                     	;# 
   440  0090                     	;# 
   441  0091                     	;# 
   442  0092                     	;# 
   443  0093                     	;# 
   444  0093                     	;# 
   445  0093                     	;# 
   446  0094                     	;# 
   447  0095                     	;# 
   448  0096                     	;# 
   449  0097                     	;# 
   450  0098                     	;# 
   451  0099                     	;# 
   452  009A                     	;# 
   453  009B                     	;# 
   454  009C                     	;# 
   455  009D                     	;# 
   456  009E                     	;# 
   457  009F                     	;# 
   458  0105                     	;# 
   459  0107                     	;# 
   460  0108                     	;# 
   461  0109                     	;# 
   462  010C                     	;# 
   463  010C                     	;# 
   464  010D                     	;# 
   465  010E                     	;# 
   466  010F                     	;# 
   467  0185                     	;# 
   468  0187                     	;# 
   469  0188                     	;# 
   470  0189                     	;# 
   471  018C                     	;# 
   472  018D                     	;# 
   473  0000                     	;# 
   474  0001                     	;# 
   475  0002                     	;# 
   476  0003                     	;# 
   477  0004                     	;# 
   478  0005                     	;# 
   479  0006                     	;# 
   480  0007                     	;# 
   481  0008                     	;# 
   482  0009                     	;# 
   483  000A                     	;# 
   484  000B                     	;# 
   485  000C                     	;# 
   486  000D                     	;# 
   487  000E                     	;# 
   488  000E                     	;# 
   489  000F                     	;# 
   490  0010                     	;# 
   491  0011                     	;# 
   492  0012                     	;# 
   493  0013                     	;# 
   494  0014                     	;# 
   495  0015                     	;# 
   496  0015                     	;# 
   497  0016                     	;# 
   498  0017                     	;# 
   499  0018                     	;# 
   500  0019                     	;# 
   501  001A                     	;# 
   502  001B                     	;# 
   503  001B                     	;# 
   504  001C                     	;# 
   505  001D                     	;# 
   506  001E                     	;# 
   507  001F                     	;# 
   508  0081                     	;# 
   509  0085                     	;# 
   510  0086                     	;# 
   511  0087                     	;# 
   512  0088                     	;# 
   513  0089                     	;# 
   514  008C                     	;# 
   515  008D                     	;# 
   516  008E                     	;# 
   517  008F                     	;# 
   518  0090                     	;# 
   519  0091                     	;# 
   520  0092                     	;# 
   521  0093                     	;# 
   522  0093                     	;# 
   523  0093                     	;# 
   524  0094                     	;# 
   525  0095                     	;# 
   526  0096                     	;# 
   527  0097                     	;# 
   528  0098                     	;# 
   529  0099                     	;# 
   530  009A                     	;# 
   531  009B                     	;# 
   532  009C                     	;# 
   533  009D                     	;# 
   534  009E                     	;# 
   535  009F                     	;# 
   536  0105                     	;# 
   537  0107                     	;# 
   538  0108                     	;# 
   539  0109                     	;# 
   540  010C                     	;# 
   541  010C                     	;# 
   542  010D                     	;# 
   543  010E                     	;# 
   544  010F                     	;# 
   545  0185                     	;# 
   546  0187                     	;# 
   547  0188                     	;# 
   548  0189                     	;# 
   549  018C                     	;# 
   550  018D                     	;# 
   551  0000                     	;# 
   552  0001                     	;# 
   553  0002                     	;# 
   554  0003                     	;# 
   555  0004                     	;# 
   556  0005                     	;# 
   557  0006                     	;# 
   558  0007                     	;# 
   559  0008                     	;# 
   560  0009                     	;# 
   561  000A                     	;# 
   562  000B                     	;# 
   563  000C                     	;# 
   564  000D                     	;# 
   565  000E                     	;# 
   566  000E                     	;# 
   567  000F                     	;# 
   568  0010                     	;# 
   569  0011                     	;# 
   570  0012                     	;# 
   571  0013                     	;# 
   572  0014                     	;# 
   573  0015                     	;# 
   574  0015                     	;# 
   575  0016                     	;# 
   576  0017                     	;# 
   577  0018                     	;# 
   578  0019                     	;# 
   579  001A                     	;# 
   580  001B                     	;# 
   581  001B                     	;# 
   582  001C                     	;# 
   583  001D                     	;# 
   584  001E                     	;# 
   585  001F                     	;# 
   586  0081                     	;# 
   587  0085                     	;# 
   588  0086                     	;# 
   589  0087                     	;# 
   590  0088                     	;# 
   591  0089                     	;# 
   592  008C                     	;# 
   593  008D                     	;# 
   594  008E                     	;# 
   595  008F                     	;# 
   596  0090                     	;# 
   597  0091                     	;# 
   598  0092                     	;# 
   599  0093                     	;# 
   600  0093                     	;# 
   601  0093                     	;# 
   602  0094                     	;# 
   603  0095                     	;# 
   604  0096                     	;# 
   605  0097                     	;# 
   606  0098                     	;# 
   607  0099                     	;# 
   608  009A                     	;# 
   609  009B                     	;# 
   610  009C                     	;# 
   611  009D                     	;# 
   612  009E                     	;# 
   613  009F                     	;# 
   614  0105                     	;# 
   615  0107                     	;# 
   616  0108                     	;# 
   617  0109                     	;# 
   618  010C                     	;# 
   619  010C                     	;# 
   620  010D                     	;# 
   621  010E                     	;# 
   622  010F                     	;# 
   623  0185                     	;# 
   624  0187                     	;# 
   625  0188                     	;# 
   626  0189                     	;# 
   627  018C                     	;# 
   628  018D                     	;# 
   629  0014                     _SSPCON	set	20
   630  0018                     _RCSTAbits	set	24
   631  0013                     _SSPBUF	set	19
   632  0007                     _PORTCbits	set	7
   633  0009                     _PORTE	set	9
   634  0006                     _PORTB	set	6
   635  0007                     _PORTC	set	7
   636  0008                     _PORTD	set	8
   637  000C                     _PIR1bits	set	12
   638  0001                     _TMR0	set	1
   639  000B                     _INTCONbits	set	11
   640  0005                     _PORTA	set	5
   641  0019                     _TXREG	set	25
   642  004A                     _RE2	set	74
   643  0048                     _RE0	set	72
   644  0094                     _SSPSTATbits	set	148
   645  0094                     _SSPSTAT	set	148
   646  009A                     _SPBRGH	set	154
   647  0099                     _SPBRG	set	153
   648  0098                     _TXSTAbits	set	152
   649  0087                     _TRISCbits	set	135
   650  0086                     _TRISB	set	134
   651  0085                     _TRISA	set	133
   652  0089                     _TRISE	set	137
   653  0088                     _TRISD	set	136
   654  0081                     _OPTION_REG	set	129
   655  008C                     _PIE1bits	set	140
   656  008F                     _OSCCONbits	set	143
   657  043B                     _TRISC3	set	1083
   658  043D                     _TRISC5	set	1085
   659  0187                     _BAUDCTLbits	set	391
   660  0189                     _ANSELH	set	393
   661  0188                     _ANSEL	set	392
   662                           
   663                           	psect	strings
   664  1000                     __pstrings:
   665  1000                     stringtab:
   666  1000                     __stringtab:
   667  1000                     stringcode:	
   668                           ;	String table - string pointers are 1 byte each
   669                           
   670  1000                     stringdir:
   671  1000  3010               	movlw	high stringdir
   672  1001  008A               	movwf	10
   673  1002  0804               	movf	4,w
   674  1003  0A84               	incf	4,f
   675  1004  0782               	addwf	2,f
   676  1005                     __stringbase:
   677  1005  3400               	retlw	0
   678  1006                     __end_of__stringtab:
   679  1006                     STR_1:
   680  1006  3450               	retlw	80	;'P'
   681  1007  344F               	retlw	79	;'O'
   682  1008  3454               	retlw	84	;'T'
   683  1009  3431               	retlw	49	;'1'
   684  100A  3420               	retlw	32	;' '
   685  100B  344C               	retlw	76	;'L'
   686  100C  344D               	retlw	77	;'M'
   687  100D  3433               	retlw	51	;'3'
   688  100E  3435               	retlw	53	;'5'
   689  100F  3420               	retlw	32	;' '
   690  1010  3443               	retlw	67	;'C'
   691  1011  344F               	retlw	79	;'O'
   692  1012  344E               	retlw	78	;'N'
   693  1013  3454               	retlw	84	;'T'
   694  1014  3400               	retlw	0
   695                           
   696                           	psect	cinit
   697  0015                     start_initialization:	
   698                           ; #config settings
   699                           
   700  0015                     __initialization:
   701                           
   702                           ; Clear objects allocated to BANK0
   703  0015  1283               	bcf	3,5	;RP0=0, select bank0
   704  0016  1303               	bcf	3,6	;RP1=0, select bank0
   705  0017  01E0               	clrf	__pbssBANK0& (0+127)
   706  0018  01E1               	clrf	(__pbssBANK0+1)& (0+127)
   707  0019  01E2               	clrf	(__pbssBANK0+2)& (0+127)
   708  001A  01E3               	clrf	(__pbssBANK0+3)& (0+127)
   709  001B  01E4               	clrf	(__pbssBANK0+4)& (0+127)
   710                           
   711                           ; Clear objects allocated to BANK1
   712  001C  1683               	bsf	3,5	;RP0=1, select bank1
   713  001D  1303               	bcf	3,6	;RP1=0, select bank1
   714  001E  01E0               	clrf	__pbssBANK1& (0+127)
   715  001F  01E1               	clrf	(__pbssBANK1+1)& (0+127)
   716  0020  01E2               	clrf	(__pbssBANK1+2)& (0+127)
   717  0021  01E3               	clrf	(__pbssBANK1+3)& (0+127)
   718  0022  01E4               	clrf	(__pbssBANK1+4)& (0+127)
   719  0023  01E5               	clrf	(__pbssBANK1+5)& (0+127)
   720  0024  01E6               	clrf	(__pbssBANK1+6)& (0+127)
   721  0025  01E7               	clrf	(__pbssBANK1+7)& (0+127)
   722  0026                     end_of_initialization:	
   723                           ;End of C runtime variable initialization code
   724                           
   725  0026                     __end_of__initialization:
   726  0026  0183               	clrf	3
   727  0027  120A  158A  2D5F   	ljmp	_main	;jump to C main() function
   728                           
   729                           	psect	bssBANK0
   730  0060                     __pbssBANK0:
   731  0060                     _gradospos:
   732  0060                     	ds	1
   733  0061                     _var_envio:
   734  0061                     	ds	1
   735  0062                     _slave:
   736  0062                     	ds	1
   737  0063                     _esclavo1:
   738  0063                     	ds	1
   739  0064                     _controles:
   740  0064                     	ds	1
   741                           
   742                           	psect	bssBANK1
   743  00E0                     __pbssBANK1:
   744  00E0                     _centenasp2:
   745  00E0                     	ds	1
   746  00E1                     _decenasp2:
   747  00E1                     	ds	1
   748  00E2                     _unidadesp2:
   749  00E2                     	ds	1
   750  00E3                     _centenasp1:
   751  00E3                     	ds	1
   752  00E4                     _decenasp1:
   753  00E4                     	ds	1
   754  00E5                     _unidadesp1:
   755  00E5                     	ds	1
   756  00E6                     _esclavo2:
   757  00E6                     	ds	1
   758  00E7                     _esclavo3:
   759  00E7                     	ds	1
   760                           
   761                           	psect	cstackBANK1
   762  00A0                     __pcstackBANK1:
   763  00A0                     ___fldiv@rem:
   764                           
   765                           ; 4 bytes @ 0x0
   766  00A0                     	ds	4
   767  00A4                     ___fldiv@sign:
   768                           
   769                           ; 1 bytes @ 0x4
   770  00A4                     	ds	1
   771  00A5                     ___fldiv@new_exp:
   772                           
   773                           ; 2 bytes @ 0x5
   774  00A5                     	ds	2
   775  00A7                     ___fldiv@grs:
   776                           
   777                           ; 4 bytes @ 0x7
   778  00A7                     	ds	4
   779  00AB                     ___fldiv@bexp:
   780                           
   781                           ; 1 bytes @ 0xB
   782  00AB                     	ds	1
   783  00AC                     ___fldiv@aexp:
   784                           
   785                           ; 1 bytes @ 0xC
   786  00AC                     	ds	1
   787  00AD                     ?___fladd:
   788  00AD                     ___fladd@b:	
   789                           ; 4 bytes @ 0xD
   790                           
   791                           
   792                           ; 4 bytes @ 0xD
   793  00AD                     	ds	4
   794  00B1                     ___fladd@a:
   795                           
   796                           ; 4 bytes @ 0x11
   797  00B1                     	ds	4
   798  00B5                     ?___flmul:
   799  00B5                     ___flmul@b:	
   800                           ; 4 bytes @ 0x15
   801                           
   802                           
   803                           ; 4 bytes @ 0x15
   804  00B5                     	ds	4
   805  00B9                     ___flmul@a:
   806                           
   807                           ; 4 bytes @ 0x19
   808  00B9                     	ds	4
   809  00BD                     ??___flmul:
   810                           
   811                           ; 1 bytes @ 0x1D
   812  00BD                     	ds	5
   813  00C2                     ___flmul@sign:
   814                           
   815                           ; 1 bytes @ 0x22
   816  00C2                     	ds	1
   817  00C3                     ___flmul@grs:
   818                           
   819                           ; 4 bytes @ 0x23
   820  00C3                     	ds	4
   821  00C7                     ___flmul@aexp:
   822                           
   823                           ; 1 bytes @ 0x27
   824  00C7                     	ds	1
   825  00C8                     ___flmul@bexp:
   826                           
   827                           ; 1 bytes @ 0x28
   828  00C8                     	ds	1
   829  00C9                     ___flmul@prod:
   830                           
   831                           ; 4 bytes @ 0x29
   832  00C9                     	ds	4
   833  00CD                     ___flmul@temp:
   834                           
   835                           ; 2 bytes @ 0x2D
   836  00CD                     	ds	2
   837  00CF                     ?___fltol:
   838  00CF                     ___fltol@f1:	
   839                           ; 4 bytes @ 0x2F
   840                           
   841                           
   842                           ; 4 bytes @ 0x2F
   843  00CF                     	ds	4
   844  00D3                     ??___fltol:
   845                           
   846                           ; 1 bytes @ 0x33
   847  00D3                     	ds	4
   848  00D7                     ___fltol@sign1:
   849                           
   850                           ; 1 bytes @ 0x37
   851  00D7                     	ds	1
   852  00D8                     ___fltol@exp1:
   853                           
   854                           ; 1 bytes @ 0x38
   855  00D8                     	ds	1
   856  00D9                     ??_temp_pos:
   857                           
   858                           ; 1 bytes @ 0x39
   859  00D9                     	ds	2
   860  00DB                     ??_main:
   861                           
   862                           ; 1 bytes @ 0x3B
   863  00DB                     	ds	3
   864  00DE                     _main$1235:
   865                           
   866                           ; 2 bytes @ 0x3E
   867  00DE                     	ds	2
   868                           
   869                           	psect	cstackCOMMON
   870  0070                     __pcstackCOMMON:
   871  0070                     ?_envio:
   872  0070                     ?_setup:	
   873                           ; 1 bytes @ 0x0
   874                           
   875  0070                     ?_temp_pos:	
   876                           ; 1 bytes @ 0x0
   877                           
   878  0070                     ?_TX_GO:	
   879                           ; 1 bytes @ 0x0
   880                           
   881  0070                     ?_envio_esclavos:	
   882                           ; 1 bytes @ 0x0
   883                           
   884  0070                     ?_mapeo:	
   885                           ; 1 bytes @ 0x0
   886                           
   887  0070                     ?_correccion:	
   888                           ; 1 bytes @ 0x0
   889                           
   890  0070                     ?_initUSART:	
   891                           ; 1 bytes @ 0x0
   892                           
   893  0070                     ?_spiRead:	
   894                           ; 1 bytes @ 0x0
   895                           
   896  0070                     ?_tabla_hex:	
   897                           ; 1 bytes @ 0x0
   898                           
   899  0070                     ?_Lcd_Port:	
   900                           ; 1 bytes @ 0x0
   901                           
   902  0070                     ?_Lcd_Cmd:	
   903                           ; 1 bytes @ 0x0
   904                           
   905  0070                     ?_Lcd_Clear:	
   906                           ; 1 bytes @ 0x0
   907                           
   908  0070                     ?_Lcd_Init:	
   909                           ; 1 bytes @ 0x0
   910                           
   911  0070                     ?_Lcd_Write_Char:	
   912                           ; 1 bytes @ 0x0
   913                           
   914  0070                     ?_Lcd_Write_String:	
   915                           ; 1 bytes @ 0x0
   916                           
   917  0070                     ?_initOsc:	
   918                           ; 1 bytes @ 0x0
   919                           
   920  0070                     ?_isr:	
   921                           ; 1 bytes @ 0x0
   922                           
   923  0070                     ?_main:	
   924                           ; 1 bytes @ 0x0
   925                           
   926  0070                     ?_spiReceiveWait:	
   927                           ; 1 bytes @ 0x0
   928                           
   929  0070                     ?i1___awdiv:	
   930                           ; 1 bytes @ 0x0
   931                           
   932  0070                     tabla_hex@port:	
   933                           ; 2 bytes @ 0x0
   934                           
   935  0070                     i1___awdiv@divisor:	
   936                           ; 2 bytes @ 0x0
   937                           
   938                           
   939                           ; 2 bytes @ 0x0
   940  0070                     	ds	2
   941  0072                     ??_tabla_hex:
   942  0072                     i1___awdiv@dividend:	
   943                           ; 1 bytes @ 0x2
   944                           
   945                           
   946                           ; 2 bytes @ 0x2
   947  0072                     	ds	2
   948  0074                     ??i1___awdiv:
   949  0074                     tabla_hex@selector:	
   950                           ; 1 bytes @ 0x4
   951                           
   952  0074                     i1___awdiv@counter:	
   953                           ; 1 bytes @ 0x4
   954                           
   955                           
   956                           ; 1 bytes @ 0x4
   957  0074                     	ds	1
   958  0075                     i1___awdiv@sign:
   959                           
   960                           ; 1 bytes @ 0x5
   961  0075                     	ds	1
   962  0076                     i1___awdiv@quotient:
   963                           
   964                           ; 2 bytes @ 0x6
   965  0076                     	ds	2
   966  0078                     ?i1___wmul:
   967  0078                     i1___wmul@multiplier:	
   968                           ; 2 bytes @ 0x8
   969                           
   970                           
   971                           ; 2 bytes @ 0x8
   972  0078                     	ds	2
   973  007A                     i1___wmul@multiplicand:
   974                           
   975                           ; 2 bytes @ 0xA
   976  007A                     	ds	2
   977  007C                     ??i1___wmul:
   978  007C                     i1___wmul@product:	
   979                           ; 1 bytes @ 0xC
   980                           
   981                           
   982                           ; 2 bytes @ 0xC
   983  007C                     	ds	2
   984                           
   985                           	psect	cstackBANK0
   986  0020                     __pcstackBANK0:
   987  0020                     ??_envio:
   988                           
   989                           ; 1 bytes @ 0x0
   990  0020                     	ds	5
   991  0025                     _envio$1254:
   992                           
   993                           ; 2 bytes @ 0x5
   994  0025                     	ds	2
   995  0027                     ??_isr:
   996                           
   997                           ; 1 bytes @ 0x7
   998  0027                     	ds	4
   999  002B                     ??_TX_GO:
  1000  002B                     ??_envio_esclavos:	
  1001                           ; 1 bytes @ 0xB
  1002                           
  1003  002B                     ??_correccion:	
  1004                           ; 1 bytes @ 0xB
  1005                           
  1006  002B                     ??_initUSART:	
  1007                           ; 1 bytes @ 0xB
  1008                           
  1009  002B                     ?_spiInit:	
  1010                           ; 1 bytes @ 0xB
  1011                           
  1012  002B                     ??_spiRead:	
  1013                           ; 1 bytes @ 0xB
  1014                           
  1015  002B                     ??_Lcd_Port:	
  1016                           ; 1 bytes @ 0xB
  1017                           
  1018  002B                     ??_initOsc:	
  1019                           ; 1 bytes @ 0xB
  1020                           
  1021  002B                     ??_spiReceiveWait:	
  1022                           ; 1 bytes @ 0xB
  1023                           
  1024  002B                     ?__Umul8_16:	
  1025                           ; 1 bytes @ 0xB
  1026                           
  1027  002B                     ?___awdiv:	
  1028                           ; 2 bytes @ 0xB
  1029                           
  1030  002B                     Lcd_Port@a:	
  1031                           ; 2 bytes @ 0xB
  1032                           
  1033  002B                     spiInit@sDataSample:	
  1034                           ; 1 bytes @ 0xB
  1035                           
  1036  002B                     __Umul8_16@multiplicand:	
  1037                           ; 1 bytes @ 0xB
  1038                           
  1039  002B                     ___awdiv@divisor:	
  1040                           ; 1 bytes @ 0xB
  1041                           
  1042                           
  1043                           ; 2 bytes @ 0xB
  1044  002B                     	ds	1
  1045  002C                     ??_Lcd_Cmd:
  1046  002C                     ??_Lcd_Write_Char:	
  1047                           ; 1 bytes @ 0xC
  1048                           
  1049  002C                     Lcd_Write_Char@a:	
  1050                           ; 1 bytes @ 0xC
  1051                           
  1052  002C                     spiInit@sClockIdle:	
  1053                           ; 1 bytes @ 0xC
  1054                           
  1055                           
  1056                           ; 1 bytes @ 0xC
  1057  002C                     	ds	1
  1058  002D                     ??__Umul8_16:
  1059  002D                     ??_Lcd_Write_String:	
  1060                           ; 1 bytes @ 0xD
  1061                           
  1062  002D                     Lcd_Cmd@a:	
  1063                           ; 1 bytes @ 0xD
  1064                           
  1065  002D                     initOsc@option:	
  1066                           ; 1 bytes @ 0xD
  1067                           
  1068  002D                     spiInit@sTransmitEdge:	
  1069                           ; 1 bytes @ 0xD
  1070                           
  1071  002D                     Lcd_Write_String@i:	
  1072                           ; 1 bytes @ 0xD
  1073                           
  1074  002D                     ___awdiv@dividend:	
  1075                           ; 2 bytes @ 0xD
  1076                           
  1077                           
  1078                           ; 2 bytes @ 0xD
  1079  002D                     	ds	1
  1080  002E                     ??_spiInit:
  1081  002E                     ??_Lcd_Clear:	
  1082                           ; 1 bytes @ 0xE
  1083                           
  1084  002E                     ?_Lcd_Set_Cursor:	
  1085                           ; 1 bytes @ 0xE
  1086                           
  1087  002E                     ??_Lcd_Init:	
  1088                           ; 1 bytes @ 0xE
  1089                           
  1090  002E                     Lcd_Set_Cursor@b:	
  1091                           ; 1 bytes @ 0xE
  1092                           
  1093  002E                     spiInit@sType:	
  1094                           ; 1 bytes @ 0xE
  1095                           
  1096                           
  1097                           ; 1 bytes @ 0xE
  1098  002E                     	ds	1
  1099  002F                     ??_Lcd_Set_Cursor:
  1100  002F                     ??___awdiv:	
  1101                           ; 1 bytes @ 0xF
  1102                           
  1103  002F                     Lcd_Set_Cursor@a:	
  1104                           ; 1 bytes @ 0xF
  1105                           
  1106  002F                     Lcd_Write_String@a:	
  1107                           ; 1 bytes @ 0xF
  1108                           
  1109  002F                     ___awdiv@counter:	
  1110                           ; 1 bytes @ 0xF
  1111                           
  1112  002F                     __Umul8_16@product:	
  1113                           ; 1 bytes @ 0xF
  1114                           
  1115                           
  1116                           ; 2 bytes @ 0xF
  1117  002F                     	ds	1
  1118  0030                     ??_setup:
  1119  0030                     Lcd_Set_Cursor@temp:	
  1120                           ; 1 bytes @ 0x10
  1121                           
  1122  0030                     ___awdiv@sign:	
  1123                           ; 1 bytes @ 0x10
  1124                           
  1125                           
  1126                           ; 1 bytes @ 0x10
  1127  0030                     	ds	1
  1128  0031                     ___awdiv@quotient:
  1129  0031                     __Umul8_16@word_mpld:	
  1130                           ; 2 bytes @ 0x11
  1131                           
  1132                           
  1133                           ; 2 bytes @ 0x11
  1134  0031                     	ds	2
  1135  0033                     ?___wmul:
  1136  0033                     __Umul8_16@multiplier:	
  1137                           ; 2 bytes @ 0x13
  1138                           
  1139  0033                     ___wmul@multiplier:	
  1140                           ; 1 bytes @ 0x13
  1141                           
  1142                           
  1143                           ; 2 bytes @ 0x13
  1144  0033                     	ds	2
  1145  0035                     ___wmul@multiplicand:
  1146                           
  1147                           ; 2 bytes @ 0x15
  1148  0035                     	ds	2
  1149  0037                     ??___wmul:
  1150  0037                     ___wmul@product:	
  1151                           ; 1 bytes @ 0x17
  1152                           
  1153                           
  1154                           ; 2 bytes @ 0x17
  1155  0037                     	ds	2
  1156  0039                     ?___bmul:
  1157  0039                     ?___lwdiv:	
  1158                           ; 1 bytes @ 0x19
  1159                           
  1160  0039                     ?___xxtofl:	
  1161                           ; 2 bytes @ 0x19
  1162                           
  1163  0039                     ___bmul@multiplicand:	
  1164                           ; 4 bytes @ 0x19
  1165                           
  1166  0039                     ___lwdiv@divisor:	
  1167                           ; 1 bytes @ 0x19
  1168                           
  1169  0039                     ___xxtofl@val:	
  1170                           ; 2 bytes @ 0x19
  1171                           
  1172                           
  1173                           ; 4 bytes @ 0x19
  1174  0039                     	ds	1
  1175  003A                     ??___bmul:
  1176  003A                     ___bmul@product:	
  1177                           ; 1 bytes @ 0x1A
  1178                           
  1179                           
  1180                           ; 1 bytes @ 0x1A
  1181  003A                     	ds	1
  1182  003B                     ___bmul@multiplier:
  1183  003B                     ___lwdiv@dividend:	
  1184                           ; 1 bytes @ 0x1B
  1185                           
  1186                           
  1187                           ; 2 bytes @ 0x1B
  1188  003B                     	ds	2
  1189  003D                     ??___lwdiv:
  1190  003D                     ??___xxtofl:	
  1191                           ; 1 bytes @ 0x1D
  1192                           
  1193  003D                     ___lwdiv@quotient:	
  1194                           ; 1 bytes @ 0x1D
  1195                           
  1196                           
  1197                           ; 2 bytes @ 0x1D
  1198  003D                     	ds	2
  1199  003F                     ___lwdiv@counter:
  1200                           
  1201                           ; 1 bytes @ 0x1F
  1202  003F                     	ds	1
  1203  0040                     ??_mapeo:
  1204                           
  1205                           ; 1 bytes @ 0x20
  1206  0040                     	ds	1
  1207  0041                     ___xxtofl@sign:
  1208                           
  1209                           ; 1 bytes @ 0x21
  1210  0041                     	ds	1
  1211  0042                     ___xxtofl@exp:
  1212  0042                     mapeo@TEMP1:	
  1213                           ; 1 bytes @ 0x22
  1214                           
  1215                           
  1216                           ; 2 bytes @ 0x22
  1217  0042                     	ds	1
  1218  0043                     ___xxtofl@arg:
  1219                           
  1220                           ; 4 bytes @ 0x23
  1221  0043                     	ds	4
  1222  0047                     ?___fldiv:
  1223  0047                     ___fldiv@a:	
  1224                           ; 4 bytes @ 0x27
  1225                           
  1226                           
  1227                           ; 4 bytes @ 0x27
  1228  0047                     	ds	4
  1229  004B                     ___fldiv@b:
  1230                           
  1231                           ; 4 bytes @ 0x2B
  1232  004B                     	ds	4
  1233  004F                     ??___fldiv:
  1234                           
  1235                           ; 1 bytes @ 0x2F
  1236  004F                     	ds	5
  1237  0054                     ??___fladd:
  1238                           
  1239                           ; 1 bytes @ 0x34
  1240  0054                     	ds	8
  1241  005C                     ___fladd@signs:
  1242                           
  1243                           ; 1 bytes @ 0x3C
  1244  005C                     	ds	1
  1245  005D                     ___fladd@aexp:
  1246                           
  1247                           ; 1 bytes @ 0x3D
  1248  005D                     	ds	1
  1249  005E                     ___fladd@bexp:
  1250                           
  1251                           ; 1 bytes @ 0x3E
  1252  005E                     	ds	1
  1253  005F                     ___fladd@grs:
  1254                           
  1255                           ; 1 bytes @ 0x3F
  1256  005F                     	ds	1
  1257                           
  1258                           	psect	maintext
  1259  0D5F                     __pmaintext:	
  1260 ;;
  1261 ;;Main: autosize = 0, tempsize = 3, incstack = 0, save=0
  1262 ;;
  1263 ;; *************** function _main *****************
  1264 ;; Defined at:
  1265 ;;		line 82 in file "C:/MPlab_Digital2/Digital_2/Proyecto3Digital2.X/main.c"
  1266 ;; Parameters:    Size  Location     Type
  1267 ;;		None
  1268 ;; Auto vars:     Size  Location     Type
  1269 ;;		None
  1270 ;; Return value:  Size  Location     Type
  1271 ;;                  1    wreg      void 
  1272 ;; Registers used:
  1273 ;;		wreg, fsr0l, fsr0h, status,2, status,0, btemp+1, pclath, cstack
  1274 ;; Tracked objects:
  1275 ;;		On entry : B00/0
  1276 ;;		On exit  : 0/0
  1277 ;;		Unchanged: 0/0
  1278 ;; Data sizes:     COMMON   BANK0   BANK1   BANK3   BANK2
  1279 ;;      Params:         0       0       0       0       0
  1280 ;;      Locals:         0       0       2       0       0
  1281 ;;      Temps:          0       0       3       0       0
  1282 ;;      Totals:         0       0       5       0       0
  1283 ;;Total ram usage:        5 bytes
  1284 ;; Hardware stack levels required when called:    7
  1285 ;; This function calls:
  1286 ;;		_Lcd_Clear
  1287 ;;		_Lcd_Set_Cursor
  1288 ;;		_Lcd_Write_Char
  1289 ;;		_Lcd_Write_String
  1290 ;;		_TX_GO
  1291 ;;		___awdiv
  1292 ;;		___bmul
  1293 ;;		___wmul
  1294 ;;		_correccion
  1295 ;;		_envio_esclavos
  1296 ;;		_mapeo
  1297 ;;		_setup
  1298 ;;		_temp_pos
  1299 ;; This function is called by:
  1300 ;;		Startup code after reset
  1301 ;; This function uses a non-reentrant model
  1302 ;;
  1303                           
  1304                           
  1305                           ;psect for function _main
  1306  0D5F                     _main:
  1307  0D5F                     l3849:	
  1308                           ;incstack = 0
  1309                           ; Regs used in _main: [wreg-fsr0h+status,2+status,0+btemp+1+pclath+cstack]
  1310                           
  1311                           
  1312                           ;C:/MPlab_Digital2/Digital_2/Proyecto3Digital2.X/main.c: 83:             PORTD = 5;
  1313  0D5F  160A  118A  22E1  120A  158A  	fcall	_setup
  1314  0D64                     l3851:
  1315                           
  1316                           ;C:/MPlab_Digital2/Digital_2/Proyecto3Digital2.X/main.c: 84:             Lcd_Set_Cursor(
      +                          2,5);
  1317  0D64  160A  118A  2148  120A  158A  	fcall	_Lcd_Clear
  1318  0D69                     l3853:
  1319                           
  1320                           ;C:/MPlab_Digital2/Digital_2/Proyecto3Digital2.X/main.c: 85:             Lcd_Write_Char(
      +                          32);
  1321  0D69  30C7               	movlw	199
  1322  0D6A  1683               	bsf	3,5	;RP0=1, select bank1
  1323  0D6B  1303               	bcf	3,6	;RP1=0, select bank1
  1324  0D6C  00DB               	movwf	??_main^(0+128)
  1325  0D6D                     u4597:
  1326  0D6D  2D6E               	nop2
  1327  0D6E  0BDB               	decfsz	??_main^(0+128),f
  1328  0D6F  2D6D               	goto	u4597
  1329  0D70  2D71               	nop2
  1330  0D71                     l3855:
  1331                           
  1332                           ;C:/MPlab_Digital2/Digital_2/Proyecto3Digital2.X/main.c: 86:             Lcd_Set_Cursor(
      +                          2,6);
  1333  0D71  1283               	bcf	3,5	;RP0=0, select bank0
  1334  0D72  1303               	bcf	3,6	;RP1=0, select bank0
  1335  0D73  01AE               	clrf	Lcd_Set_Cursor@b
  1336  0D74  0AAE               	incf	Lcd_Set_Cursor@b,f
  1337  0D75  3001               	movlw	1
  1338  0D76  160A  118A  2225  120A  158A  	fcall	_Lcd_Set_Cursor
  1339  0D7B                     l3857:
  1340                           
  1341                           ;C:/MPlab_Digital2/Digital_2/Proyecto3Digital2.X/main.c: 87:             Lcd_Write_Char(
      +                          32);
  1342  0D7B  3001               	movlw	(low ((STR_1-__stringbase)| (0+32768)))& (0+255)
  1343  0D7C  160A  118A  2272  120A  158A  	fcall	_Lcd_Write_String
  1344  0D81                     l3859:
  1345                           
  1346                           ;C:/MPlab_Digital2/Digital_2/Proyecto3Digital2.X/main.c: 92:             Lcd_Set_Cursor(
      +                          2,9);
  1347  0D81  120A  158A  20A9  120A  158A  	fcall	_temp_pos
  1348  0D86                     l3861:
  1349                           
  1350                           ;C:/MPlab_Digital2/Digital_2/Proyecto3Digital2.X/main.c: 93:             Lcd_Write_Char(
      +                          unidadesp2+48);
  1351  0D86  160A  118A  215F  120A  158A  	fcall	_TX_GO
  1352  0D8B                     l3863:
  1353                           
  1354                           ;C:/MPlab_Digital2/Digital_2/Proyecto3Digital2.X/main.c: 94:         }
  1355  0D8B  160A  118A  2330  120A  158A  	fcall	_envio_esclavos
  1356  0D90                     l3865:
  1357                           
  1358                           ;C:/MPlab_Digital2/Digital_2/Proyecto3Digital2.X/main.c: 95:         Lcd_Set_Cursor(2,10
      +                          );
  1359  0D90  120A  118A  2753  120A  158A  	fcall	_mapeo
  1360  0D95                     l3867:
  1361                           
  1362                           ;C:/MPlab_Digital2/Digital_2/Proyecto3Digital2.X/main.c: 96:         Lcd_Write_Char(32);
  1363  0D95  160A  118A  2192  120A  158A  	fcall	_correccion
  1364  0D9A                     l3869:
  1365                           
  1366                           ;C:/MPlab_Digital2/Digital_2/Proyecto3Digital2.X/main.c: 97:         Lcd_Set_Cursor(2,11
      +                          );
  1367  0D9A  1283               	bcf	3,5	;RP0=0, select bank0
  1368  0D9B  1303               	bcf	3,6	;RP1=0, select bank0
  1369  0D9C  01AE               	clrf	Lcd_Set_Cursor@b
  1370  0D9D  0AAE               	incf	Lcd_Set_Cursor@b,f
  1371  0D9E  3002               	movlw	2
  1372  0D9F  160A  118A  2225  120A  158A  	fcall	_Lcd_Set_Cursor
  1373  0DA4                     l3871:
  1374                           
  1375                           ;C:/MPlab_Digital2/Digital_2/Proyecto3Digital2.X/main.c: 98:         Lcd_Write_Char((esc
      +                          lavo2/100)+48);
  1376  0DA4  1683               	bsf	3,5	;RP0=1, select bank1
  1377  0DA5  1303               	bcf	3,6	;RP1=0, select bank1
  1378  0DA6  0863               	movf	_centenasp1^(0+128),w
  1379  0DA7  3E30               	addlw	48
  1380  0DA8  160A  118A  216B  120A  158A  	fcall	_Lcd_Write_Char
  1381  0DAD                     l3873:
  1382                           
  1383                           ;C:/MPlab_Digital2/Digital_2/Proyecto3Digital2.X/main.c: 99:         Lcd_Set_Cursor(2,12
      +                          );
  1384  0DAD  3002               	movlw	2
  1385  0DAE  00FF               	movwf	btemp+1
  1386  0DAF  087F               	movf	btemp+1,w
  1387  0DB0  1283               	bcf	3,5	;RP0=0, select bank0
  1388  0DB1  1303               	bcf	3,6	;RP1=0, select bank0
  1389  0DB2  00AE               	movwf	Lcd_Set_Cursor@b
  1390  0DB3  3002               	movlw	2
  1391  0DB4  160A  118A  2225  120A  158A  	fcall	_Lcd_Set_Cursor
  1392  0DB9                     l3875:
  1393                           
  1394                           ;C:/MPlab_Digital2/Digital_2/Proyecto3Digital2.X/main.c: 100:         Lcd_Write_Char(((e
      +                          sclavo2-((esclavo2/100)*100))/10)+48);
  1395  0DB9  302E               	movlw	46
  1396  0DBA  160A  118A  216B  120A  158A  	fcall	_Lcd_Write_Char
  1397  0DBF                     l3877:
  1398                           
  1399                           ;C:/MPlab_Digital2/Digital_2/Proyecto3Digital2.X/main.c: 101:         Lcd_Set_Cursor(2,1
      +                          3);
  1400  0DBF  3003               	movlw	3
  1401  0DC0  00FF               	movwf	btemp+1
  1402  0DC1  087F               	movf	btemp+1,w
  1403  0DC2  1283               	bcf	3,5	;RP0=0, select bank0
  1404  0DC3  1303               	bcf	3,6	;RP1=0, select bank0
  1405  0DC4  00AE               	movwf	Lcd_Set_Cursor@b
  1406  0DC5  3002               	movlw	2
  1407  0DC6  160A  118A  2225  120A  158A  	fcall	_Lcd_Set_Cursor
  1408  0DCB                     l3879:
  1409                           
  1410                           ;C:/MPlab_Digital2/Digital_2/Proyecto3Digital2.X/main.c: 102:         Lcd_Write_Char((es
      +                          clavo2-((((esclavo2-((esclavo2/100)*100))/10)*10)+((esclavo2/100)*100)))+48);
  1411  0DCB  1683               	bsf	3,5	;RP0=1, select bank1
  1412  0DCC  1303               	bcf	3,6	;RP1=0, select bank1
  1413  0DCD  0864               	movf	_decenasp1^(0+128),w
  1414  0DCE  3E30               	addlw	48
  1415  0DCF  160A  118A  216B  120A  158A  	fcall	_Lcd_Write_Char
  1416  0DD4                     l3881:
  1417                           
  1418                           ;C:/MPlab_Digital2/Digital_2/Proyecto3Digital2.X/main.c: 103:     }
  1419  0DD4  3004               	movlw	4
  1420  0DD5  00FF               	movwf	btemp+1
  1421  0DD6  087F               	movf	btemp+1,w
  1422  0DD7  1283               	bcf	3,5	;RP0=0, select bank0
  1423  0DD8  1303               	bcf	3,6	;RP1=0, select bank0
  1424  0DD9  00AE               	movwf	Lcd_Set_Cursor@b
  1425  0DDA  3002               	movlw	2
  1426  0DDB  160A  118A  2225  120A  158A  	fcall	_Lcd_Set_Cursor
  1427  0DE0                     l3883:
  1428                           
  1429                           ;C:/MPlab_Digital2/Digital_2/Proyecto3Digital2.X/main.c: 104: }
  1430  0DE0  1683               	bsf	3,5	;RP0=1, select bank1
  1431  0DE1  1303               	bcf	3,6	;RP1=0, select bank1
  1432  0DE2  0865               	movf	_unidadesp1^(0+128),w
  1433  0DE3  3E30               	addlw	48
  1434  0DE4  160A  118A  216B  120A  158A  	fcall	_Lcd_Write_Char
  1435  0DE9                     l3885:
  1436                           
  1437                           ;C:/MPlab_Digital2/Digital_2/Proyecto3Digital2.X/main.c: 106: 
  1438  0DE9  3045               	movlw	69
  1439  0DEA  1683               	bsf	3,5	;RP0=1, select bank1
  1440  0DEB  1303               	bcf	3,6	;RP1=0, select bank1
  1441  0DEC  0267               	subwf	_esclavo3^(0+128),w
  1442  0DED  1803               	skipnc
  1443  0DEE  2DF0               	goto	u4581
  1444  0DEF  2DF1               	goto	u4580
  1445  0DF0                     u4581:
  1446  0DF0  2E54               	goto	l3909
  1447  0DF1                     u4580:
  1448  0DF1                     l3887:
  1449                           
  1450                           ;C:/MPlab_Digital2/Digital_2/Proyecto3Digital2.X/main.c: 107: 
  1451  0DF1  3003               	movlw	3
  1452  0DF2  1283               	bcf	3,5	;RP0=0, select bank0
  1453  0DF3  1303               	bcf	3,6	;RP1=0, select bank0
  1454  0DF4  0088               	movwf	8	;volatile
  1455  0DF5                     l3889:
  1456                           
  1457                           ;C:/MPlab_Digital2/Digital_2/Proyecto3Digital2.X/main.c: 108: 
  1458  0DF5  3005               	movlw	5
  1459  0DF6  00FF               	movwf	btemp+1
  1460  0DF7  087F               	movf	btemp+1,w
  1461  0DF8  00AE               	movwf	Lcd_Set_Cursor@b
  1462  0DF9  3002               	movlw	2
  1463  0DFA  160A  118A  2225  120A  158A  	fcall	_Lcd_Set_Cursor
  1464  0DFF                     l3891:
  1465                           
  1466                           ;C:/MPlab_Digital2/Digital_2/Proyecto3Digital2.X/main.c: 109: void setup(void) {
  1467  0DFF  3020               	movlw	32
  1468  0E00  160A  118A  216B  120A  158A  	fcall	_Lcd_Write_Char
  1469  0E05                     l3893:
  1470                           
  1471                           ;C:/MPlab_Digital2/Digital_2/Proyecto3Digital2.X/main.c: 110:     initUSART();
  1472  0E05  3006               	movlw	6
  1473  0E06  00FF               	movwf	btemp+1
  1474  0E07  087F               	movf	btemp+1,w
  1475  0E08  1283               	bcf	3,5	;RP0=0, select bank0
  1476  0E09  1303               	bcf	3,6	;RP1=0, select bank0
  1477  0E0A  00AE               	movwf	Lcd_Set_Cursor@b
  1478  0E0B  3002               	movlw	2
  1479  0E0C  160A  118A  2225  120A  158A  	fcall	_Lcd_Set_Cursor
  1480  0E11                     l3895:
  1481                           
  1482                           ;C:/MPlab_Digital2/Digital_2/Proyecto3Digital2.X/main.c: 111:     initOsc(6);
  1483  0E11  302D               	movlw	45
  1484  0E12  160A  118A  216B  120A  158A  	fcall	_Lcd_Write_Char
  1485  0E17                     l3897:
  1486                           
  1487                           ;C:/MPlab_Digital2/Digital_2/Proyecto3Digital2.X/main.c: 112:     OPTION_REG = 0b1101011
      +                          1;
  1488  0E17  3007               	movlw	7
  1489  0E18  00FF               	movwf	btemp+1
  1490  0E19  087F               	movf	btemp+1,w
  1491  0E1A  1283               	bcf	3,5	;RP0=0, select bank0
  1492  0E1B  1303               	bcf	3,6	;RP1=0, select bank0
  1493  0E1C  00AE               	movwf	Lcd_Set_Cursor@b
  1494  0E1D  3002               	movlw	2
  1495  0E1E  160A  118A  2225  120A  158A  	fcall	_Lcd_Set_Cursor
  1496  0E23                     l3899:
  1497                           
  1498                           ;C:/MPlab_Digital2/Digital_2/Proyecto3Digital2.X/main.c: 113:     ANSEL = 0;
  1499  0E23  3020               	movlw	32
  1500  0E24  160A  118A  216B  120A  158A  	fcall	_Lcd_Write_Char
  1501  0E29                     l3901:
  1502                           
  1503                           ;C:/MPlab_Digital2/Digital_2/Proyecto3Digital2.X/main.c: 114:     ANSELH = 0;
  1504  0E29  3008               	movlw	8
  1505  0E2A  00FF               	movwf	btemp+1
  1506  0E2B  087F               	movf	btemp+1,w
  1507  0E2C  1283               	bcf	3,5	;RP0=0, select bank0
  1508  0E2D  1303               	bcf	3,6	;RP1=0, select bank0
  1509  0E2E  00AE               	movwf	Lcd_Set_Cursor@b
  1510  0E2F  3002               	movlw	2
  1511  0E30  160A  118A  2225  120A  158A  	fcall	_Lcd_Set_Cursor
  1512  0E35                     l3903:
  1513                           
  1514                           ;C:/MPlab_Digital2/Digital_2/Proyecto3Digital2.X/main.c: 115:     PORTC = 0;
  1515  0E35  1683               	bsf	3,5	;RP0=1, select bank1
  1516  0E36  1303               	bcf	3,6	;RP1=0, select bank1
  1517  0E37  0861               	movf	_decenasp2^(0+128),w
  1518  0E38  3E30               	addlw	48
  1519  0E39  160A  118A  216B  120A  158A  	fcall	_Lcd_Write_Char
  1520  0E3E                     l3905:
  1521                           
  1522                           ;C:/MPlab_Digital2/Digital_2/Proyecto3Digital2.X/main.c: 116:     PORTD = 0;
  1523  0E3E  3009               	movlw	9
  1524  0E3F  00FF               	movwf	btemp+1
  1525  0E40  087F               	movf	btemp+1,w
  1526  0E41  1283               	bcf	3,5	;RP0=0, select bank0
  1527  0E42  1303               	bcf	3,6	;RP1=0, select bank0
  1528  0E43  00AE               	movwf	Lcd_Set_Cursor@b
  1529  0E44  3002               	movlw	2
  1530  0E45  160A  118A  2225  120A  158A  	fcall	_Lcd_Set_Cursor
  1531  0E4A                     l3907:
  1532                           
  1533                           ;C:/MPlab_Digital2/Digital_2/Proyecto3Digital2.X/main.c: 117:     TRISD = 0;
  1534  0E4A  1683               	bsf	3,5	;RP0=1, select bank1
  1535  0E4B  1303               	bcf	3,6	;RP1=0, select bank1
  1536  0E4C  0862               	movf	_unidadesp2^(0+128),w
  1537  0E4D  3E30               	addlw	48
  1538  0E4E  160A  118A  216B  120A  158A  	fcall	_Lcd_Write_Char
  1539                           
  1540                           ;C:/MPlab_Digital2/Digital_2/Proyecto3Digital2.X/main.c: 118:     PORTB = 0;
  1541  0E53  2EB9               	goto	l3931
  1542  0E54                     l3909:
  1543                           
  1544                           ;C:/MPlab_Digital2/Digital_2/Proyecto3Digital2.X/main.c: 119:     TRISE = 0;
  1545  0E54  3005               	movlw	5
  1546  0E55  1283               	bcf	3,5	;RP0=0, select bank0
  1547  0E56  1303               	bcf	3,6	;RP1=0, select bank0
  1548  0E57  0088               	movwf	8	;volatile
  1549  0E58                     l3911:
  1550                           
  1551                           ;C:/MPlab_Digital2/Digital_2/Proyecto3Digital2.X/main.c: 120:     PORTE = 0;
  1552  0E58  3005               	movlw	5
  1553  0E59  00FF               	movwf	btemp+1
  1554  0E5A  087F               	movf	btemp+1,w
  1555  0E5B  00AE               	movwf	Lcd_Set_Cursor@b
  1556  0E5C  3002               	movlw	2
  1557  0E5D  160A  118A  2225  120A  158A  	fcall	_Lcd_Set_Cursor
  1558  0E62                     l3913:
  1559                           
  1560                           ;C:/MPlab_Digital2/Digital_2/Proyecto3Digital2.X/main.c: 121:     PORTA = 0;
  1561  0E62  3020               	movlw	32
  1562  0E63  160A  118A  216B  120A  158A  	fcall	_Lcd_Write_Char
  1563  0E68                     l3915:
  1564                           
  1565                           ;C:/MPlab_Digital2/Digital_2/Proyecto3Digital2.X/main.c: 122:     TRISA = 0;
  1566  0E68  3006               	movlw	6
  1567  0E69  00FF               	movwf	btemp+1
  1568  0E6A  087F               	movf	btemp+1,w
  1569  0E6B  1283               	bcf	3,5	;RP0=0, select bank0
  1570  0E6C  1303               	bcf	3,6	;RP1=0, select bank0
  1571  0E6D  00AE               	movwf	Lcd_Set_Cursor@b
  1572  0E6E  3002               	movlw	2
  1573  0E6F  160A  118A  2225  120A  158A  	fcall	_Lcd_Set_Cursor
  1574  0E74                     l3917:
  1575                           
  1576                           ;C:/MPlab_Digital2/Digital_2/Proyecto3Digital2.X/main.c: 123:     TRISB = 0;
  1577  0E74  3020               	movlw	32
  1578  0E75  160A  118A  216B  120A  158A  	fcall	_Lcd_Write_Char
  1579  0E7A                     l3919:
  1580                           
  1581                           ;C:/MPlab_Digital2/Digital_2/Proyecto3Digital2.X/main.c: 124:     PORTCbits.RC0 = 1;
  1582  0E7A  3007               	movlw	7
  1583  0E7B  00FF               	movwf	btemp+1
  1584  0E7C  087F               	movf	btemp+1,w
  1585  0E7D  1283               	bcf	3,5	;RP0=0, select bank0
  1586  0E7E  1303               	bcf	3,6	;RP1=0, select bank0
  1587  0E7F  00AE               	movwf	Lcd_Set_Cursor@b
  1588  0E80  3002               	movlw	2
  1589  0E81  160A  118A  2225  120A  158A  	fcall	_Lcd_Set_Cursor
  1590  0E86                     l3921:
  1591                           
  1592                           ;C:/MPlab_Digital2/Digital_2/Proyecto3Digital2.X/main.c: 125:     PORTCbits.RC1 = 1;
  1593  0E86  1683               	bsf	3,5	;RP0=1, select bank1
  1594  0E87  1303               	bcf	3,6	;RP1=0, select bank1
  1595  0E88  0860               	movf	_centenasp2^(0+128),w
  1596  0E89  3E30               	addlw	48
  1597  0E8A  160A  118A  216B  120A  158A  	fcall	_Lcd_Write_Char
  1598  0E8F                     l3923:
  1599                           
  1600                           ;C:/MPlab_Digital2/Digital_2/Proyecto3Digital2.X/main.c: 126:     PORTCbits.RC2 = 1;
  1601  0E8F  3008               	movlw	8
  1602  0E90  00FF               	movwf	btemp+1
  1603  0E91  087F               	movf	btemp+1,w
  1604  0E92  1283               	bcf	3,5	;RP0=0, select bank0
  1605  0E93  1303               	bcf	3,6	;RP1=0, select bank0
  1606  0E94  00AE               	movwf	Lcd_Set_Cursor@b
  1607  0E95  3002               	movlw	2
  1608  0E96  160A  118A  2225  120A  158A  	fcall	_Lcd_Set_Cursor
  1609  0E9B                     l3925:
  1610                           
  1611                           ;C:/MPlab_Digital2/Digital_2/Proyecto3Digital2.X/main.c: 127:     Lcd_Init();
  1612  0E9B  1683               	bsf	3,5	;RP0=1, select bank1
  1613  0E9C  1303               	bcf	3,6	;RP1=0, select bank1
  1614  0E9D  0861               	movf	_decenasp2^(0+128),w
  1615  0E9E  3E30               	addlw	48
  1616  0E9F  160A  118A  216B  120A  158A  	fcall	_Lcd_Write_Char
  1617  0EA4                     l3927:
  1618                           
  1619                           ;C:/MPlab_Digital2/Digital_2/Proyecto3Digital2.X/main.c: 128: 
  1620  0EA4  3009               	movlw	9
  1621  0EA5  00FF               	movwf	btemp+1
  1622  0EA6  087F               	movf	btemp+1,w
  1623  0EA7  1283               	bcf	3,5	;RP0=0, select bank0
  1624  0EA8  1303               	bcf	3,6	;RP1=0, select bank0
  1625  0EA9  00AE               	movwf	Lcd_Set_Cursor@b
  1626  0EAA  3002               	movlw	2
  1627  0EAB  160A  118A  2225  120A  158A  	fcall	_Lcd_Set_Cursor
  1628  0EB0                     l3929:
  1629                           
  1630                           ;C:/MPlab_Digital2/Digital_2/Proyecto3Digital2.X/main.c: 129:     TRISCbits.TRISC4 = 1;
  1631  0EB0  1683               	bsf	3,5	;RP0=1, select bank1
  1632  0EB1  1303               	bcf	3,6	;RP1=0, select bank1
  1633  0EB2  0862               	movf	_unidadesp2^(0+128),w
  1634  0EB3  3E30               	addlw	48
  1635  0EB4  160A  118A  216B  120A  158A  	fcall	_Lcd_Write_Char
  1636  0EB9                     l3931:
  1637                           
  1638                           ;C:/MPlab_Digital2/Digital_2/Proyecto3Digital2.X/main.c: 131:     TRISCbits.TRISC0 = 0;
  1639  0EB9  300A               	movlw	10
  1640  0EBA  00FF               	movwf	btemp+1
  1641  0EBB  087F               	movf	btemp+1,w
  1642  0EBC  1283               	bcf	3,5	;RP0=0, select bank0
  1643  0EBD  1303               	bcf	3,6	;RP1=0, select bank0
  1644  0EBE  00AE               	movwf	Lcd_Set_Cursor@b
  1645  0EBF  3002               	movlw	2
  1646  0EC0  160A  118A  2225  120A  158A  	fcall	_Lcd_Set_Cursor
  1647  0EC5                     l3933:
  1648                           
  1649                           ;C:/MPlab_Digital2/Digital_2/Proyecto3Digital2.X/main.c: 132:     TRISCbits.TRISC1 = 0;
  1650  0EC5  3020               	movlw	32
  1651  0EC6  160A  118A  216B  120A  158A  	fcall	_Lcd_Write_Char
  1652  0ECB                     l3935:
  1653                           
  1654                           ;C:/MPlab_Digital2/Digital_2/Proyecto3Digital2.X/main.c: 133:     TRISCbits.TRISC2 = 0;
  1655  0ECB  300B               	movlw	11
  1656  0ECC  00FF               	movwf	btemp+1
  1657  0ECD  087F               	movf	btemp+1,w
  1658  0ECE  1283               	bcf	3,5	;RP0=0, select bank0
  1659  0ECF  1303               	bcf	3,6	;RP1=0, select bank0
  1660  0ED0  00AE               	movwf	Lcd_Set_Cursor@b
  1661  0ED1  3002               	movlw	2
  1662  0ED2  160A  118A  2225  120A  158A  	fcall	_Lcd_Set_Cursor
  1663  0ED7                     l3937:
  1664                           
  1665                           ;C:/MPlab_Digital2/Digital_2/Proyecto3Digital2.X/main.c: 134:     spiInit(SPI_MASTER_OSC
      +                          _DIV4, SPI_DATA_SAMPLE_MIDDLE, SPI_CLOCK_IDLE_LOW, SPI_IDLE_2_ACTIVE);
  1666  0ED7  3064               	movlw	100
  1667  0ED8  1283               	bcf	3,5	;RP0=0, select bank0
  1668  0ED9  1303               	bcf	3,6	;RP1=0, select bank0
  1669  0EDA  00AB               	movwf	___awdiv@divisor
  1670  0EDB  3000               	movlw	0
  1671  0EDC  00AC               	movwf	___awdiv@divisor+1
  1672  0EDD  1683               	bsf	3,5	;RP0=1, select bank1
  1673  0EDE  1303               	bcf	3,6	;RP1=0, select bank1
  1674  0EDF  0866               	movf	_esclavo2^(0+128),w
  1675  0EE0  00DB               	movwf	??_main^(0+128)
  1676  0EE1  01DC               	clrf	(??_main^(0+128)+1)
  1677  0EE2  085B               	movf	??_main^(0+128),w
  1678  0EE3  1283               	bcf	3,5	;RP0=0, select bank0
  1679  0EE4  1303               	bcf	3,6	;RP1=0, select bank0
  1680  0EE5  00AD               	movwf	___awdiv@dividend
  1681  0EE6  1683               	bsf	3,5	;RP0=1, select bank1
  1682  0EE7  1303               	bcf	3,6	;RP1=0, select bank1
  1683  0EE8  085C               	movf	(??_main+1)^(0+128),w
  1684  0EE9  1283               	bcf	3,5	;RP0=0, select bank0
  1685  0EEA  1303               	bcf	3,6	;RP1=0, select bank0
  1686  0EEB  00AE               	movwf	___awdiv@dividend+1
  1687  0EEC  160A  118A  2498  120A  158A  	fcall	___awdiv
  1688  0EF1  1283               	bcf	3,5	;RP0=0, select bank0
  1689  0EF2  1303               	bcf	3,6	;RP1=0, select bank0
  1690  0EF3  082B               	movf	?___awdiv,w
  1691  0EF4  3E30               	addlw	48
  1692  0EF5  160A  118A  216B  120A  158A  	fcall	_Lcd_Write_Char
  1693  0EFA                     l3939:
  1694                           
  1695                           ;C:/MPlab_Digital2/Digital_2/Proyecto3Digital2.X/main.c: 135: 
  1696  0EFA  300C               	movlw	12
  1697  0EFB  00FF               	movwf	btemp+1
  1698  0EFC  087F               	movf	btemp+1,w
  1699  0EFD  1283               	bcf	3,5	;RP0=0, select bank0
  1700  0EFE  1303               	bcf	3,6	;RP1=0, select bank0
  1701  0EFF  00AE               	movwf	Lcd_Set_Cursor@b
  1702  0F00  3002               	movlw	2
  1703  0F01  160A  118A  2225  120A  158A  	fcall	_Lcd_Set_Cursor
  1704  0F06                     l3941:
  1705                           
  1706                           ;C:/MPlab_Digital2/Digital_2/Proyecto3Digital2.X/main.c: 136:     INTCONbits.GIE = 1;
  1707  0F06  3064               	movlw	100
  1708  0F07  1283               	bcf	3,5	;RP0=0, select bank0
  1709  0F08  1303               	bcf	3,6	;RP1=0, select bank0
  1710  0F09  00AB               	movwf	___awdiv@divisor
  1711  0F0A  3000               	movlw	0
  1712  0F0B  00AC               	movwf	___awdiv@divisor+1
  1713  0F0C  1683               	bsf	3,5	;RP0=1, select bank1
  1714  0F0D  1303               	bcf	3,6	;RP1=0, select bank1
  1715  0F0E  0866               	movf	_esclavo2^(0+128),w
  1716  0F0F  00DB               	movwf	??_main^(0+128)
  1717  0F10  01DC               	clrf	(??_main^(0+128)+1)
  1718  0F11  085B               	movf	??_main^(0+128),w
  1719  0F12  1283               	bcf	3,5	;RP0=0, select bank0
  1720  0F13  1303               	bcf	3,6	;RP1=0, select bank0
  1721  0F14  00AD               	movwf	___awdiv@dividend
  1722  0F15  1683               	bsf	3,5	;RP0=1, select bank1
  1723  0F16  1303               	bcf	3,6	;RP1=0, select bank1
  1724  0F17  085C               	movf	(??_main+1)^(0+128),w
  1725  0F18  1283               	bcf	3,5	;RP0=0, select bank0
  1726  0F19  1303               	bcf	3,6	;RP1=0, select bank0
  1727  0F1A  00AE               	movwf	___awdiv@dividend+1
  1728  0F1B  160A  118A  2498  120A  158A  	fcall	___awdiv
  1729  0F20  1283               	bcf	3,5	;RP0=0, select bank0
  1730  0F21  1303               	bcf	3,6	;RP1=0, select bank0
  1731  0F22  082C               	movf	?___awdiv+1,w
  1732  0F23  00B4               	movwf	___wmul@multiplier+1
  1733  0F24  082B               	movf	?___awdiv,w
  1734  0F25  00B3               	movwf	___wmul@multiplier
  1735  0F26  309C               	movlw	156
  1736  0F27  00B5               	movwf	___wmul@multiplicand
  1737  0F28  30FF               	movlw	255
  1738  0F29  00B6               	movwf	___wmul@multiplicand+1
  1739  0F2A  160A  118A  224B  120A  158A  	fcall	___wmul
  1740  0F2F  1683               	bsf	3,5	;RP0=1, select bank1
  1741  0F30  1303               	bcf	3,6	;RP1=0, select bank1
  1742  0F31  0866               	movf	_esclavo2^(0+128),w
  1743  0F32  1283               	bcf	3,5	;RP0=0, select bank0
  1744  0F33  1303               	bcf	3,6	;RP1=0, select bank0
  1745  0F34  0733               	addwf	?___wmul,w
  1746  0F35  1683               	bsf	3,5	;RP0=1, select bank1
  1747  0F36  1303               	bcf	3,6	;RP1=0, select bank1
  1748  0F37  00DE               	movwf	_main$1235^(0+128)
  1749  0F38  1283               	bcf	3,5	;RP0=0, select bank0
  1750  0F39  1303               	bcf	3,6	;RP1=0, select bank0
  1751  0F3A  0834               	movf	?___wmul+1,w
  1752  0F3B  1803               	skipnc
  1753  0F3C  0A34               	incf	?___wmul+1,w
  1754  0F3D  1683               	bsf	3,5	;RP0=1, select bank1
  1755  0F3E  1303               	bcf	3,6	;RP1=0, select bank1
  1756  0F3F  00DF               	movwf	(_main$1235^(0+128)+1)
  1757  0F40                     l3943:
  1758                           
  1759                           ;C:/MPlab_Digital2/Digital_2/Proyecto3Digital2.X/main.c: 136:     INTCONbits.GIE = 1;
  1760  0F40  300A               	movlw	10
  1761  0F41  1283               	bcf	3,5	;RP0=0, select bank0
  1762  0F42  1303               	bcf	3,6	;RP1=0, select bank0
  1763  0F43  00AB               	movwf	___awdiv@divisor
  1764  0F44  3000               	movlw	0
  1765  0F45  00AC               	movwf	___awdiv@divisor+1
  1766  0F46  1683               	bsf	3,5	;RP0=1, select bank1
  1767  0F47  1303               	bcf	3,6	;RP1=0, select bank1
  1768  0F48  085F               	movf	(_main$1235+1)^(0+128),w
  1769  0F49  1283               	bcf	3,5	;RP0=0, select bank0
  1770  0F4A  1303               	bcf	3,6	;RP1=0, select bank0
  1771  0F4B  00AE               	movwf	___awdiv@dividend+1
  1772  0F4C  1683               	bsf	3,5	;RP0=1, select bank1
  1773  0F4D  1303               	bcf	3,6	;RP1=0, select bank1
  1774  0F4E  085E               	movf	_main$1235^(0+128),w
  1775  0F4F  1283               	bcf	3,5	;RP0=0, select bank0
  1776  0F50  1303               	bcf	3,6	;RP1=0, select bank0
  1777  0F51  00AD               	movwf	___awdiv@dividend
  1778  0F52  160A  118A  2498  120A  158A  	fcall	___awdiv
  1779  0F57  1283               	bcf	3,5	;RP0=0, select bank0
  1780  0F58  1303               	bcf	3,6	;RP1=0, select bank0
  1781  0F59  082B               	movf	?___awdiv,w
  1782  0F5A  3E30               	addlw	48
  1783  0F5B  160A  118A  216B  120A  158A  	fcall	_Lcd_Write_Char
  1784  0F60                     l3945:
  1785                           
  1786                           ;C:/MPlab_Digital2/Digital_2/Proyecto3Digital2.X/main.c: 137:     INTCONbits.PEIE = 1;
  1787  0F60  300D               	movlw	13
  1788  0F61  00FF               	movwf	btemp+1
  1789  0F62  087F               	movf	btemp+1,w
  1790  0F63  1283               	bcf	3,5	;RP0=0, select bank0
  1791  0F64  1303               	bcf	3,6	;RP1=0, select bank0
  1792  0F65  00AE               	movwf	Lcd_Set_Cursor@b
  1793  0F66  3002               	movlw	2
  1794  0F67  160A  118A  2225  120A  158A  	fcall	_Lcd_Set_Cursor
  1795  0F6C                     l3947:
  1796                           
  1797                           ;C:/MPlab_Digital2/Digital_2/Proyecto3Digital2.X/main.c: 138:     INTCONbits.TMR0IE = 1;
  1798  0F6C  309C               	movlw	156
  1799  0F6D  1283               	bcf	3,5	;RP0=0, select bank0
  1800  0F6E  1303               	bcf	3,6	;RP1=0, select bank0
  1801  0F6F  00B5               	movwf	___wmul@multiplicand
  1802  0F70  30FF               	movlw	255
  1803  0F71  00B6               	movwf	___wmul@multiplicand+1
  1804  0F72  1683               	bsf	3,5	;RP0=1, select bank1
  1805  0F73  1303               	bcf	3,6	;RP1=0, select bank1
  1806  0F74  0866               	movf	_esclavo2^(0+128),w
  1807  0F75  00DB               	movwf	??_main^(0+128)
  1808  0F76  01DC               	clrf	(??_main^(0+128)+1)
  1809  0F77  085B               	movf	??_main^(0+128),w
  1810  0F78  1283               	bcf	3,5	;RP0=0, select bank0
  1811  0F79  1303               	bcf	3,6	;RP1=0, select bank0
  1812  0F7A  00AD               	movwf	___awdiv@dividend
  1813  0F7B  1683               	bsf	3,5	;RP0=1, select bank1
  1814  0F7C  1303               	bcf	3,6	;RP1=0, select bank1
  1815  0F7D  085C               	movf	(??_main+1)^(0+128),w
  1816  0F7E  1283               	bcf	3,5	;RP0=0, select bank0
  1817  0F7F  1303               	bcf	3,6	;RP1=0, select bank0
  1818  0F80  00AE               	movwf	___awdiv@dividend+1
  1819  0F81  3064               	movlw	100
  1820  0F82  00AB               	movwf	___awdiv@divisor
  1821  0F83  3000               	movlw	0
  1822  0F84  00AC               	movwf	___awdiv@divisor+1
  1823  0F85  160A  118A  2498  120A  158A  	fcall	___awdiv
  1824  0F8A  1283               	bcf	3,5	;RP0=0, select bank0
  1825  0F8B  1303               	bcf	3,6	;RP1=0, select bank0
  1826  0F8C  082C               	movf	?___awdiv+1,w
  1827  0F8D  00B4               	movwf	___wmul@multiplier+1
  1828  0F8E  082B               	movf	?___awdiv,w
  1829  0F8F  00B3               	movwf	___wmul@multiplier
  1830  0F90  160A  118A  224B  120A  158A  	fcall	___wmul
  1831  0F95  1683               	bsf	3,5	;RP0=1, select bank1
  1832  0F96  1303               	bcf	3,6	;RP1=0, select bank1
  1833  0F97  0866               	movf	_esclavo2^(0+128),w
  1834  0F98  1283               	bcf	3,5	;RP0=0, select bank0
  1835  0F99  1303               	bcf	3,6	;RP1=0, select bank0
  1836  0F9A  0733               	addwf	?___wmul,w
  1837  0F9B  1683               	bsf	3,5	;RP0=1, select bank1
  1838  0F9C  1303               	bcf	3,6	;RP1=0, select bank1
  1839  0F9D  00DE               	movwf	_main$1235^(0+128)
  1840  0F9E  1283               	bcf	3,5	;RP0=0, select bank0
  1841  0F9F  1303               	bcf	3,6	;RP1=0, select bank0
  1842  0FA0  0834               	movf	?___wmul+1,w
  1843  0FA1  1803               	skipnc
  1844  0FA2  0A34               	incf	?___wmul+1,w
  1845  0FA3  1683               	bsf	3,5	;RP0=1, select bank1
  1846  0FA4  1303               	bcf	3,6	;RP1=0, select bank1
  1847  0FA5  00DF               	movwf	(_main$1235^(0+128)+1)
  1848  0FA6                     l3949:
  1849                           
  1850                           ;C:/MPlab_Digital2/Digital_2/Proyecto3Digital2.X/main.c: 138:     INTCONbits.TMR0IE = 1;
  1851  0FA6  309C               	movlw	156
  1852  0FA7  00FF               	movwf	btemp+1
  1853  0FA8  087F               	movf	btemp+1,w
  1854  0FA9  1283               	bcf	3,5	;RP0=0, select bank0
  1855  0FAA  1303               	bcf	3,6	;RP1=0, select bank0
  1856  0FAB  00B9               	movwf	___bmul@multiplicand
  1857  0FAC  1683               	bsf	3,5	;RP0=1, select bank1
  1858  0FAD  1303               	bcf	3,6	;RP1=0, select bank1
  1859  0FAE  0866               	movf	_esclavo2^(0+128),w
  1860  0FAF  00DB               	movwf	??_main^(0+128)
  1861  0FB0  01DC               	clrf	(??_main^(0+128)+1)
  1862  0FB1  085B               	movf	??_main^(0+128),w
  1863  0FB2  1283               	bcf	3,5	;RP0=0, select bank0
  1864  0FB3  1303               	bcf	3,6	;RP1=0, select bank0
  1865  0FB4  00AD               	movwf	___awdiv@dividend
  1866  0FB5  1683               	bsf	3,5	;RP0=1, select bank1
  1867  0FB6  1303               	bcf	3,6	;RP1=0, select bank1
  1868  0FB7  085C               	movf	(??_main+1)^(0+128),w
  1869  0FB8  1283               	bcf	3,5	;RP0=0, select bank0
  1870  0FB9  1303               	bcf	3,6	;RP1=0, select bank0
  1871  0FBA  00AE               	movwf	___awdiv@dividend+1
  1872  0FBB  3064               	movlw	100
  1873  0FBC  00AB               	movwf	___awdiv@divisor
  1874  0FBD  3000               	movlw	0
  1875  0FBE  00AC               	movwf	___awdiv@divisor+1
  1876  0FBF  160A  118A  2498  120A  158A  	fcall	___awdiv
  1877  0FC4  1283               	bcf	3,5	;RP0=0, select bank0
  1878  0FC5  1303               	bcf	3,6	;RP1=0, select bank0
  1879  0FC6  082B               	movf	?___awdiv,w
  1880  0FC7  160A  118A  21A8  120A  158A  	fcall	___bmul
  1881  0FCC  1683               	bsf	3,5	;RP0=1, select bank1
  1882  0FCD  1303               	bcf	3,6	;RP1=0, select bank1
  1883  0FCE  00DD               	movwf	(??_main+2)^(0+128)
  1884  0FCF  30F6               	movlw	246
  1885  0FD0  00FF               	movwf	btemp+1
  1886  0FD1  087F               	movf	btemp+1,w
  1887  0FD2  1283               	bcf	3,5	;RP0=0, select bank0
  1888  0FD3  1303               	bcf	3,6	;RP1=0, select bank0
  1889  0FD4  00B9               	movwf	___bmul@multiplicand
  1890  0FD5  1683               	bsf	3,5	;RP0=1, select bank1
  1891  0FD6  1303               	bcf	3,6	;RP1=0, select bank1
  1892  0FD7  085F               	movf	(_main$1235+1)^(0+128),w
  1893  0FD8  1283               	bcf	3,5	;RP0=0, select bank0
  1894  0FD9  1303               	bcf	3,6	;RP1=0, select bank0
  1895  0FDA  00AE               	movwf	___awdiv@dividend+1
  1896  0FDB  1683               	bsf	3,5	;RP0=1, select bank1
  1897  0FDC  1303               	bcf	3,6	;RP1=0, select bank1
  1898  0FDD  085E               	movf	_main$1235^(0+128),w
  1899  0FDE  1283               	bcf	3,5	;RP0=0, select bank0
  1900  0FDF  1303               	bcf	3,6	;RP1=0, select bank0
  1901  0FE0  00AD               	movwf	___awdiv@dividend
  1902  0FE1  300A               	movlw	10
  1903  0FE2  00AB               	movwf	___awdiv@divisor
  1904  0FE3  3000               	movlw	0
  1905  0FE4  00AC               	movwf	___awdiv@divisor+1
  1906  0FE5  160A  118A  2498  120A  158A  	fcall	___awdiv
  1907  0FEA  1283               	bcf	3,5	;RP0=0, select bank0
  1908  0FEB  1303               	bcf	3,6	;RP1=0, select bank0
  1909  0FEC  082B               	movf	?___awdiv,w
  1910  0FED  160A  118A  21A8  120A  158A  	fcall	___bmul
  1911  0FF2  1683               	bsf	3,5	;RP0=1, select bank1
  1912  0FF3  1303               	bcf	3,6	;RP1=0, select bank1
  1913  0FF4  075D               	addwf	(??_main+2)^(0+128),w
  1914  0FF5  0766               	addwf	_esclavo2^(0+128),w
  1915  0FF6  3E30               	addlw	48
  1916  0FF7  160A  118A  216B  120A  158A  	fcall	_Lcd_Write_Char
  1917  0FFC  2D81               	goto	l3859
  1918  0FFD  120A  118A  2812   	ljmp	start
  1919  1000                     __end_of_main:
  1920                           
  1921                           	psect	text1
  1922  08A9                     __ptext1:	
  1923 ;; *************** function _temp_pos *****************
  1924 ;; Defined at:
  1925 ;;		line 286 in file "C:/MPlab_Digital2/Digital_2/Proyecto3Digital2.X/main.c"
  1926 ;; Parameters:    Size  Location     Type
  1927 ;;		None
  1928 ;; Auto vars:     Size  Location     Type
  1929 ;;		None
  1930 ;; Return value:  Size  Location     Type
  1931 ;;                  1    wreg      void 
  1932 ;; Registers used:
  1933 ;;		wreg, status,2, status,0, btemp+1, pclath, cstack
  1934 ;; Tracked objects:
  1935 ;;		On entry : 0/0
  1936 ;;		On exit  : 0/0
  1937 ;;		Unchanged: 0/0
  1938 ;; Data sizes:     COMMON   BANK0   BANK1   BANK3   BANK2
  1939 ;;      Params:         0       0       0       0       0
  1940 ;;      Locals:         0       0       0       0       0
  1941 ;;      Temps:          0       0       2       0       0
  1942 ;;      Totals:         0       0       2       0       0
  1943 ;;Total ram usage:        2 bytes
  1944 ;; Hardware stack levels used:    1
  1945 ;; Hardware stack levels required when called:    5
  1946 ;; This function calls:
  1947 ;;		___awdiv
  1948 ;;		___bmul
  1949 ;;		___fladd
  1950 ;;		___fldiv
  1951 ;;		___flmul
  1952 ;;		___fltol
  1953 ;;		___wmul
  1954 ;;		___xxtofl
  1955 ;;		_correccion
  1956 ;; This function is called by:
  1957 ;;		_main
  1958 ;; This function uses a non-reentrant model
  1959 ;;
  1960                           
  1961                           
  1962                           ;psect for function _temp_pos
  1963  08A9                     _temp_pos:
  1964  08A9                     l3843:	
  1965                           ;incstack = 0
  1966                           ; Regs used in _temp_pos: [wreg+status,2+status,0+btemp+1+pclath+cstack]
  1967                           
  1968  08A9  3045               	movlw	69
  1969  08AA  1683               	bsf	3,5	;RP0=1, select bank1
  1970  08AB  1303               	bcf	3,6	;RP1=0, select bank1
  1971  08AC  0267               	subwf	_esclavo3^(0+128),w
  1972  08AD  1803               	skipnc
  1973  08AE  28B0               	goto	u4571
  1974  08AF  28B1               	goto	u4570
  1975  08B0                     u4571:
  1976  08B0  29C5               	goto	l3847
  1977  08B1                     u4570:
  1978  08B1                     l3845:
  1979  08B1  3096               	movlw	150
  1980  08B2  1283               	bcf	3,5	;RP0=0, select bank0
  1981  08B3  1303               	bcf	3,6	;RP1=0, select bank0
  1982  08B4  00B5               	movwf	___wmul@multiplicand
  1983  08B5  3000               	movlw	0
  1984  08B6  00B6               	movwf	___wmul@multiplicand+1
  1985  08B7  1683               	bsf	3,5	;RP0=1, select bank1
  1986  08B8  1303               	bcf	3,6	;RP1=0, select bank1
  1987  08B9  0867               	movf	_esclavo3^(0+128),w
  1988  08BA  00D9               	movwf	??_temp_pos^(0+128)
  1989  08BB  01DA               	clrf	(??_temp_pos^(0+128)+1)
  1990  08BC  0859               	movf	??_temp_pos^(0+128),w
  1991  08BD  1283               	bcf	3,5	;RP0=0, select bank0
  1992  08BE  1303               	bcf	3,6	;RP1=0, select bank0
  1993  08BF  00B3               	movwf	___wmul@multiplier
  1994  08C0  1683               	bsf	3,5	;RP0=1, select bank1
  1995  08C1  1303               	bcf	3,6	;RP1=0, select bank1
  1996  08C2  085A               	movf	(??_temp_pos+1)^(0+128),w
  1997  08C3  1283               	bcf	3,5	;RP0=0, select bank0
  1998  08C4  1303               	bcf	3,6	;RP1=0, select bank0
  1999  08C5  00B4               	movwf	___wmul@multiplier+1
  2000  08C6  160A  118A  224B  120A  158A  	fcall	___wmul
  2001  08CB  1283               	bcf	3,5	;RP0=0, select bank0
  2002  08CC  1303               	bcf	3,6	;RP1=0, select bank0
  2003  08CD  0833               	movf	?___wmul,w
  2004  08CE  00B9               	movwf	___xxtofl@val
  2005  08CF  0834               	movf	?___wmul+1,w
  2006  08D0  00BA               	movwf	___xxtofl@val+1
  2007  08D1  3000               	movlw	0
  2008  08D2  1BBA               	btfsc	___xxtofl@val+1,7
  2009  08D3  30FF               	movlw	255
  2010  08D4  00BB               	movwf	___xxtofl@val+2
  2011  08D5  00BC               	movwf	___xxtofl@val+3
  2012  08D6  3001               	movlw	1
  2013  08D7  160A  118A  2501  120A  158A  	fcall	___xxtofl
  2014  08DC  1283               	bcf	3,5	;RP0=0, select bank0
  2015  08DD  1303               	bcf	3,6	;RP1=0, select bank0
  2016  08DE  083C               	movf	?___xxtofl+3,w
  2017  08DF  00CE               	movwf	___fldiv@b+3
  2018  08E0  083B               	movf	?___xxtofl+2,w
  2019  08E1  00CD               	movwf	___fldiv@b+2
  2020  08E2  083A               	movf	?___xxtofl+1,w
  2021  08E3  00CC               	movwf	___fldiv@b+1
  2022  08E4  0839               	movf	?___xxtofl,w
  2023  08E5  00CB               	movwf	___fldiv@b
  2024  08E6  3043               	movlw	67
  2025  08E7  00CA               	movwf	___fldiv@a+3
  2026  08E8  303A               	movlw	58
  2027  08E9  00C9               	movwf	___fldiv@a+2
  2028  08EA  3000               	movlw	0
  2029  08EB  00C8               	movwf	___fldiv@a+1
  2030  08EC  3000               	movlw	0
  2031  08ED  00C7               	movwf	___fldiv@a
  2032  08EE  120A  158A  22C7  120A  158A  	fcall	___fldiv
  2033  08F3  1283               	bcf	3,5	;RP0=0, select bank0
  2034  08F4  1303               	bcf	3,6	;RP1=0, select bank0
  2035  08F5  084A               	movf	?___fldiv+3,w
  2036  08F6  1683               	bsf	3,5	;RP0=1, select bank1
  2037  08F7  1303               	bcf	3,6	;RP1=0, select bank1
  2038  08F8  00B4               	movwf	(___fladd@a+3)^(0+128)
  2039  08F9  1283               	bcf	3,5	;RP0=0, select bank0
  2040  08FA  1303               	bcf	3,6	;RP1=0, select bank0
  2041  08FB  0849               	movf	?___fldiv+2,w
  2042  08FC  1683               	bsf	3,5	;RP0=1, select bank1
  2043  08FD  1303               	bcf	3,6	;RP1=0, select bank1
  2044  08FE  00B3               	movwf	(___fladd@a+2)^(0+128)
  2045  08FF  1283               	bcf	3,5	;RP0=0, select bank0
  2046  0900  1303               	bcf	3,6	;RP1=0, select bank0
  2047  0901  0848               	movf	?___fldiv+1,w
  2048  0902  1683               	bsf	3,5	;RP0=1, select bank1
  2049  0903  1303               	bcf	3,6	;RP1=0, select bank1
  2050  0904  00B2               	movwf	(___fladd@a+1)^(0+128)
  2051  0905  1283               	bcf	3,5	;RP0=0, select bank0
  2052  0906  1303               	bcf	3,6	;RP1=0, select bank0
  2053  0907  0847               	movf	?___fldiv,w
  2054  0908  1683               	bsf	3,5	;RP0=1, select bank1
  2055  0909  1303               	bcf	3,6	;RP1=0, select bank1
  2056  090A  00B1               	movwf	___fladd@a^(0+128)
  2057  090B  30C2               	movlw	194
  2058  090C  00B0               	movwf	(___fladd@b+3)^(0+128)
  2059  090D  305C               	movlw	92
  2060  090E  00AF               	movwf	(___fladd@b+2)^(0+128)
  2061  090F  3000               	movlw	0
  2062  0910  00AE               	movwf	(___fladd@b+1)^(0+128)
  2063  0911  3000               	movlw	0
  2064  0912  00AD               	movwf	___fladd@b^(0+128)
  2065  0913  120A  118A  23E5  120A  158A  	fcall	___fladd
  2066  0918  1683               	bsf	3,5	;RP0=1, select bank1
  2067  0919  1303               	bcf	3,6	;RP1=0, select bank1
  2068  091A  0830               	movf	(?___fladd+3)^(0+128),w
  2069  091B  00BC               	movwf	(___flmul@a+3)^(0+128)
  2070  091C  082F               	movf	(?___fladd+2)^(0+128),w
  2071  091D  00BB               	movwf	(___flmul@a+2)^(0+128)
  2072  091E  082E               	movf	(?___fladd+1)^(0+128),w
  2073  091F  00BA               	movwf	(___flmul@a+1)^(0+128)
  2074  0920  082D               	movf	?___fladd^(0+128),w
  2075  0921  00B9               	movwf	___flmul@a^(0+128)
  2076  0922  30BF               	movlw	191
  2077  0923  00B8               	movwf	(___flmul@b+3)^(0+128)
  2078  0924  3080               	movlw	128
  2079  0925  00B7               	movwf	(___flmul@b+2)^(0+128)
  2080  0926  3000               	movlw	0
  2081  0927  00B6               	movwf	(___flmul@b+1)^(0+128)
  2082  0928  3000               	movlw	0
  2083  0929  00B5               	movwf	___flmul@b^(0+128)
  2084  092A  120A  118A  202A  120A  158A  	fcall	___flmul
  2085  092F  1683               	bsf	3,5	;RP0=1, select bank1
  2086  0930  1303               	bcf	3,6	;RP1=0, select bank1
  2087  0931  0838               	movf	(?___flmul+3)^(0+128),w
  2088  0932  00D2               	movwf	(___fltol@f1+3)^(0+128)
  2089  0933  0837               	movf	(?___flmul+2)^(0+128),w
  2090  0934  00D1               	movwf	(___fltol@f1+2)^(0+128)
  2091  0935  0836               	movf	(?___flmul+1)^(0+128),w
  2092  0936  00D0               	movwf	(___fltol@f1+1)^(0+128)
  2093  0937  0835               	movf	?___flmul^(0+128),w
  2094  0938  00CF               	movwf	___fltol@f1^(0+128)
  2095  0939  120A  158A  202D  120A  158A  	fcall	___fltol
  2096  093E  1683               	bsf	3,5	;RP0=1, select bank1
  2097  093F  1303               	bcf	3,6	;RP1=0, select bank1
  2098  0940  084F               	movf	?___fltol^(0+128),w
  2099  0941  00FF               	movwf	btemp+1
  2100  0942  087F               	movf	btemp+1,w
  2101  0943  1283               	bcf	3,5	;RP0=0, select bank0
  2102  0944  1303               	bcf	3,6	;RP1=0, select bank0
  2103  0945  00E0               	movwf	_gradospos
  2104  0946  3064               	movlw	100
  2105  0947  00AB               	movwf	___awdiv@divisor
  2106  0948  3000               	movlw	0
  2107  0949  00AC               	movwf	___awdiv@divisor+1
  2108  094A  0860               	movf	_gradospos,w
  2109  094B  1683               	bsf	3,5	;RP0=1, select bank1
  2110  094C  1303               	bcf	3,6	;RP1=0, select bank1
  2111  094D  00D9               	movwf	??_temp_pos^(0+128)
  2112  094E  01DA               	clrf	(??_temp_pos^(0+128)+1)
  2113  094F  0859               	movf	??_temp_pos^(0+128),w
  2114  0950  1283               	bcf	3,5	;RP0=0, select bank0
  2115  0951  1303               	bcf	3,6	;RP1=0, select bank0
  2116  0952  00AD               	movwf	___awdiv@dividend
  2117  0953  1683               	bsf	3,5	;RP0=1, select bank1
  2118  0954  1303               	bcf	3,6	;RP1=0, select bank1
  2119  0955  085A               	movf	(??_temp_pos+1)^(0+128),w
  2120  0956  1283               	bcf	3,5	;RP0=0, select bank0
  2121  0957  1303               	bcf	3,6	;RP1=0, select bank0
  2122  0958  00AE               	movwf	___awdiv@dividend+1
  2123  0959  160A  118A  2498  120A  158A  	fcall	___awdiv
  2124  095E  1283               	bcf	3,5	;RP0=0, select bank0
  2125  095F  1303               	bcf	3,6	;RP1=0, select bank0
  2126  0960  082B               	movf	?___awdiv,w
  2127  0961  00FF               	movwf	btemp+1
  2128  0962  087F               	movf	btemp+1,w
  2129  0963  1683               	bsf	3,5	;RP0=1, select bank1
  2130  0964  1303               	bcf	3,6	;RP1=0, select bank1
  2131  0965  00E0               	movwf	_centenasp2^(0+128)
  2132  0966  300A               	movlw	10
  2133  0967  1283               	bcf	3,5	;RP0=0, select bank0
  2134  0968  1303               	bcf	3,6	;RP1=0, select bank0
  2135  0969  00AB               	movwf	___awdiv@divisor
  2136  096A  3000               	movlw	0
  2137  096B  00AC               	movwf	___awdiv@divisor+1
  2138  096C  1683               	bsf	3,5	;RP0=1, select bank1
  2139  096D  1303               	bcf	3,6	;RP1=0, select bank1
  2140  096E  0860               	movf	_centenasp2^(0+128),w
  2141  096F  00D9               	movwf	??_temp_pos^(0+128)
  2142  0970  01DA               	clrf	(??_temp_pos^(0+128)+1)
  2143  0971  0859               	movf	??_temp_pos^(0+128),w
  2144  0972  1283               	bcf	3,5	;RP0=0, select bank0
  2145  0973  1303               	bcf	3,6	;RP1=0, select bank0
  2146  0974  00B3               	movwf	___wmul@multiplier
  2147  0975  1683               	bsf	3,5	;RP0=1, select bank1
  2148  0976  1303               	bcf	3,6	;RP1=0, select bank1
  2149  0977  085A               	movf	(??_temp_pos+1)^(0+128),w
  2150  0978  1283               	bcf	3,5	;RP0=0, select bank0
  2151  0979  1303               	bcf	3,6	;RP1=0, select bank0
  2152  097A  00B4               	movwf	___wmul@multiplier+1
  2153  097B  309C               	movlw	156
  2154  097C  00B5               	movwf	___wmul@multiplicand
  2155  097D  30FF               	movlw	255
  2156  097E  00B6               	movwf	___wmul@multiplicand+1
  2157  097F  160A  118A  224B  120A  158A  	fcall	___wmul
  2158  0984  1283               	bcf	3,5	;RP0=0, select bank0
  2159  0985  1303               	bcf	3,6	;RP1=0, select bank0
  2160  0986  0860               	movf	_gradospos,w
  2161  0987  0733               	addwf	?___wmul,w
  2162  0988  00AD               	movwf	___awdiv@dividend
  2163  0989  0834               	movf	?___wmul+1,w
  2164  098A  1803               	skipnc
  2165  098B  0A34               	incf	?___wmul+1,w
  2166  098C  00AE               	movwf	___awdiv@dividend+1
  2167  098D  160A  118A  2498  120A  158A  	fcall	___awdiv
  2168  0992  1283               	bcf	3,5	;RP0=0, select bank0
  2169  0993  1303               	bcf	3,6	;RP1=0, select bank0
  2170  0994  082B               	movf	?___awdiv,w
  2171  0995  00FF               	movwf	btemp+1
  2172  0996  087F               	movf	btemp+1,w
  2173  0997  1683               	bsf	3,5	;RP0=1, select bank1
  2174  0998  1303               	bcf	3,6	;RP1=0, select bank1
  2175  0999  00E1               	movwf	_decenasp2^(0+128)
  2176  099A  309C               	movlw	156
  2177  099B  00FF               	movwf	btemp+1
  2178  099C  087F               	movf	btemp+1,w
  2179  099D  1283               	bcf	3,5	;RP0=0, select bank0
  2180  099E  1303               	bcf	3,6	;RP1=0, select bank0
  2181  099F  00B9               	movwf	___bmul@multiplicand
  2182  09A0  1683               	bsf	3,5	;RP0=1, select bank1
  2183  09A1  1303               	bcf	3,6	;RP1=0, select bank1
  2184  09A2  0860               	movf	_centenasp2^(0+128),w
  2185  09A3  160A  118A  21A8  120A  158A  	fcall	___bmul
  2186  09A8  1683               	bsf	3,5	;RP0=1, select bank1
  2187  09A9  1303               	bcf	3,6	;RP1=0, select bank1
  2188  09AA  00D9               	movwf	??_temp_pos^(0+128)
  2189  09AB  30F6               	movlw	246
  2190  09AC  00FF               	movwf	btemp+1
  2191  09AD  087F               	movf	btemp+1,w
  2192  09AE  1283               	bcf	3,5	;RP0=0, select bank0
  2193  09AF  1303               	bcf	3,6	;RP1=0, select bank0
  2194  09B0  00B9               	movwf	___bmul@multiplicand
  2195  09B1  1683               	bsf	3,5	;RP0=1, select bank1
  2196  09B2  1303               	bcf	3,6	;RP1=0, select bank1
  2197  09B3  0861               	movf	_decenasp2^(0+128),w
  2198  09B4  160A  118A  21A8  120A  158A  	fcall	___bmul
  2199  09B9  1683               	bsf	3,5	;RP0=1, select bank1
  2200  09BA  1303               	bcf	3,6	;RP1=0, select bank1
  2201  09BB  0759               	addwf	??_temp_pos^(0+128),w
  2202  09BC  1283               	bcf	3,5	;RP0=0, select bank0
  2203  09BD  1303               	bcf	3,6	;RP1=0, select bank0
  2204  09BE  0760               	addwf	_gradospos,w
  2205  09BF  00FF               	movwf	btemp+1
  2206  09C0  087F               	movf	btemp+1,w
  2207  09C1  1683               	bsf	3,5	;RP0=1, select bank1
  2208  09C2  1303               	bcf	3,6	;RP1=0, select bank1
  2209  09C3  00E2               	movwf	_unidadesp2^(0+128)
  2210  09C4  2AC6               	goto	l220
  2211  09C5                     l3847:
  2212  09C5  3096               	movlw	150
  2213  09C6  1283               	bcf	3,5	;RP0=0, select bank0
  2214  09C7  1303               	bcf	3,6	;RP1=0, select bank0
  2215  09C8  00B5               	movwf	___wmul@multiplicand
  2216  09C9  3000               	movlw	0
  2217  09CA  00B6               	movwf	___wmul@multiplicand+1
  2218  09CB  1683               	bsf	3,5	;RP0=1, select bank1
  2219  09CC  1303               	bcf	3,6	;RP1=0, select bank1
  2220  09CD  0867               	movf	_esclavo3^(0+128),w
  2221  09CE  00D9               	movwf	??_temp_pos^(0+128)
  2222  09CF  01DA               	clrf	(??_temp_pos^(0+128)+1)
  2223  09D0  0859               	movf	??_temp_pos^(0+128),w
  2224  09D1  1283               	bcf	3,5	;RP0=0, select bank0
  2225  09D2  1303               	bcf	3,6	;RP1=0, select bank0
  2226  09D3  00B3               	movwf	___wmul@multiplier
  2227  09D4  1683               	bsf	3,5	;RP0=1, select bank1
  2228  09D5  1303               	bcf	3,6	;RP1=0, select bank1
  2229  09D6  085A               	movf	(??_temp_pos+1)^(0+128),w
  2230  09D7  1283               	bcf	3,5	;RP0=0, select bank0
  2231  09D8  1303               	bcf	3,6	;RP1=0, select bank0
  2232  09D9  00B4               	movwf	___wmul@multiplier+1
  2233  09DA  160A  118A  224B  120A  158A  	fcall	___wmul
  2234  09DF  1283               	bcf	3,5	;RP0=0, select bank0
  2235  09E0  1303               	bcf	3,6	;RP1=0, select bank0
  2236  09E1  0833               	movf	?___wmul,w
  2237  09E2  00B9               	movwf	___xxtofl@val
  2238  09E3  0834               	movf	?___wmul+1,w
  2239  09E4  00BA               	movwf	___xxtofl@val+1
  2240  09E5  3000               	movlw	0
  2241  09E6  1BBA               	btfsc	___xxtofl@val+1,7
  2242  09E7  30FF               	movlw	255
  2243  09E8  00BB               	movwf	___xxtofl@val+2
  2244  09E9  00BC               	movwf	___xxtofl@val+3
  2245  09EA  3001               	movlw	1
  2246  09EB  160A  118A  2501  120A  158A  	fcall	___xxtofl
  2247  09F0  1283               	bcf	3,5	;RP0=0, select bank0
  2248  09F1  1303               	bcf	3,6	;RP1=0, select bank0
  2249  09F2  083C               	movf	?___xxtofl+3,w
  2250  09F3  00CE               	movwf	___fldiv@b+3
  2251  09F4  083B               	movf	?___xxtofl+2,w
  2252  09F5  00CD               	movwf	___fldiv@b+2
  2253  09F6  083A               	movf	?___xxtofl+1,w
  2254  09F7  00CC               	movwf	___fldiv@b+1
  2255  09F8  0839               	movf	?___xxtofl,w
  2256  09F9  00CB               	movwf	___fldiv@b
  2257  09FA  3043               	movlw	67
  2258  09FB  00CA               	movwf	___fldiv@a+3
  2259  09FC  303A               	movlw	58
  2260  09FD  00C9               	movwf	___fldiv@a+2
  2261  09FE  3000               	movlw	0
  2262  09FF  00C8               	movwf	___fldiv@a+1
  2263  0A00  3000               	movlw	0
  2264  0A01  00C7               	movwf	___fldiv@a
  2265  0A02  120A  158A  22C7  120A  158A  	fcall	___fldiv
  2266  0A07  1283               	bcf	3,5	;RP0=0, select bank0
  2267  0A08  1303               	bcf	3,6	;RP1=0, select bank0
  2268  0A09  084A               	movf	?___fldiv+3,w
  2269  0A0A  1683               	bsf	3,5	;RP0=1, select bank1
  2270  0A0B  1303               	bcf	3,6	;RP1=0, select bank1
  2271  0A0C  00B4               	movwf	(___fladd@a+3)^(0+128)
  2272  0A0D  1283               	bcf	3,5	;RP0=0, select bank0
  2273  0A0E  1303               	bcf	3,6	;RP1=0, select bank0
  2274  0A0F  0849               	movf	?___fldiv+2,w
  2275  0A10  1683               	bsf	3,5	;RP0=1, select bank1
  2276  0A11  1303               	bcf	3,6	;RP1=0, select bank1
  2277  0A12  00B3               	movwf	(___fladd@a+2)^(0+128)
  2278  0A13  1283               	bcf	3,5	;RP0=0, select bank0
  2279  0A14  1303               	bcf	3,6	;RP1=0, select bank0
  2280  0A15  0848               	movf	?___fldiv+1,w
  2281  0A16  1683               	bsf	3,5	;RP0=1, select bank1
  2282  0A17  1303               	bcf	3,6	;RP1=0, select bank1
  2283  0A18  00B2               	movwf	(___fladd@a+1)^(0+128)
  2284  0A19  1283               	bcf	3,5	;RP0=0, select bank0
  2285  0A1A  1303               	bcf	3,6	;RP1=0, select bank0
  2286  0A1B  0847               	movf	?___fldiv,w
  2287  0A1C  1683               	bsf	3,5	;RP0=1, select bank1
  2288  0A1D  1303               	bcf	3,6	;RP1=0, select bank1
  2289  0A1E  00B1               	movwf	___fladd@a^(0+128)
  2290  0A1F  30C2               	movlw	194
  2291  0A20  00B0               	movwf	(___fladd@b+3)^(0+128)
  2292  0A21  305C               	movlw	92
  2293  0A22  00AF               	movwf	(___fladd@b+2)^(0+128)
  2294  0A23  3000               	movlw	0
  2295  0A24  00AE               	movwf	(___fladd@b+1)^(0+128)
  2296  0A25  3000               	movlw	0
  2297  0A26  00AD               	movwf	___fladd@b^(0+128)
  2298  0A27  120A  118A  23E5  120A  158A  	fcall	___fladd
  2299  0A2C  1683               	bsf	3,5	;RP0=1, select bank1
  2300  0A2D  1303               	bcf	3,6	;RP1=0, select bank1
  2301  0A2E  0830               	movf	(?___fladd+3)^(0+128),w
  2302  0A2F  00D2               	movwf	(___fltol@f1+3)^(0+128)
  2303  0A30  082F               	movf	(?___fladd+2)^(0+128),w
  2304  0A31  00D1               	movwf	(___fltol@f1+2)^(0+128)
  2305  0A32  082E               	movf	(?___fladd+1)^(0+128),w
  2306  0A33  00D0               	movwf	(___fltol@f1+1)^(0+128)
  2307  0A34  082D               	movf	?___fladd^(0+128),w
  2308  0A35  00CF               	movwf	___fltol@f1^(0+128)
  2309  0A36  120A  158A  202D  120A  158A  	fcall	___fltol
  2310  0A3B  1683               	bsf	3,5	;RP0=1, select bank1
  2311  0A3C  1303               	bcf	3,6	;RP1=0, select bank1
  2312  0A3D  084F               	movf	?___fltol^(0+128),w
  2313  0A3E  00FF               	movwf	btemp+1
  2314  0A3F  087F               	movf	btemp+1,w
  2315  0A40  1283               	bcf	3,5	;RP0=0, select bank0
  2316  0A41  1303               	bcf	3,6	;RP1=0, select bank0
  2317  0A42  00E0               	movwf	_gradospos
  2318  0A43  3064               	movlw	100
  2319  0A44  00AB               	movwf	___awdiv@divisor
  2320  0A45  3000               	movlw	0
  2321  0A46  00AC               	movwf	___awdiv@divisor+1
  2322  0A47  0860               	movf	_gradospos,w
  2323  0A48  1683               	bsf	3,5	;RP0=1, select bank1
  2324  0A49  1303               	bcf	3,6	;RP1=0, select bank1
  2325  0A4A  00D9               	movwf	??_temp_pos^(0+128)
  2326  0A4B  01DA               	clrf	(??_temp_pos^(0+128)+1)
  2327  0A4C  0859               	movf	??_temp_pos^(0+128),w
  2328  0A4D  1283               	bcf	3,5	;RP0=0, select bank0
  2329  0A4E  1303               	bcf	3,6	;RP1=0, select bank0
  2330  0A4F  00AD               	movwf	___awdiv@dividend
  2331  0A50  1683               	bsf	3,5	;RP0=1, select bank1
  2332  0A51  1303               	bcf	3,6	;RP1=0, select bank1
  2333  0A52  085A               	movf	(??_temp_pos+1)^(0+128),w
  2334  0A53  1283               	bcf	3,5	;RP0=0, select bank0
  2335  0A54  1303               	bcf	3,6	;RP1=0, select bank0
  2336  0A55  00AE               	movwf	___awdiv@dividend+1
  2337  0A56  160A  118A  2498  120A  158A  	fcall	___awdiv
  2338  0A5B  1283               	bcf	3,5	;RP0=0, select bank0
  2339  0A5C  1303               	bcf	3,6	;RP1=0, select bank0
  2340  0A5D  082B               	movf	?___awdiv,w
  2341  0A5E  00FF               	movwf	btemp+1
  2342  0A5F  087F               	movf	btemp+1,w
  2343  0A60  1683               	bsf	3,5	;RP0=1, select bank1
  2344  0A61  1303               	bcf	3,6	;RP1=0, select bank1
  2345  0A62  00E0               	movwf	_centenasp2^(0+128)
  2346  0A63  300A               	movlw	10
  2347  0A64  1283               	bcf	3,5	;RP0=0, select bank0
  2348  0A65  1303               	bcf	3,6	;RP1=0, select bank0
  2349  0A66  00AB               	movwf	___awdiv@divisor
  2350  0A67  3000               	movlw	0
  2351  0A68  00AC               	movwf	___awdiv@divisor+1
  2352  0A69  1683               	bsf	3,5	;RP0=1, select bank1
  2353  0A6A  1303               	bcf	3,6	;RP1=0, select bank1
  2354  0A6B  0860               	movf	_centenasp2^(0+128),w
  2355  0A6C  00D9               	movwf	??_temp_pos^(0+128)
  2356  0A6D  01DA               	clrf	(??_temp_pos^(0+128)+1)
  2357  0A6E  0859               	movf	??_temp_pos^(0+128),w
  2358  0A6F  1283               	bcf	3,5	;RP0=0, select bank0
  2359  0A70  1303               	bcf	3,6	;RP1=0, select bank0
  2360  0A71  00B3               	movwf	___wmul@multiplier
  2361  0A72  1683               	bsf	3,5	;RP0=1, select bank1
  2362  0A73  1303               	bcf	3,6	;RP1=0, select bank1
  2363  0A74  085A               	movf	(??_temp_pos+1)^(0+128),w
  2364  0A75  1283               	bcf	3,5	;RP0=0, select bank0
  2365  0A76  1303               	bcf	3,6	;RP1=0, select bank0
  2366  0A77  00B4               	movwf	___wmul@multiplier+1
  2367  0A78  309C               	movlw	156
  2368  0A79  00B5               	movwf	___wmul@multiplicand
  2369  0A7A  30FF               	movlw	255
  2370  0A7B  00B6               	movwf	___wmul@multiplicand+1
  2371  0A7C  160A  118A  224B  120A  158A  	fcall	___wmul
  2372  0A81  1283               	bcf	3,5	;RP0=0, select bank0
  2373  0A82  1303               	bcf	3,6	;RP1=0, select bank0
  2374  0A83  0860               	movf	_gradospos,w
  2375  0A84  0733               	addwf	?___wmul,w
  2376  0A85  00AD               	movwf	___awdiv@dividend
  2377  0A86  0834               	movf	?___wmul+1,w
  2378  0A87  1803               	skipnc
  2379  0A88  0A34               	incf	?___wmul+1,w
  2380  0A89  00AE               	movwf	___awdiv@dividend+1
  2381  0A8A  160A  118A  2498  120A  158A  	fcall	___awdiv
  2382  0A8F  1283               	bcf	3,5	;RP0=0, select bank0
  2383  0A90  1303               	bcf	3,6	;RP1=0, select bank0
  2384  0A91  082B               	movf	?___awdiv,w
  2385  0A92  00FF               	movwf	btemp+1
  2386  0A93  087F               	movf	btemp+1,w
  2387  0A94  1683               	bsf	3,5	;RP0=1, select bank1
  2388  0A95  1303               	bcf	3,6	;RP1=0, select bank1
  2389  0A96  00E1               	movwf	_decenasp2^(0+128)
  2390  0A97  309C               	movlw	156
  2391  0A98  00FF               	movwf	btemp+1
  2392  0A99  087F               	movf	btemp+1,w
  2393  0A9A  1283               	bcf	3,5	;RP0=0, select bank0
  2394  0A9B  1303               	bcf	3,6	;RP1=0, select bank0
  2395  0A9C  00B9               	movwf	___bmul@multiplicand
  2396  0A9D  1683               	bsf	3,5	;RP0=1, select bank1
  2397  0A9E  1303               	bcf	3,6	;RP1=0, select bank1
  2398  0A9F  0860               	movf	_centenasp2^(0+128),w
  2399  0AA0  160A  118A  21A8  120A  158A  	fcall	___bmul
  2400  0AA5  1683               	bsf	3,5	;RP0=1, select bank1
  2401  0AA6  1303               	bcf	3,6	;RP1=0, select bank1
  2402  0AA7  00D9               	movwf	??_temp_pos^(0+128)
  2403  0AA8  30F6               	movlw	246
  2404  0AA9  00FF               	movwf	btemp+1
  2405  0AAA  087F               	movf	btemp+1,w
  2406  0AAB  1283               	bcf	3,5	;RP0=0, select bank0
  2407  0AAC  1303               	bcf	3,6	;RP1=0, select bank0
  2408  0AAD  00B9               	movwf	___bmul@multiplicand
  2409  0AAE  1683               	bsf	3,5	;RP0=1, select bank1
  2410  0AAF  1303               	bcf	3,6	;RP1=0, select bank1
  2411  0AB0  0861               	movf	_decenasp2^(0+128),w
  2412  0AB1  160A  118A  21A8  120A  158A  	fcall	___bmul
  2413  0AB6  1683               	bsf	3,5	;RP0=1, select bank1
  2414  0AB7  1303               	bcf	3,6	;RP1=0, select bank1
  2415  0AB8  0759               	addwf	??_temp_pos^(0+128),w
  2416  0AB9  1283               	bcf	3,5	;RP0=0, select bank0
  2417  0ABA  1303               	bcf	3,6	;RP1=0, select bank0
  2418  0ABB  0760               	addwf	_gradospos,w
  2419  0ABC  00FF               	movwf	btemp+1
  2420  0ABD  087F               	movf	btemp+1,w
  2421  0ABE  1683               	bsf	3,5	;RP0=1, select bank1
  2422  0ABF  1303               	bcf	3,6	;RP1=0, select bank1
  2423  0AC0  00E2               	movwf	_unidadesp2^(0+128)
  2424  0AC1  160A  118A  2192  120A  158A  	fcall	_correccion
  2425  0AC6                     l220:
  2426  0AC6  0008               	return
  2427  0AC7                     __end_of_temp_pos:
  2428                           
  2429                           	psect	text2
  2430  1192                     __ptext2:	
  2431 ;; *************** function _correccion *****************
  2432 ;; Defined at:
  2433 ;;		line 302 in file "C:/MPlab_Digital2/Digital_2/Proyecto3Digital2.X/main.c"
  2434 ;; Parameters:    Size  Location     Type
  2435 ;;		None
  2436 ;; Auto vars:     Size  Location     Type
  2437 ;;		None
  2438 ;; Return value:  Size  Location     Type
  2439 ;;                  1    wreg      void 
  2440 ;; Registers used:
  2441 ;;		wreg, status,2, status,0, btemp+1
  2442 ;; Tracked objects:
  2443 ;;		On entry : 0/0
  2444 ;;		On exit  : 0/0
  2445 ;;		Unchanged: 0/0
  2446 ;; Data sizes:     COMMON   BANK0   BANK1   BANK3   BANK2
  2447 ;;      Params:         0       0       0       0       0
  2448 ;;      Locals:         0       0       0       0       0
  2449 ;;      Temps:          0       0       0       0       0
  2450 ;;      Totals:         0       0       0       0       0
  2451 ;;Total ram usage:        0 bytes
  2452 ;; Hardware stack levels used:    1
  2453 ;; Hardware stack levels required when called:    3
  2454 ;; This function calls:
  2455 ;;		Nothing
  2456 ;; This function is called by:
  2457 ;;		_main
  2458 ;;		_temp_pos
  2459 ;; This function uses a non-reentrant model
  2460 ;;
  2461                           
  2462                           
  2463                           ;psect for function _correccion
  2464  1192                     _correccion:
  2465  1192                     l2267:	
  2466                           ;incstack = 0
  2467                           ; Regs used in _correccion: [wreg+status,2+status,0+btemp+1]
  2468                           
  2469  1192  30DB               	movlw	219
  2470  1193  1683               	bsf	3,5	;RP0=1, select bank1
  2471  1194  1303               	bcf	3,6	;RP1=0, select bank1
  2472  1195  0267               	subwf	_esclavo3^(0+128),w
  2473  1196  1C03               	skipc
  2474  1197  2999               	goto	u1951
  2475  1198  299A               	goto	u1950
  2476  1199                     u1951:
  2477  1199  29A7               	goto	l224
  2478  119A                     u1950:
  2479  119A                     l2269:
  2480  119A  1283               	bcf	3,5	;RP0=0, select bank0
  2481  119B  1303               	bcf	3,6	;RP1=0, select bank0
  2482  119C  0860               	movf	_gradospos,w
  2483  119D  3E5F               	addlw	95
  2484  119E  00FF               	movwf	btemp+1
  2485  119F  087F               	movf	btemp+1,w
  2486  11A0  00E0               	movwf	_gradospos
  2487  11A1                     l2271:
  2488  11A1  0806               	movf	6,w	;volatile
  2489  11A2  00FF               	movwf	btemp+1
  2490  11A3  087F               	movf	btemp+1,w
  2491  11A4  1683               	bsf	3,5	;RP0=1, select bank1
  2492  11A5  1303               	bcf	3,6	;RP1=0, select bank1
  2493  11A6  00E0               	movwf	_centenasp2^(0+128)
  2494  11A7                     l224:
  2495  11A7  0008               	return
  2496  11A8                     __end_of_correccion:
  2497                           
  2498                           	psect	text3
  2499  1501                     __ptext3:	
  2500 ;; *************** function ___xxtofl *****************
  2501 ;; Defined at:
  2502 ;;		line 10 in file "C:\Program Files\Microchip\xc8\v2.20\pic\sources\c90\common\xxtofl.c"
  2503 ;; Parameters:    Size  Location     Type
  2504 ;;  sign            1    wreg     unsigned char 
  2505 ;;  val             4   25[BANK0 ] long 
  2506 ;; Auto vars:     Size  Location     Type
  2507 ;;  sign            1   33[BANK0 ] unsigned char 
  2508 ;;  arg             4   35[BANK0 ] unsigned long 
  2509 ;;  exp             1   34[BANK0 ] unsigned char 
  2510 ;; Return value:  Size  Location     Type
  2511 ;;                  4   25[BANK0 ] unsigned char 
  2512 ;; Registers used:
  2513 ;;		wreg, status,2, status,0, btemp+1
  2514 ;; Tracked objects:
  2515 ;;		On entry : 0/0
  2516 ;;		On exit  : 0/0
  2517 ;;		Unchanged: 0/0
  2518 ;; Data sizes:     COMMON   BANK0   BANK1   BANK3   BANK2
  2519 ;;      Params:         0       4       0       0       0
  2520 ;;      Locals:         0       6       0       0       0
  2521 ;;      Temps:          0       4       0       0       0
  2522 ;;      Totals:         0      14       0       0       0
  2523 ;;Total ram usage:       14 bytes
  2524 ;; Hardware stack levels used:    1
  2525 ;; Hardware stack levels required when called:    3
  2526 ;; This function calls:
  2527 ;;		Nothing
  2528 ;; This function is called by:
  2529 ;;		_temp_pos
  2530 ;; This function uses a non-reentrant model
  2531 ;;
  2532                           
  2533                           
  2534                           ;psect for function ___xxtofl
  2535  1501                     ___xxtofl:
  2536                           
  2537                           ;incstack = 0
  2538                           ; Regs used in ___xxtofl: [wreg+status,2+status,0+btemp+1]
  2539                           ;___xxtofl@sign stored from wreg
  2540  1501  1283               	bcf	3,5	;RP0=0, select bank0
  2541  1502  1303               	bcf	3,6	;RP1=0, select bank0
  2542  1503  00C1               	movwf	___xxtofl@sign
  2543  1504                     l2973:
  2544  1504  0841               	movf	___xxtofl@sign,w
  2545  1505  1903               	btfsc	3,2
  2546  1506  2D08               	goto	u3421
  2547  1507  2D09               	goto	u3420
  2548  1508                     u3421:
  2549  1508  2D1D               	goto	l2979
  2550  1509                     u3420:
  2551  1509                     l2975:
  2552  1509  1FBC               	btfss	___xxtofl@val+3,7
  2553  150A  2D0C               	goto	u3431
  2554  150B  2D0D               	goto	u3430
  2555  150C                     u3431:
  2556  150C  2D1D               	goto	l2979
  2557  150D                     u3430:
  2558  150D                     l2977:
  2559  150D  0939               	comf	___xxtofl@val,w
  2560  150E  00C3               	movwf	___xxtofl@arg
  2561  150F  093A               	comf	___xxtofl@val+1,w
  2562  1510  00C4               	movwf	___xxtofl@arg+1
  2563  1511  093B               	comf	___xxtofl@val+2,w
  2564  1512  00C5               	movwf	___xxtofl@arg+2
  2565  1513  093C               	comf	___xxtofl@val+3,w
  2566  1514  00C6               	movwf	___xxtofl@arg+3
  2567  1515  0AC3               	incf	___xxtofl@arg,f
  2568  1516  1903               	skipnz
  2569  1517  0AC4               	incf	___xxtofl@arg+1,f
  2570  1518  1903               	skipnz
  2571  1519  0AC5               	incf	___xxtofl@arg+2,f
  2572  151A  1903               	skipnz
  2573  151B  0AC6               	incf	___xxtofl@arg+3,f
  2574  151C  2D25               	goto	l812
  2575  151D                     l2979:
  2576  151D  083C               	movf	___xxtofl@val+3,w
  2577  151E  00C6               	movwf	___xxtofl@arg+3
  2578  151F  083B               	movf	___xxtofl@val+2,w
  2579  1520  00C5               	movwf	___xxtofl@arg+2
  2580  1521  083A               	movf	___xxtofl@val+1,w
  2581  1522  00C4               	movwf	___xxtofl@arg+1
  2582  1523  0839               	movf	___xxtofl@val,w
  2583  1524  00C3               	movwf	___xxtofl@arg
  2584  1525                     l812:
  2585  1525  083C               	movf	___xxtofl@val+3,w
  2586  1526  043B               	iorwf	___xxtofl@val+2,w
  2587  1527  043A               	iorwf	___xxtofl@val+1,w
  2588  1528  0439               	iorwf	___xxtofl@val,w
  2589  1529  1D03               	skipz
  2590  152A  2D2C               	goto	u3441
  2591  152B  2D2D               	goto	u3440
  2592  152C                     u3441:
  2593  152C  2D36               	goto	l2985
  2594  152D                     u3440:
  2595  152D                     l2981:
  2596  152D  3000               	movlw	0
  2597  152E  00BC               	movwf	?___xxtofl+3
  2598  152F  3000               	movlw	0
  2599  1530  00BB               	movwf	?___xxtofl+2
  2600  1531  3000               	movlw	0
  2601  1532  00BA               	movwf	?___xxtofl+1
  2602  1533  3000               	movlw	0
  2603  1534  00B9               	movwf	?___xxtofl
  2604  1535  2DBC               	goto	l814
  2605  1536                     l2985:
  2606  1536  3096               	movlw	150
  2607  1537  00FF               	movwf	btemp+1
  2608  1538  087F               	movf	btemp+1,w
  2609  1539  00C2               	movwf	___xxtofl@exp
  2610  153A  2D48               	goto	l2991
  2611  153B                     l2987:
  2612  153B  3001               	movlw	1
  2613  153C  00FF               	movwf	btemp+1
  2614  153D  087F               	movf	btemp+1,w
  2615  153E  07C2               	addwf	___xxtofl@exp,f
  2616  153F                     l2989:
  2617  153F  3001               	movlw	1
  2618  1540                     u3455:
  2619  1540  1003               	clrc
  2620  1541  0CC6               	rrf	___xxtofl@arg+3,f
  2621  1542  0CC5               	rrf	___xxtofl@arg+2,f
  2622  1543  0CC4               	rrf	___xxtofl@arg+1,f
  2623  1544  0CC3               	rrf	___xxtofl@arg,f
  2624  1545  3EFF               	addlw	-1
  2625  1546  1D03               	skipz
  2626  1547  2D40               	goto	u3455
  2627  1548                     l2991:
  2628  1548  30FE               	movlw	254
  2629  1549  0546               	andwf	___xxtofl@arg+3,w
  2630  154A  1D03               	btfss	3,2
  2631  154B  2D4D               	goto	u3461
  2632  154C  2D4E               	goto	u3460
  2633  154D                     u3461:
  2634  154D  2D3B               	goto	l2987
  2635  154E                     u3460:
  2636  154E  2D6A               	goto	l2999
  2637  154F                     l2993:
  2638  154F  3001               	movlw	1
  2639  1550  00FF               	movwf	btemp+1
  2640  1551  087F               	movf	btemp+1,w
  2641  1552  07C2               	addwf	___xxtofl@exp,f
  2642  1553                     l2995:
  2643  1553  3001               	movlw	1
  2644  1554  07C3               	addwf	___xxtofl@arg,f
  2645  1555  3000               	movlw	0
  2646  1556  1803               	skipnc
  2647  1557  3001               	movlw	1
  2648  1558  07C4               	addwf	___xxtofl@arg+1,f
  2649  1559  3000               	movlw	0
  2650  155A  1803               	skipnc
  2651  155B  3001               	movlw	1
  2652  155C  07C5               	addwf	___xxtofl@arg+2,f
  2653  155D  3000               	movlw	0
  2654  155E  1803               	skipnc
  2655  155F  3001               	movlw	1
  2656  1560  07C6               	addwf	___xxtofl@arg+3,f
  2657  1561                     l2997:
  2658  1561  3001               	movlw	1
  2659  1562                     u3475:
  2660  1562  1003               	clrc
  2661  1563  0CC6               	rrf	___xxtofl@arg+3,f
  2662  1564  0CC5               	rrf	___xxtofl@arg+2,f
  2663  1565  0CC4               	rrf	___xxtofl@arg+1,f
  2664  1566  0CC3               	rrf	___xxtofl@arg,f
  2665  1567  3EFF               	addlw	-1
  2666  1568  1D03               	skipz
  2667  1569  2D62               	goto	u3475
  2668  156A                     l2999:
  2669  156A  30FF               	movlw	255
  2670  156B  0546               	andwf	___xxtofl@arg+3,w
  2671  156C  1D03               	btfss	3,2
  2672  156D  2D6F               	goto	u3481
  2673  156E  2D70               	goto	u3480
  2674  156F                     u3481:
  2675  156F  2D4F               	goto	l2993
  2676  1570                     u3480:
  2677  1570  2D7C               	goto	l3003
  2678  1571                     l3001:
  2679  1571  3001               	movlw	1
  2680  1572  02C2               	subwf	___xxtofl@exp,f
  2681  1573  3001               	movlw	1
  2682  1574  00BD               	movwf	??___xxtofl
  2683  1575                     u3495:
  2684  1575  1003               	clrc
  2685  1576  0DC3               	rlf	___xxtofl@arg,f
  2686  1577  0DC4               	rlf	___xxtofl@arg+1,f
  2687  1578  0DC5               	rlf	___xxtofl@arg+2,f
  2688  1579  0DC6               	rlf	___xxtofl@arg+3,f
  2689  157A  0BBD               	decfsz	??___xxtofl,f
  2690  157B  2D75               	goto	u3495
  2691  157C                     l3003:
  2692  157C  1BC5               	btfsc	___xxtofl@arg+2,7
  2693  157D  2D7F               	goto	u3501
  2694  157E  2D80               	goto	u3500
  2695  157F                     u3501:
  2696  157F  2D86               	goto	l825
  2697  1580                     u3500:
  2698  1580                     l3005:
  2699  1580  3002               	movlw	2
  2700  1581  0242               	subwf	___xxtofl@exp,w
  2701  1582  1803               	skipnc
  2702  1583  2D85               	goto	u3511
  2703  1584  2D86               	goto	u3510
  2704  1585                     u3511:
  2705  1585  2D71               	goto	l3001
  2706  1586                     u3510:
  2707  1586                     l825:
  2708  1586  1842               	btfsc	___xxtofl@exp,0
  2709  1587  2D89               	goto	u3521
  2710  1588  2D8A               	goto	u3520
  2711  1589                     u3521:
  2712  1589  2D92               	goto	l826
  2713  158A                     u3520:
  2714  158A                     l3007:
  2715  158A  30FF               	movlw	255
  2716  158B  05C3               	andwf	___xxtofl@arg,f
  2717  158C  30FF               	movlw	255
  2718  158D  05C4               	andwf	___xxtofl@arg+1,f
  2719  158E  307F               	movlw	127
  2720  158F  05C5               	andwf	___xxtofl@arg+2,f
  2721  1590  30FF               	movlw	255
  2722  1591  05C6               	andwf	___xxtofl@arg+3,f
  2723  1592                     l826:
  2724  1592  1003               	clrc
  2725  1593  0CC2               	rrf	___xxtofl@exp,f
  2726  1594                     l3009:
  2727  1594  0842               	movf	___xxtofl@exp,w
  2728  1595  00BD               	movwf	??___xxtofl
  2729  1596  01BE               	clrf	??___xxtofl+1
  2730  1597  01BF               	clrf	??___xxtofl+2
  2731  1598  01C0               	clrf	??___xxtofl+3
  2732  1599  3018               	movlw	24
  2733  159A                     u3535:
  2734  159A  1003               	clrc
  2735  159B  0DBD               	rlf	??___xxtofl,f
  2736  159C  0DBE               	rlf	??___xxtofl+1,f
  2737  159D  0DBF               	rlf	??___xxtofl+2,f
  2738  159E  0DC0               	rlf	??___xxtofl+3,f
  2739  159F                     u3530:
  2740  159F  3EFF               	addlw	-1
  2741  15A0  1D03               	skipz
  2742  15A1  2D9A               	goto	u3535
  2743  15A2  083D               	movf	??___xxtofl,w
  2744  15A3  04C3               	iorwf	___xxtofl@arg,f
  2745  15A4  083E               	movf	??___xxtofl+1,w
  2746  15A5  04C4               	iorwf	___xxtofl@arg+1,f
  2747  15A6  083F               	movf	??___xxtofl+2,w
  2748  15A7  04C5               	iorwf	___xxtofl@arg+2,f
  2749  15A8  0840               	movf	??___xxtofl+3,w
  2750  15A9  04C6               	iorwf	___xxtofl@arg+3,f
  2751  15AA                     l3011:
  2752  15AA  0841               	movf	___xxtofl@sign,w
  2753  15AB  1903               	btfsc	3,2
  2754  15AC  2DAE               	goto	u3541
  2755  15AD  2DAF               	goto	u3540
  2756  15AE                     u3541:
  2757  15AE  2DB4               	goto	l3017
  2758  15AF                     u3540:
  2759  15AF                     l3013:
  2760  15AF  1FBC               	btfss	___xxtofl@val+3,7
  2761  15B0  2DB2               	goto	u3551
  2762  15B1  2DB3               	goto	u3550
  2763  15B2                     u3551:
  2764  15B2  2DB4               	goto	l3017
  2765  15B3                     u3550:
  2766  15B3                     l3015:
  2767  15B3  17C6               	bsf	___xxtofl@arg+3,7
  2768  15B4                     l3017:
  2769  15B4  0846               	movf	___xxtofl@arg+3,w
  2770  15B5  00BC               	movwf	?___xxtofl+3
  2771  15B6  0845               	movf	___xxtofl@arg+2,w
  2772  15B7  00BB               	movwf	?___xxtofl+2
  2773  15B8  0844               	movf	___xxtofl@arg+1,w
  2774  15B9  00BA               	movwf	?___xxtofl+1
  2775  15BA  0843               	movf	___xxtofl@arg,w
  2776  15BB  00B9               	movwf	?___xxtofl
  2777  15BC                     l814:
  2778  15BC  0008               	return
  2779  15BD                     __end_of___xxtofl:
  2780                           
  2781                           	psect	text4
  2782  082D                     __ptext4:	
  2783 ;; *************** function ___fltol *****************
  2784 ;; Defined at:
  2785 ;;		line 43 in file "C:\Program Files\Microchip\xc8\v2.20\pic\sources\c90\common\fltol.c"
  2786 ;; Parameters:    Size  Location     Type
  2787 ;;  f1              4   47[BANK1 ] unsigned char 
  2788 ;; Auto vars:     Size  Location     Type
  2789 ;;  exp1            1   56[BANK1 ] unsigned char 
  2790 ;;  sign1           1   55[BANK1 ] unsigned char 
  2791 ;; Return value:  Size  Location     Type
  2792 ;;                  4   47[BANK1 ] long 
  2793 ;; Registers used:
  2794 ;;		wreg, status,2, status,0, btemp+1
  2795 ;; Tracked objects:
  2796 ;;		On entry : 0/0
  2797 ;;		On exit  : 0/0
  2798 ;;		Unchanged: 0/0
  2799 ;; Data sizes:     COMMON   BANK0   BANK1   BANK3   BANK2
  2800 ;;      Params:         0       0       4       0       0
  2801 ;;      Locals:         0       0       2       0       0
  2802 ;;      Temps:          0       0       4       0       0
  2803 ;;      Totals:         0       0      10       0       0
  2804 ;;Total ram usage:       10 bytes
  2805 ;; Hardware stack levels used:    1
  2806 ;; Hardware stack levels required when called:    3
  2807 ;; This function calls:
  2808 ;;		Nothing
  2809 ;; This function is called by:
  2810 ;;		_temp_pos
  2811 ;; This function uses a non-reentrant model
  2812 ;;
  2813                           
  2814                           
  2815                           ;psect for function ___fltol
  2816  082D                     ___fltol:
  2817  082D                     l2421:	
  2818                           ;incstack = 0
  2819                           ; Regs used in ___fltol: [wreg+status,2+status,0+btemp+1]
  2820                           
  2821  082D  1003               	clrc
  2822  082E  1683               	bsf	3,5	;RP0=1, select bank1
  2823  082F  1303               	bcf	3,6	;RP1=0, select bank1
  2824  0830  0D51               	rlf	(___fltol@f1+2)^(0+128),w
  2825  0831  0D52               	rlf	(___fltol@f1+3)^(0+128),w
  2826  0832  00FF               	movwf	btemp+1
  2827  0833  087F               	movf	btemp+1,w
  2828  0834  00D8               	movwf	___fltol@exp1^(0+128)
  2829  0835  0858               	movf	___fltol@exp1^(0+128),w
  2830  0836  1D03               	btfss	3,2
  2831  0837  2839               	goto	u2131
  2832  0838  283A               	goto	u2130
  2833  0839                     u2131:
  2834  0839  2843               	goto	l2427
  2835  083A                     u2130:
  2836  083A                     l2423:
  2837  083A  3000               	movlw	0
  2838  083B  00D2               	movwf	(?___fltol+3)^(0+128)
  2839  083C  3000               	movlw	0
  2840  083D  00D1               	movwf	(?___fltol+2)^(0+128)
  2841  083E  3000               	movlw	0
  2842  083F  00D0               	movwf	(?___fltol+1)^(0+128)
  2843  0840  3000               	movlw	0
  2844  0841  00CF               	movwf	?___fltol^(0+128)
  2845  0842  28A8               	goto	l565
  2846  0843                     l2427:
  2847  0843  084F               	movf	___fltol@f1^(0+128),w
  2848  0844  00D3               	movwf	??___fltol^(0+128)
  2849  0845  0850               	movf	(___fltol@f1+1)^(0+128),w
  2850  0846  00D4               	movwf	(??___fltol^(0+128)+1)
  2851  0847  0851               	movf	(___fltol@f1+2)^(0+128),w
  2852  0848  00D5               	movwf	(??___fltol^(0+128)+2)
  2853  0849  0852               	movf	(___fltol@f1+3)^(0+128),w
  2854  084A  00D6               	movwf	(??___fltol^(0+128)+3)
  2855  084B  301F               	movlw	31
  2856  084C                     u2145:
  2857  084C  1003               	clrc
  2858  084D  0CD6               	rrf	(??___fltol^(0+128)+3),f
  2859  084E  0CD5               	rrf	(??___fltol^(0+128)+2),f
  2860  084F  0CD4               	rrf	(??___fltol^(0+128)+1),f
  2861  0850  0CD3               	rrf	??___fltol^(0+128),f
  2862  0851                     u2140:
  2863  0851  3EFF               	addlw	-1
  2864  0852  1D03               	skipz
  2865  0853  284C               	goto	u2145
  2866  0854  0853               	movf	??___fltol^(0+128),w
  2867  0855  00FF               	movwf	btemp+1
  2868  0856  087F               	movf	btemp+1,w
  2869  0857  00D7               	movwf	___fltol@sign1^(0+128)
  2870  0858                     l2429:
  2871  0858  17D1               	bsf	(___fltol@f1^(0+128)+2),7
  2872  0859                     l2431:
  2873  0859  30FF               	movlw	255
  2874  085A  05CF               	andwf	___fltol@f1^(0+128),f
  2875  085B  30FF               	movlw	255
  2876  085C  05D0               	andwf	(___fltol@f1+1)^(0+128),f
  2877  085D  30FF               	movlw	255
  2878  085E  05D1               	andwf	(___fltol@f1+2)^(0+128),f
  2879  085F  3000               	movlw	0
  2880  0860  05D2               	andwf	(___fltol@f1+3)^(0+128),f
  2881  0861                     l2433:
  2882  0861  3096               	movlw	150
  2883  0862  02D8               	subwf	___fltol@exp1^(0+128),f
  2884  0863                     l2435:
  2885  0863  1FD8               	btfss	___fltol@exp1^(0+128),7
  2886  0864  2866               	goto	u2151
  2887  0865  2867               	goto	u2150
  2888  0866                     u2151:
  2889  0866  2881               	goto	l2447
  2890  0867                     u2150:
  2891  0867                     l2437:
  2892  0867  0858               	movf	___fltol@exp1^(0+128),w
  2893  0868  3A80               	xorlw	128
  2894  0869  3E97               	addlw	151
  2895  086A  1803               	skipnc
  2896  086B  286D               	goto	u2161
  2897  086C  286E               	goto	u2160
  2898  086D                     u2161:
  2899  086D  286F               	goto	l2443
  2900  086E                     u2160:
  2901  086E  283A               	goto	l2423
  2902  086F                     l2443:
  2903  086F  3001               	movlw	1
  2904  0870                     u2175:
  2905  0870  1003               	clrc
  2906  0871  0CD2               	rrf	(___fltol@f1+3)^(0+128),f
  2907  0872  0CD1               	rrf	(___fltol@f1+2)^(0+128),f
  2908  0873  0CD0               	rrf	(___fltol@f1+1)^(0+128),f
  2909  0874  0CCF               	rrf	___fltol@f1^(0+128),f
  2910  0875  3EFF               	addlw	-1
  2911  0876  1D03               	skipz
  2912  0877  2870               	goto	u2175
  2913  0878                     l2445:
  2914  0878  3001               	movlw	1
  2915  0879  00FF               	movwf	btemp+1
  2916  087A  087F               	movf	btemp+1,w
  2917  087B  07D8               	addwf	___fltol@exp1^(0+128),f
  2918  087C  1D03               	btfss	3,2
  2919  087D  287F               	goto	u2181
  2920  087E  2880               	goto	u2180
  2921  087F                     u2181:
  2922  087F  286F               	goto	l2443
  2923  0880                     u2180:
  2924  0880  2898               	goto	l2455
  2925  0881                     l2447:
  2926  0881  3020               	movlw	32
  2927  0882  0258               	subwf	___fltol@exp1^(0+128),w
  2928  0883  1C03               	skipc
  2929  0884  2886               	goto	u2191
  2930  0885  2887               	goto	u2190
  2931  0886                     u2191:
  2932  0886  2893               	goto	l572
  2933  0887                     u2190:
  2934  0887  283A               	goto	l2423
  2935  0888                     l2453:
  2936  0888  3001               	movlw	1
  2937  0889  00D3               	movwf	??___fltol^(0+128)
  2938  088A                     u2205:
  2939  088A  1003               	clrc
  2940  088B  0DCF               	rlf	___fltol@f1^(0+128),f
  2941  088C  0DD0               	rlf	(___fltol@f1+1)^(0+128),f
  2942  088D  0DD1               	rlf	(___fltol@f1+2)^(0+128),f
  2943  088E  0DD2               	rlf	(___fltol@f1+3)^(0+128),f
  2944  088F  0BD3               	decfsz	??___fltol^(0+128),f
  2945  0890  288A               	goto	u2205
  2946  0891  3001               	movlw	1
  2947  0892  02D8               	subwf	___fltol@exp1^(0+128),f
  2948  0893                     l572:
  2949  0893  0858               	movf	___fltol@exp1^(0+128),w
  2950  0894  1D03               	btfss	3,2
  2951  0895  2897               	goto	u2211
  2952  0896  2898               	goto	u2210
  2953  0897                     u2211:
  2954  0897  2888               	goto	l2453
  2955  0898                     u2210:
  2956  0898                     l2455:
  2957  0898  0857               	movf	___fltol@sign1^(0+128),w
  2958  0899  1903               	btfsc	3,2
  2959  089A  289C               	goto	u2221
  2960  089B  289D               	goto	u2220
  2961  089C                     u2221:
  2962  089C  28A8               	goto	l575
  2963  089D                     u2220:
  2964  089D                     l2457:
  2965  089D  09CF               	comf	___fltol@f1^(0+128),f
  2966  089E  09D0               	comf	(___fltol@f1+1)^(0+128),f
  2967  089F  09D1               	comf	(___fltol@f1+2)^(0+128),f
  2968  08A0  09D2               	comf	(___fltol@f1+3)^(0+128),f
  2969  08A1  0ACF               	incf	___fltol@f1^(0+128),f
  2970  08A2  1903               	skipnz
  2971  08A3  0AD0               	incf	(___fltol@f1+1)^(0+128),f
  2972  08A4  1903               	skipnz
  2973  08A5  0AD1               	incf	(___fltol@f1+2)^(0+128),f
  2974  08A6  1903               	skipnz
  2975  08A7  0AD2               	incf	(___fltol@f1+3)^(0+128),f
  2976  08A8                     l575:
  2977  08A8                     l565:
  2978  08A8  0008               	return
  2979  08A9                     __end_of___fltol:
  2980                           
  2981                           	psect	text5
  2982  002A                     __ptext5:	
  2983 ;; *************** function ___flmul *****************
  2984 ;; Defined at:
  2985 ;;		line 8 in file "C:\Program Files\Microchip\xc8\v2.20\pic\sources\c90\common\sprcmul.c"
  2986 ;; Parameters:    Size  Location     Type
  2987 ;;  b               4   21[BANK1 ] long 
  2988 ;;  a               4   25[BANK1 ] long 
  2989 ;; Auto vars:     Size  Location     Type
  2990 ;;  prod            4   41[BANK1 ] struct .
  2991 ;;  grs             4   35[BANK1 ] unsigned long 
  2992 ;;  temp            2   45[BANK1 ] struct .
  2993 ;;  bexp            1   40[BANK1 ] unsigned char 
  2994 ;;  aexp            1   39[BANK1 ] unsigned char 
  2995 ;;  sign            1   34[BANK1 ] unsigned char 
  2996 ;; Return value:  Size  Location     Type
  2997 ;;                  4   21[BANK1 ] unsigned char 
  2998 ;; Registers used:
  2999 ;;		wreg, status,2, status,0, btemp+1, pclath, cstack
  3000 ;; Tracked objects:
  3001 ;;		On entry : 0/0
  3002 ;;		On exit  : 0/0
  3003 ;;		Unchanged: 0/0
  3004 ;; Data sizes:     COMMON   BANK0   BANK1   BANK3   BANK2
  3005 ;;      Params:         0       0       8       0       0
  3006 ;;      Locals:         0       0      13       0       0
  3007 ;;      Temps:          0       0       5       0       0
  3008 ;;      Totals:         0       0      26       0       0
  3009 ;;Total ram usage:       26 bytes
  3010 ;; Hardware stack levels used:    1
  3011 ;; Hardware stack levels required when called:    4
  3012 ;; This function calls:
  3013 ;;		__Umul8_16
  3014 ;; This function is called by:
  3015 ;;		_temp_pos
  3016 ;; This function uses a non-reentrant model
  3017 ;;
  3018                           
  3019                           
  3020                           ;psect for function ___flmul
  3021  002A                     ___flmul:
  3022  002A                     l2831:	
  3023                           ;incstack = 0
  3024                           ; Regs used in ___flmul: [wreg+status,2+status,0+btemp+1+pclath+cstack]
  3025                           
  3026  002A  1683               	bsf	3,5	;RP0=1, select bank1
  3027  002B  1303               	bcf	3,6	;RP1=0, select bank1
  3028  002C  0838               	movf	(___flmul@b^(0+128)+3),w
  3029  002D  3980               	andlw	128
  3030  002E  00FF               	movwf	btemp+1
  3031  002F  087F               	movf	btemp+1,w
  3032  0030  00C2               	movwf	___flmul@sign^(0+128)
  3033  0031                     l2833:
  3034  0031  0838               	movf	(___flmul@b^(0+128)+3),w
  3035  0032  00BD               	movwf	??___flmul^(0+128)
  3036  0033  073D               	addwf	??___flmul^(0+128),w
  3037  0034  00FF               	movwf	btemp+1
  3038  0035  087F               	movf	btemp+1,w
  3039  0036  00C8               	movwf	___flmul@bexp^(0+128)
  3040  0037                     l2835:
  3041  0037  1FB7               	btfss	(___flmul@b^(0+128)+2),7
  3042  0038  283A               	goto	u3051
  3043  0039  283B               	goto	u3050
  3044  003A                     u3051:
  3045  003A  283C               	goto	l2839
  3046  003B                     u3050:
  3047  003B                     l2837:
  3048  003B  1448               	bsf	___flmul@bexp^(0+128),0
  3049  003C                     l2839:
  3050  003C  0848               	movf	___flmul@bexp^(0+128),w
  3051  003D  1903               	btfsc	3,2
  3052  003E  2840               	goto	u3061
  3053  003F  2841               	goto	u3060
  3054  0040                     u3061:
  3055  0040  2850               	goto	l2847
  3056  0041                     u3060:
  3057  0041                     l2841:
  3058  0041  0A48               	incf	___flmul@bexp^(0+128),w
  3059  0042  1D03               	btfss	3,2
  3060  0043  2845               	goto	u3071
  3061  0044  2846               	goto	u3070
  3062  0045                     u3071:
  3063  0045  284E               	goto	l2845
  3064  0046                     u3070:
  3065  0046                     l2843:
  3066  0046  3000               	movlw	0
  3067  0047  00B8               	movwf	(___flmul@b+3)^(0+128)
  3068  0048  3000               	movlw	0
  3069  0049  00B7               	movwf	(___flmul@b+2)^(0+128)
  3070  004A  3000               	movlw	0
  3071  004B  00B6               	movwf	(___flmul@b+1)^(0+128)
  3072  004C  3000               	movlw	0
  3073  004D  00B5               	movwf	___flmul@b^(0+128)
  3074  004E                     l2845:
  3075  004E  17B7               	bsf	(___flmul@b^(0+128)+2),7
  3076  004F  2858               	goto	l2849
  3077  0050                     l2847:
  3078  0050  3000               	movlw	0
  3079  0051  00B8               	movwf	(___flmul@b+3)^(0+128)
  3080  0052  3000               	movlw	0
  3081  0053  00B7               	movwf	(___flmul@b+2)^(0+128)
  3082  0054  3000               	movlw	0
  3083  0055  00B6               	movwf	(___flmul@b+1)^(0+128)
  3084  0056  3000               	movlw	0
  3085  0057  00B5               	movwf	___flmul@b^(0+128)
  3086  0058                     l2849:
  3087  0058  083C               	movf	(___flmul@a^(0+128)+3),w
  3088  0059  3980               	andlw	128
  3089  005A  00FF               	movwf	btemp+1
  3090  005B  087F               	movf	btemp+1,w
  3091  005C  06C2               	xorwf	___flmul@sign^(0+128),f
  3092  005D                     l2851:
  3093  005D  083C               	movf	(___flmul@a^(0+128)+3),w
  3094  005E  00BD               	movwf	??___flmul^(0+128)
  3095  005F  073D               	addwf	??___flmul^(0+128),w
  3096  0060  00FF               	movwf	btemp+1
  3097  0061  087F               	movf	btemp+1,w
  3098  0062  00C7               	movwf	___flmul@aexp^(0+128)
  3099  0063                     l2853:
  3100  0063  1FBB               	btfss	(___flmul@a^(0+128)+2),7
  3101  0064  2866               	goto	u3081
  3102  0065  2867               	goto	u3080
  3103  0066                     u3081:
  3104  0066  2868               	goto	l2857
  3105  0067                     u3080:
  3106  0067                     l2855:
  3107  0067  1447               	bsf	___flmul@aexp^(0+128),0
  3108  0068                     l2857:
  3109  0068  0847               	movf	___flmul@aexp^(0+128),w
  3110  0069  1903               	btfsc	3,2
  3111  006A  286C               	goto	u3091
  3112  006B  286D               	goto	u3090
  3113  006C                     u3091:
  3114  006C  287C               	goto	l2865
  3115  006D                     u3090:
  3116  006D                     l2859:
  3117  006D  0A47               	incf	___flmul@aexp^(0+128),w
  3118  006E  1D03               	btfss	3,2
  3119  006F  2871               	goto	u3101
  3120  0070  2872               	goto	u3100
  3121  0071                     u3101:
  3122  0071  287A               	goto	l2863
  3123  0072                     u3100:
  3124  0072                     l2861:
  3125  0072  3000               	movlw	0
  3126  0073  00BC               	movwf	(___flmul@a+3)^(0+128)
  3127  0074  3000               	movlw	0
  3128  0075  00BB               	movwf	(___flmul@a+2)^(0+128)
  3129  0076  3000               	movlw	0
  3130  0077  00BA               	movwf	(___flmul@a+1)^(0+128)
  3131  0078  3000               	movlw	0
  3132  0079  00B9               	movwf	___flmul@a^(0+128)
  3133  007A                     l2863:
  3134  007A  17BB               	bsf	(___flmul@a^(0+128)+2),7
  3135  007B  2884               	goto	l2867
  3136  007C                     l2865:
  3137  007C  3000               	movlw	0
  3138  007D  00BC               	movwf	(___flmul@a+3)^(0+128)
  3139  007E  3000               	movlw	0
  3140  007F  00BB               	movwf	(___flmul@a+2)^(0+128)
  3141  0080  3000               	movlw	0
  3142  0081  00BA               	movwf	(___flmul@a+1)^(0+128)
  3143  0082  3000               	movlw	0
  3144  0083  00B9               	movwf	___flmul@a^(0+128)
  3145  0084                     l2867:
  3146  0084  0847               	movf	___flmul@aexp^(0+128),w
  3147  0085  1903               	btfsc	3,2
  3148  0086  2888               	goto	u3111
  3149  0087  2889               	goto	u3110
  3150  0088                     u3111:
  3151  0088  288E               	goto	l2871
  3152  0089                     u3110:
  3153  0089                     l2869:
  3154  0089  0848               	movf	___flmul@bexp^(0+128),w
  3155  008A  1D03               	btfss	3,2
  3156  008B  288D               	goto	u3121
  3157  008C  288E               	goto	u3120
  3158  008D                     u3121:
  3159  008D  2897               	goto	l2875
  3160  008E                     u3120:
  3161  008E                     l2871:
  3162  008E  3000               	movlw	0
  3163  008F  00B8               	movwf	(?___flmul+3)^(0+128)
  3164  0090  3000               	movlw	0
  3165  0091  00B7               	movwf	(?___flmul+2)^(0+128)
  3166  0092  3000               	movlw	0
  3167  0093  00B6               	movwf	(?___flmul+1)^(0+128)
  3168  0094  3000               	movlw	0
  3169  0095  00B5               	movwf	?___flmul^(0+128)
  3170  0096  2BE4               	goto	l768
  3171  0097                     l2875:
  3172  0097  0835               	movf	___flmul@b^(0+128),w
  3173  0098  00FF               	movwf	btemp+1
  3174  0099  087F               	movf	btemp+1,w
  3175  009A  1283               	bcf	3,5	;RP0=0, select bank0
  3176  009B  1303               	bcf	3,6	;RP1=0, select bank0
  3177  009C  00AB               	movwf	__Umul8_16@multiplicand
  3178  009D  1683               	bsf	3,5	;RP0=1, select bank1
  3179  009E  1303               	bcf	3,6	;RP1=0, select bank1
  3180  009F  083B               	movf	(___flmul@a^(0+128)+2),w
  3181  00A0  120A  158A  2004  120A  118A  	fcall	__Umul8_16
  3182  00A5  1283               	bcf	3,5	;RP0=0, select bank0
  3183  00A6  1303               	bcf	3,6	;RP1=0, select bank0
  3184  00A7  082C               	movf	?__Umul8_16+1,w
  3185  00A8  1683               	bsf	3,5	;RP0=1, select bank1
  3186  00A9  1303               	bcf	3,6	;RP1=0, select bank1
  3187  00AA  00CE               	movwf	(___flmul@temp+1)^(0+128)
  3188  00AB  1283               	bcf	3,5	;RP0=0, select bank0
  3189  00AC  1303               	bcf	3,6	;RP1=0, select bank0
  3190  00AD  082B               	movf	?__Umul8_16,w
  3191  00AE  1683               	bsf	3,5	;RP0=1, select bank1
  3192  00AF  1303               	bcf	3,6	;RP1=0, select bank1
  3193  00B0  00CD               	movwf	___flmul@temp^(0+128)
  3194  00B1                     l2877:
  3195  00B1  084D               	movf	___flmul@temp^(0+128),w
  3196  00B2  00BD               	movwf	??___flmul^(0+128)
  3197  00B3  01BE               	clrf	(??___flmul^(0+128)+1)
  3198  00B4  01BF               	clrf	(??___flmul^(0+128)+2)
  3199  00B5  01C0               	clrf	(??___flmul^(0+128)+3)
  3200  00B6  0840               	movf	(??___flmul+3)^(0+128),w
  3201  00B7  00C6               	movwf	(___flmul@grs+3)^(0+128)
  3202  00B8  083F               	movf	(??___flmul+2)^(0+128),w
  3203  00B9  00C5               	movwf	(___flmul@grs+2)^(0+128)
  3204  00BA  083E               	movf	(??___flmul+1)^(0+128),w
  3205  00BB  00C4               	movwf	(___flmul@grs+1)^(0+128)
  3206  00BC  083D               	movf	??___flmul^(0+128),w
  3207  00BD  00C3               	movwf	___flmul@grs^(0+128)
  3208  00BE                     l2879:
  3209  00BE  084E               	movf	(___flmul@temp^(0+128)+1),w
  3210  00BF  00BD               	movwf	??___flmul^(0+128)
  3211  00C0  01BE               	clrf	(??___flmul^(0+128)+1)
  3212  00C1  01BF               	clrf	(??___flmul^(0+128)+2)
  3213  00C2  01C0               	clrf	(??___flmul^(0+128)+3)
  3214  00C3  0840               	movf	(??___flmul+3)^(0+128),w
  3215  00C4  00CC               	movwf	(___flmul@prod+3)^(0+128)
  3216  00C5  083F               	movf	(??___flmul+2)^(0+128),w
  3217  00C6  00CB               	movwf	(___flmul@prod+2)^(0+128)
  3218  00C7  083E               	movf	(??___flmul+1)^(0+128),w
  3219  00C8  00CA               	movwf	(___flmul@prod+1)^(0+128)
  3220  00C9  083D               	movf	??___flmul^(0+128),w
  3221  00CA  00C9               	movwf	___flmul@prod^(0+128)
  3222  00CB  0836               	movf	(___flmul@b^(0+128)+1),w
  3223  00CC  00FF               	movwf	btemp+1
  3224  00CD  087F               	movf	btemp+1,w
  3225  00CE  1283               	bcf	3,5	;RP0=0, select bank0
  3226  00CF  1303               	bcf	3,6	;RP1=0, select bank0
  3227  00D0  00AB               	movwf	__Umul8_16@multiplicand
  3228  00D1  1683               	bsf	3,5	;RP0=1, select bank1
  3229  00D2  1303               	bcf	3,6	;RP1=0, select bank1
  3230  00D3  083A               	movf	(___flmul@a^(0+128)+1),w
  3231  00D4  120A  158A  2004  120A  118A  	fcall	__Umul8_16
  3232  00D9  1283               	bcf	3,5	;RP0=0, select bank0
  3233  00DA  1303               	bcf	3,6	;RP1=0, select bank0
  3234  00DB  082C               	movf	?__Umul8_16+1,w
  3235  00DC  1683               	bsf	3,5	;RP0=1, select bank1
  3236  00DD  1303               	bcf	3,6	;RP1=0, select bank1
  3237  00DE  00CE               	movwf	(___flmul@temp+1)^(0+128)
  3238  00DF  1283               	bcf	3,5	;RP0=0, select bank0
  3239  00E0  1303               	bcf	3,6	;RP1=0, select bank0
  3240  00E1  082B               	movf	?__Umul8_16,w
  3241  00E2  1683               	bsf	3,5	;RP0=1, select bank1
  3242  00E3  1303               	bcf	3,6	;RP1=0, select bank1
  3243  00E4  00CD               	movwf	___flmul@temp^(0+128)
  3244  00E5                     l2881:
  3245  00E5  084D               	movf	___flmul@temp^(0+128),w
  3246  00E6  00BD               	movwf	??___flmul^(0+128)
  3247  00E7  01BE               	clrf	(??___flmul^(0+128)+1)
  3248  00E8  01BF               	clrf	(??___flmul^(0+128)+2)
  3249  00E9  01C0               	clrf	(??___flmul^(0+128)+3)
  3250  00EA  083D               	movf	??___flmul^(0+128),w
  3251  00EB  07C3               	addwf	___flmul@grs^(0+128),f
  3252  00EC  083E               	movf	(??___flmul+1)^(0+128),w
  3253  00ED  1103               	clrz
  3254  00EE  1803               	skipnc
  3255  00EF  3E01               	addlw	1
  3256  00F0  1903               	skipnz
  3257  00F1  28F3               	goto	u3131
  3258  00F2  07C4               	addwf	(___flmul@grs+1)^(0+128),f
  3259  00F3                     u3131:
  3260  00F3  083F               	movf	(??___flmul+2)^(0+128),w
  3261  00F4  1103               	clrz
  3262  00F5  1803               	skipnc
  3263  00F6  3E01               	addlw	1
  3264  00F7  1903               	skipnz
  3265  00F8  28FA               	goto	u3132
  3266  00F9  07C5               	addwf	(___flmul@grs+2)^(0+128),f
  3267  00FA                     u3132:
  3268  00FA  0840               	movf	(??___flmul+3)^(0+128),w
  3269  00FB  1103               	clrz
  3270  00FC  1803               	skipnc
  3271  00FD  3E01               	addlw	1
  3272  00FE  1903               	skipnz
  3273  00FF  2901               	goto	u3133
  3274  0100  07C6               	addwf	(___flmul@grs+3)^(0+128),f
  3275  0101                     u3133:
  3276  0101                     l2883:
  3277  0101  084E               	movf	(___flmul@temp^(0+128)+1),w
  3278  0102  00BD               	movwf	??___flmul^(0+128)
  3279  0103  01BE               	clrf	(??___flmul^(0+128)+1)
  3280  0104  01BF               	clrf	(??___flmul^(0+128)+2)
  3281  0105  01C0               	clrf	(??___flmul^(0+128)+3)
  3282  0106  083D               	movf	??___flmul^(0+128),w
  3283  0107  07C9               	addwf	___flmul@prod^(0+128),f
  3284  0108  083E               	movf	(??___flmul+1)^(0+128),w
  3285  0109  1103               	clrz
  3286  010A  1803               	skipnc
  3287  010B  3E01               	addlw	1
  3288  010C  1903               	skipnz
  3289  010D  290F               	goto	u3141
  3290  010E  07CA               	addwf	(___flmul@prod+1)^(0+128),f
  3291  010F                     u3141:
  3292  010F  083F               	movf	(??___flmul+2)^(0+128),w
  3293  0110  1103               	clrz
  3294  0111  1803               	skipnc
  3295  0112  3E01               	addlw	1
  3296  0113  1903               	skipnz
  3297  0114  2916               	goto	u3142
  3298  0115  07CB               	addwf	(___flmul@prod+2)^(0+128),f
  3299  0116                     u3142:
  3300  0116  0840               	movf	(??___flmul+3)^(0+128),w
  3301  0117  1103               	clrz
  3302  0118  1803               	skipnc
  3303  0119  3E01               	addlw	1
  3304  011A  1903               	skipnz
  3305  011B  291D               	goto	u3143
  3306  011C  07CC               	addwf	(___flmul@prod+3)^(0+128),f
  3307  011D                     u3143:
  3308  011D  0837               	movf	(___flmul@b^(0+128)+2),w
  3309  011E  00FF               	movwf	btemp+1
  3310  011F  087F               	movf	btemp+1,w
  3311  0120  1283               	bcf	3,5	;RP0=0, select bank0
  3312  0121  1303               	bcf	3,6	;RP1=0, select bank0
  3313  0122  00AB               	movwf	__Umul8_16@multiplicand
  3314  0123  1683               	bsf	3,5	;RP0=1, select bank1
  3315  0124  1303               	bcf	3,6	;RP1=0, select bank1
  3316  0125  0839               	movf	___flmul@a^(0+128),w
  3317  0126  120A  158A  2004  120A  118A  	fcall	__Umul8_16
  3318  012B  1283               	bcf	3,5	;RP0=0, select bank0
  3319  012C  1303               	bcf	3,6	;RP1=0, select bank0
  3320  012D  082C               	movf	?__Umul8_16+1,w
  3321  012E  1683               	bsf	3,5	;RP0=1, select bank1
  3322  012F  1303               	bcf	3,6	;RP1=0, select bank1
  3323  0130  00CE               	movwf	(___flmul@temp+1)^(0+128)
  3324  0131  1283               	bcf	3,5	;RP0=0, select bank0
  3325  0132  1303               	bcf	3,6	;RP1=0, select bank0
  3326  0133  082B               	movf	?__Umul8_16,w
  3327  0134  1683               	bsf	3,5	;RP0=1, select bank1
  3328  0135  1303               	bcf	3,6	;RP1=0, select bank1
  3329  0136  00CD               	movwf	___flmul@temp^(0+128)
  3330  0137                     l2885:
  3331  0137  084D               	movf	___flmul@temp^(0+128),w
  3332  0138  00BD               	movwf	??___flmul^(0+128)
  3333  0139  01BE               	clrf	(??___flmul^(0+128)+1)
  3334  013A  01BF               	clrf	(??___flmul^(0+128)+2)
  3335  013B  01C0               	clrf	(??___flmul^(0+128)+3)
  3336  013C  083D               	movf	??___flmul^(0+128),w
  3337  013D  07C3               	addwf	___flmul@grs^(0+128),f
  3338  013E  083E               	movf	(??___flmul+1)^(0+128),w
  3339  013F  1103               	clrz
  3340  0140  1803               	skipnc
  3341  0141  3E01               	addlw	1
  3342  0142  1903               	skipnz
  3343  0143  2945               	goto	u3151
  3344  0144  07C4               	addwf	(___flmul@grs+1)^(0+128),f
  3345  0145                     u3151:
  3346  0145  083F               	movf	(??___flmul+2)^(0+128),w
  3347  0146  1103               	clrz
  3348  0147  1803               	skipnc
  3349  0148  3E01               	addlw	1
  3350  0149  1903               	skipnz
  3351  014A  294C               	goto	u3152
  3352  014B  07C5               	addwf	(___flmul@grs+2)^(0+128),f
  3353  014C                     u3152:
  3354  014C  0840               	movf	(??___flmul+3)^(0+128),w
  3355  014D  1103               	clrz
  3356  014E  1803               	skipnc
  3357  014F  3E01               	addlw	1
  3358  0150  1903               	skipnz
  3359  0151  2953               	goto	u3153
  3360  0152  07C6               	addwf	(___flmul@grs+3)^(0+128),f
  3361  0153                     u3153:
  3362  0153                     l2887:
  3363  0153  084E               	movf	(___flmul@temp^(0+128)+1),w
  3364  0154  00BD               	movwf	??___flmul^(0+128)
  3365  0155  01BE               	clrf	(??___flmul^(0+128)+1)
  3366  0156  01BF               	clrf	(??___flmul^(0+128)+2)
  3367  0157  01C0               	clrf	(??___flmul^(0+128)+3)
  3368  0158  083D               	movf	??___flmul^(0+128),w
  3369  0159  07C9               	addwf	___flmul@prod^(0+128),f
  3370  015A  083E               	movf	(??___flmul+1)^(0+128),w
  3371  015B  1103               	clrz
  3372  015C  1803               	skipnc
  3373  015D  3E01               	addlw	1
  3374  015E  1903               	skipnz
  3375  015F  2961               	goto	u3161
  3376  0160  07CA               	addwf	(___flmul@prod+1)^(0+128),f
  3377  0161                     u3161:
  3378  0161  083F               	movf	(??___flmul+2)^(0+128),w
  3379  0162  1103               	clrz
  3380  0163  1803               	skipnc
  3381  0164  3E01               	addlw	1
  3382  0165  1903               	skipnz
  3383  0166  2968               	goto	u3162
  3384  0167  07CB               	addwf	(___flmul@prod+2)^(0+128),f
  3385  0168                     u3162:
  3386  0168  0840               	movf	(??___flmul+3)^(0+128),w
  3387  0169  1103               	clrz
  3388  016A  1803               	skipnc
  3389  016B  3E01               	addlw	1
  3390  016C  1903               	skipnz
  3391  016D  296F               	goto	u3163
  3392  016E  07CC               	addwf	(___flmul@prod+3)^(0+128),f
  3393  016F                     u3163:
  3394  016F                     l2889:
  3395  016F  3008               	movlw	8
  3396  0170  00BD               	movwf	??___flmul^(0+128)
  3397  0171                     u3175:
  3398  0171  1003               	clrc
  3399  0172  0DC3               	rlf	___flmul@grs^(0+128),f
  3400  0173  0DC4               	rlf	(___flmul@grs+1)^(0+128),f
  3401  0174  0DC5               	rlf	(___flmul@grs+2)^(0+128),f
  3402  0175  0DC6               	rlf	(___flmul@grs+3)^(0+128),f
  3403  0176  0BBD               	decfsz	??___flmul^(0+128),f
  3404  0177  2971               	goto	u3175
  3405  0178                     l2891:
  3406  0178  0836               	movf	(___flmul@b^(0+128)+1),w
  3407  0179  00FF               	movwf	btemp+1
  3408  017A  087F               	movf	btemp+1,w
  3409  017B  1283               	bcf	3,5	;RP0=0, select bank0
  3410  017C  1303               	bcf	3,6	;RP1=0, select bank0
  3411  017D  00AB               	movwf	__Umul8_16@multiplicand
  3412  017E  1683               	bsf	3,5	;RP0=1, select bank1
  3413  017F  1303               	bcf	3,6	;RP1=0, select bank1
  3414  0180  0839               	movf	___flmul@a^(0+128),w
  3415  0181  120A  158A  2004  120A  118A  	fcall	__Umul8_16
  3416  0186  1283               	bcf	3,5	;RP0=0, select bank0
  3417  0187  1303               	bcf	3,6	;RP1=0, select bank0
  3418  0188  082C               	movf	?__Umul8_16+1,w
  3419  0189  1683               	bsf	3,5	;RP0=1, select bank1
  3420  018A  1303               	bcf	3,6	;RP1=0, select bank1
  3421  018B  00CE               	movwf	(___flmul@temp+1)^(0+128)
  3422  018C  1283               	bcf	3,5	;RP0=0, select bank0
  3423  018D  1303               	bcf	3,6	;RP1=0, select bank0
  3424  018E  082B               	movf	?__Umul8_16,w
  3425  018F  1683               	bsf	3,5	;RP0=1, select bank1
  3426  0190  1303               	bcf	3,6	;RP1=0, select bank1
  3427  0191  00CD               	movwf	___flmul@temp^(0+128)
  3428  0192                     l2893:
  3429  0192  084D               	movf	___flmul@temp^(0+128),w
  3430  0193  00BD               	movwf	??___flmul^(0+128)
  3431  0194  084E               	movf	(___flmul@temp+1)^(0+128),w
  3432  0195  00BE               	movwf	(??___flmul^(0+128)+1)
  3433  0196  01BF               	clrf	(??___flmul^(0+128)+2)
  3434  0197  01C0               	clrf	(??___flmul^(0+128)+3)
  3435  0198  083D               	movf	??___flmul^(0+128),w
  3436  0199  07C3               	addwf	___flmul@grs^(0+128),f
  3437  019A  083E               	movf	(??___flmul+1)^(0+128),w
  3438  019B  1103               	clrz
  3439  019C  1803               	skipnc
  3440  019D  3E01               	addlw	1
  3441  019E  1903               	skipnz
  3442  019F  29A1               	goto	u3181
  3443  01A0  07C4               	addwf	(___flmul@grs+1)^(0+128),f
  3444  01A1                     u3181:
  3445  01A1  083F               	movf	(??___flmul+2)^(0+128),w
  3446  01A2  1103               	clrz
  3447  01A3  1803               	skipnc
  3448  01A4  3E01               	addlw	1
  3449  01A5  1903               	skipnz
  3450  01A6  29A8               	goto	u3182
  3451  01A7  07C5               	addwf	(___flmul@grs+2)^(0+128),f
  3452  01A8                     u3182:
  3453  01A8  0840               	movf	(??___flmul+3)^(0+128),w
  3454  01A9  1103               	clrz
  3455  01AA  1803               	skipnc
  3456  01AB  3E01               	addlw	1
  3457  01AC  1903               	skipnz
  3458  01AD  29AF               	goto	u3183
  3459  01AE  07C6               	addwf	(___flmul@grs+3)^(0+128),f
  3460  01AF                     u3183:
  3461  01AF                     l2895:
  3462  01AF  0835               	movf	___flmul@b^(0+128),w
  3463  01B0  00FF               	movwf	btemp+1
  3464  01B1  087F               	movf	btemp+1,w
  3465  01B2  1283               	bcf	3,5	;RP0=0, select bank0
  3466  01B3  1303               	bcf	3,6	;RP1=0, select bank0
  3467  01B4  00AB               	movwf	__Umul8_16@multiplicand
  3468  01B5  1683               	bsf	3,5	;RP0=1, select bank1
  3469  01B6  1303               	bcf	3,6	;RP1=0, select bank1
  3470  01B7  083A               	movf	(___flmul@a^(0+128)+1),w
  3471  01B8  120A  158A  2004  120A  118A  	fcall	__Umul8_16
  3472  01BD  1283               	bcf	3,5	;RP0=0, select bank0
  3473  01BE  1303               	bcf	3,6	;RP1=0, select bank0
  3474  01BF  082C               	movf	?__Umul8_16+1,w
  3475  01C0  1683               	bsf	3,5	;RP0=1, select bank1
  3476  01C1  1303               	bcf	3,6	;RP1=0, select bank1
  3477  01C2  00CE               	movwf	(___flmul@temp+1)^(0+128)
  3478  01C3  1283               	bcf	3,5	;RP0=0, select bank0
  3479  01C4  1303               	bcf	3,6	;RP1=0, select bank0
  3480  01C5  082B               	movf	?__Umul8_16,w
  3481  01C6  1683               	bsf	3,5	;RP0=1, select bank1
  3482  01C7  1303               	bcf	3,6	;RP1=0, select bank1
  3483  01C8  00CD               	movwf	___flmul@temp^(0+128)
  3484  01C9                     l2897:
  3485  01C9  084D               	movf	___flmul@temp^(0+128),w
  3486  01CA  00BD               	movwf	??___flmul^(0+128)
  3487  01CB  084E               	movf	(___flmul@temp+1)^(0+128),w
  3488  01CC  00BE               	movwf	(??___flmul^(0+128)+1)
  3489  01CD  01BF               	clrf	(??___flmul^(0+128)+2)
  3490  01CE  01C0               	clrf	(??___flmul^(0+128)+3)
  3491  01CF  083D               	movf	??___flmul^(0+128),w
  3492  01D0  07C3               	addwf	___flmul@grs^(0+128),f
  3493  01D1  083E               	movf	(??___flmul+1)^(0+128),w
  3494  01D2  1103               	clrz
  3495  01D3  1803               	skipnc
  3496  01D4  3E01               	addlw	1
  3497  01D5  1903               	skipnz
  3498  01D6  29D8               	goto	u3191
  3499  01D7  07C4               	addwf	(___flmul@grs+1)^(0+128),f
  3500  01D8                     u3191:
  3501  01D8  083F               	movf	(??___flmul+2)^(0+128),w
  3502  01D9  1103               	clrz
  3503  01DA  1803               	skipnc
  3504  01DB  3E01               	addlw	1
  3505  01DC  1903               	skipnz
  3506  01DD  29DF               	goto	u3192
  3507  01DE  07C5               	addwf	(___flmul@grs+2)^(0+128),f
  3508  01DF                     u3192:
  3509  01DF  0840               	movf	(??___flmul+3)^(0+128),w
  3510  01E0  1103               	clrz
  3511  01E1  1803               	skipnc
  3512  01E2  3E01               	addlw	1
  3513  01E3  1903               	skipnz
  3514  01E4  29E6               	goto	u3193
  3515  01E5  07C6               	addwf	(___flmul@grs+3)^(0+128),f
  3516  01E6                     u3193:
  3517  01E6                     l2899:
  3518  01E6  3008               	movlw	8
  3519  01E7  00BD               	movwf	??___flmul^(0+128)
  3520  01E8                     u3205:
  3521  01E8  1003               	clrc
  3522  01E9  0DC3               	rlf	___flmul@grs^(0+128),f
  3523  01EA  0DC4               	rlf	(___flmul@grs+1)^(0+128),f
  3524  01EB  0DC5               	rlf	(___flmul@grs+2)^(0+128),f
  3525  01EC  0DC6               	rlf	(___flmul@grs+3)^(0+128),f
  3526  01ED  0BBD               	decfsz	??___flmul^(0+128),f
  3527  01EE  29E8               	goto	u3205
  3528  01EF  0835               	movf	___flmul@b^(0+128),w
  3529  01F0  00FF               	movwf	btemp+1
  3530  01F1  087F               	movf	btemp+1,w
  3531  01F2  1283               	bcf	3,5	;RP0=0, select bank0
  3532  01F3  1303               	bcf	3,6	;RP1=0, select bank0
  3533  01F4  00AB               	movwf	__Umul8_16@multiplicand
  3534  01F5  1683               	bsf	3,5	;RP0=1, select bank1
  3535  01F6  1303               	bcf	3,6	;RP1=0, select bank1
  3536  01F7  0839               	movf	___flmul@a^(0+128),w
  3537  01F8  120A  158A  2004  120A  118A  	fcall	__Umul8_16
  3538  01FD  1283               	bcf	3,5	;RP0=0, select bank0
  3539  01FE  1303               	bcf	3,6	;RP1=0, select bank0
  3540  01FF  082C               	movf	?__Umul8_16+1,w
  3541  0200  1683               	bsf	3,5	;RP0=1, select bank1
  3542  0201  1303               	bcf	3,6	;RP1=0, select bank1
  3543  0202  00CE               	movwf	(___flmul@temp+1)^(0+128)
  3544  0203  1283               	bcf	3,5	;RP0=0, select bank0
  3545  0204  1303               	bcf	3,6	;RP1=0, select bank0
  3546  0205  082B               	movf	?__Umul8_16,w
  3547  0206  1683               	bsf	3,5	;RP0=1, select bank1
  3548  0207  1303               	bcf	3,6	;RP1=0, select bank1
  3549  0208  00CD               	movwf	___flmul@temp^(0+128)
  3550  0209                     l2901:
  3551  0209  084D               	movf	___flmul@temp^(0+128),w
  3552  020A  00BD               	movwf	??___flmul^(0+128)
  3553  020B  084E               	movf	(___flmul@temp+1)^(0+128),w
  3554  020C  00BE               	movwf	(??___flmul^(0+128)+1)
  3555  020D  01BF               	clrf	(??___flmul^(0+128)+2)
  3556  020E  01C0               	clrf	(??___flmul^(0+128)+3)
  3557  020F  083D               	movf	??___flmul^(0+128),w
  3558  0210  07C3               	addwf	___flmul@grs^(0+128),f
  3559  0211  083E               	movf	(??___flmul+1)^(0+128),w
  3560  0212  1103               	clrz
  3561  0213  1803               	skipnc
  3562  0214  3E01               	addlw	1
  3563  0215  1903               	skipnz
  3564  0216  2A18               	goto	u3211
  3565  0217  07C4               	addwf	(___flmul@grs+1)^(0+128),f
  3566  0218                     u3211:
  3567  0218  083F               	movf	(??___flmul+2)^(0+128),w
  3568  0219  1103               	clrz
  3569  021A  1803               	skipnc
  3570  021B  3E01               	addlw	1
  3571  021C  1903               	skipnz
  3572  021D  2A1F               	goto	u3212
  3573  021E  07C5               	addwf	(___flmul@grs+2)^(0+128),f
  3574  021F                     u3212:
  3575  021F  0840               	movf	(??___flmul+3)^(0+128),w
  3576  0220  1103               	clrz
  3577  0221  1803               	skipnc
  3578  0222  3E01               	addlw	1
  3579  0223  1903               	skipnz
  3580  0224  2A26               	goto	u3213
  3581  0225  07C6               	addwf	(___flmul@grs+3)^(0+128),f
  3582  0226                     u3213:
  3583  0226                     l2903:
  3584  0226  0836               	movf	(___flmul@b^(0+128)+1),w
  3585  0227  00FF               	movwf	btemp+1
  3586  0228  087F               	movf	btemp+1,w
  3587  0229  1283               	bcf	3,5	;RP0=0, select bank0
  3588  022A  1303               	bcf	3,6	;RP1=0, select bank0
  3589  022B  00AB               	movwf	__Umul8_16@multiplicand
  3590  022C  1683               	bsf	3,5	;RP0=1, select bank1
  3591  022D  1303               	bcf	3,6	;RP1=0, select bank1
  3592  022E  083B               	movf	(___flmul@a^(0+128)+2),w
  3593  022F  120A  158A  2004  120A  118A  	fcall	__Umul8_16
  3594  0234  1283               	bcf	3,5	;RP0=0, select bank0
  3595  0235  1303               	bcf	3,6	;RP1=0, select bank0
  3596  0236  082C               	movf	?__Umul8_16+1,w
  3597  0237  1683               	bsf	3,5	;RP0=1, select bank1
  3598  0238  1303               	bcf	3,6	;RP1=0, select bank1
  3599  0239  00CE               	movwf	(___flmul@temp+1)^(0+128)
  3600  023A  1283               	bcf	3,5	;RP0=0, select bank0
  3601  023B  1303               	bcf	3,6	;RP1=0, select bank0
  3602  023C  082B               	movf	?__Umul8_16,w
  3603  023D  1683               	bsf	3,5	;RP0=1, select bank1
  3604  023E  1303               	bcf	3,6	;RP1=0, select bank1
  3605  023F  00CD               	movwf	___flmul@temp^(0+128)
  3606  0240  084D               	movf	___flmul@temp^(0+128),w
  3607  0241  00BD               	movwf	??___flmul^(0+128)
  3608  0242  084E               	movf	(___flmul@temp+1)^(0+128),w
  3609  0243  00BE               	movwf	(??___flmul^(0+128)+1)
  3610  0244  01BF               	clrf	(??___flmul^(0+128)+2)
  3611  0245  01C0               	clrf	(??___flmul^(0+128)+3)
  3612  0246  083D               	movf	??___flmul^(0+128),w
  3613  0247  07C9               	addwf	___flmul@prod^(0+128),f
  3614  0248  083E               	movf	(??___flmul+1)^(0+128),w
  3615  0249  1103               	clrz
  3616  024A  1803               	skipnc
  3617  024B  3E01               	addlw	1
  3618  024C  1903               	skipnz
  3619  024D  2A4F               	goto	u3221
  3620  024E  07CA               	addwf	(___flmul@prod+1)^(0+128),f
  3621  024F                     u3221:
  3622  024F  083F               	movf	(??___flmul+2)^(0+128),w
  3623  0250  1103               	clrz
  3624  0251  1803               	skipnc
  3625  0252  3E01               	addlw	1
  3626  0253  1903               	skipnz
  3627  0254  2A56               	goto	u3222
  3628  0255  07CB               	addwf	(___flmul@prod+2)^(0+128),f
  3629  0256                     u3222:
  3630  0256  0840               	movf	(??___flmul+3)^(0+128),w
  3631  0257  1103               	clrz
  3632  0258  1803               	skipnc
  3633  0259  3E01               	addlw	1
  3634  025A  1903               	skipnz
  3635  025B  2A5D               	goto	u3223
  3636  025C  07CC               	addwf	(___flmul@prod+3)^(0+128),f
  3637  025D                     u3223:
  3638  025D                     l2905:
  3639  025D  0837               	movf	(___flmul@b^(0+128)+2),w
  3640  025E  00FF               	movwf	btemp+1
  3641  025F  087F               	movf	btemp+1,w
  3642  0260  1283               	bcf	3,5	;RP0=0, select bank0
  3643  0261  1303               	bcf	3,6	;RP1=0, select bank0
  3644  0262  00AB               	movwf	__Umul8_16@multiplicand
  3645  0263  1683               	bsf	3,5	;RP0=1, select bank1
  3646  0264  1303               	bcf	3,6	;RP1=0, select bank1
  3647  0265  083A               	movf	(___flmul@a^(0+128)+1),w
  3648  0266  120A  158A  2004  120A  118A  	fcall	__Umul8_16
  3649  026B  1283               	bcf	3,5	;RP0=0, select bank0
  3650  026C  1303               	bcf	3,6	;RP1=0, select bank0
  3651  026D  082C               	movf	?__Umul8_16+1,w
  3652  026E  1683               	bsf	3,5	;RP0=1, select bank1
  3653  026F  1303               	bcf	3,6	;RP1=0, select bank1
  3654  0270  00CE               	movwf	(___flmul@temp+1)^(0+128)
  3655  0271  1283               	bcf	3,5	;RP0=0, select bank0
  3656  0272  1303               	bcf	3,6	;RP1=0, select bank0
  3657  0273  082B               	movf	?__Umul8_16,w
  3658  0274  1683               	bsf	3,5	;RP0=1, select bank1
  3659  0275  1303               	bcf	3,6	;RP1=0, select bank1
  3660  0276  00CD               	movwf	___flmul@temp^(0+128)
  3661  0277                     l2907:
  3662  0277  084D               	movf	___flmul@temp^(0+128),w
  3663  0278  00BD               	movwf	??___flmul^(0+128)
  3664  0279  084E               	movf	(___flmul@temp+1)^(0+128),w
  3665  027A  00BE               	movwf	(??___flmul^(0+128)+1)
  3666  027B  01BF               	clrf	(??___flmul^(0+128)+2)
  3667  027C  01C0               	clrf	(??___flmul^(0+128)+3)
  3668  027D  083D               	movf	??___flmul^(0+128),w
  3669  027E  07C9               	addwf	___flmul@prod^(0+128),f
  3670  027F  083E               	movf	(??___flmul+1)^(0+128),w
  3671  0280  1103               	clrz
  3672  0281  1803               	skipnc
  3673  0282  3E01               	addlw	1
  3674  0283  1903               	skipnz
  3675  0284  2A86               	goto	u3231
  3676  0285  07CA               	addwf	(___flmul@prod+1)^(0+128),f
  3677  0286                     u3231:
  3678  0286  083F               	movf	(??___flmul+2)^(0+128),w
  3679  0287  1103               	clrz
  3680  0288  1803               	skipnc
  3681  0289  3E01               	addlw	1
  3682  028A  1903               	skipnz
  3683  028B  2A8D               	goto	u3232
  3684  028C  07CB               	addwf	(___flmul@prod+2)^(0+128),f
  3685  028D                     u3232:
  3686  028D  0840               	movf	(??___flmul+3)^(0+128),w
  3687  028E  1103               	clrz
  3688  028F  1803               	skipnc
  3689  0290  3E01               	addlw	1
  3690  0291  1903               	skipnz
  3691  0292  2A94               	goto	u3233
  3692  0293  07CC               	addwf	(___flmul@prod+3)^(0+128),f
  3693  0294                     u3233:
  3694  0294  0837               	movf	(___flmul@b^(0+128)+2),w
  3695  0295  00FF               	movwf	btemp+1
  3696  0296  087F               	movf	btemp+1,w
  3697  0297  1283               	bcf	3,5	;RP0=0, select bank0
  3698  0298  1303               	bcf	3,6	;RP1=0, select bank0
  3699  0299  00AB               	movwf	__Umul8_16@multiplicand
  3700  029A  1683               	bsf	3,5	;RP0=1, select bank1
  3701  029B  1303               	bcf	3,6	;RP1=0, select bank1
  3702  029C  083B               	movf	(___flmul@a^(0+128)+2),w
  3703  029D  120A  158A  2004  120A  118A  	fcall	__Umul8_16
  3704  02A2  1283               	bcf	3,5	;RP0=0, select bank0
  3705  02A3  1303               	bcf	3,6	;RP1=0, select bank0
  3706  02A4  082C               	movf	?__Umul8_16+1,w
  3707  02A5  1683               	bsf	3,5	;RP0=1, select bank1
  3708  02A6  1303               	bcf	3,6	;RP1=0, select bank1
  3709  02A7  00CE               	movwf	(___flmul@temp+1)^(0+128)
  3710  02A8  1283               	bcf	3,5	;RP0=0, select bank0
  3711  02A9  1303               	bcf	3,6	;RP1=0, select bank0
  3712  02AA  082B               	movf	?__Umul8_16,w
  3713  02AB  1683               	bsf	3,5	;RP0=1, select bank1
  3714  02AC  1303               	bcf	3,6	;RP1=0, select bank1
  3715  02AD  00CD               	movwf	___flmul@temp^(0+128)
  3716  02AE                     l2909:
  3717  02AE  084D               	movf	___flmul@temp^(0+128),w
  3718  02AF  00BD               	movwf	??___flmul^(0+128)
  3719  02B0  084E               	movf	(___flmul@temp+1)^(0+128),w
  3720  02B1  00BE               	movwf	(??___flmul^(0+128)+1)
  3721  02B2  01BF               	clrf	(??___flmul^(0+128)+2)
  3722  02B3  01C0               	clrf	(??___flmul^(0+128)+3)
  3723  02B4  3008               	movlw	8
  3724  02B5                     u3245:
  3725  02B5  1003               	clrc
  3726  02B6  0DBD               	rlf	??___flmul^(0+128),f
  3727  02B7  0DBE               	rlf	(??___flmul^(0+128)+1),f
  3728  02B8  0DBF               	rlf	(??___flmul^(0+128)+2),f
  3729  02B9  0DC0               	rlf	(??___flmul^(0+128)+3),f
  3730  02BA                     u3240:
  3731  02BA  3EFF               	addlw	-1
  3732  02BB  1D03               	skipz
  3733  02BC  2AB5               	goto	u3245
  3734  02BD  083D               	movf	??___flmul^(0+128),w
  3735  02BE  07C9               	addwf	___flmul@prod^(0+128),f
  3736  02BF  083E               	movf	(??___flmul+1)^(0+128),w
  3737  02C0  1103               	clrz
  3738  02C1  1803               	skipnc
  3739  02C2  3E01               	addlw	1
  3740  02C3  1903               	skipnz
  3741  02C4  2AC6               	goto	u3251
  3742  02C5  07CA               	addwf	(___flmul@prod+1)^(0+128),f
  3743  02C6                     u3251:
  3744  02C6  083F               	movf	(??___flmul+2)^(0+128),w
  3745  02C7  1103               	clrz
  3746  02C8  1803               	skipnc
  3747  02C9  3E01               	addlw	1
  3748  02CA  1903               	skipnz
  3749  02CB  2ACD               	goto	u3252
  3750  02CC  07CB               	addwf	(___flmul@prod+2)^(0+128),f
  3751  02CD                     u3252:
  3752  02CD  0840               	movf	(??___flmul+3)^(0+128),w
  3753  02CE  1103               	clrz
  3754  02CF  1803               	skipnc
  3755  02D0  3E01               	addlw	1
  3756  02D1  1903               	skipnz
  3757  02D2  2AD4               	goto	u3253
  3758  02D3  07CC               	addwf	(___flmul@prod+3)^(0+128),f
  3759  02D4                     u3253:
  3760  02D4                     l2911:
  3761  02D4  0843               	movf	___flmul@grs^(0+128),w
  3762  02D5  00BD               	movwf	??___flmul^(0+128)
  3763  02D6  0844               	movf	(___flmul@grs+1)^(0+128),w
  3764  02D7  00BE               	movwf	(??___flmul^(0+128)+1)
  3765  02D8  0845               	movf	(___flmul@grs+2)^(0+128),w
  3766  02D9  00BF               	movwf	(??___flmul^(0+128)+2)
  3767  02DA  0846               	movf	(___flmul@grs+3)^(0+128),w
  3768  02DB  00C0               	movwf	(??___flmul^(0+128)+3)
  3769  02DC  3018               	movlw	24
  3770  02DD                     u3265:
  3771  02DD  1003               	clrc
  3772  02DE  0CC0               	rrf	(??___flmul^(0+128)+3),f
  3773  02DF  0CBF               	rrf	(??___flmul^(0+128)+2),f
  3774  02E0  0CBE               	rrf	(??___flmul^(0+128)+1),f
  3775  02E1  0CBD               	rrf	??___flmul^(0+128),f
  3776  02E2                     u3260:
  3777  02E2  3EFF               	addlw	-1
  3778  02E3  1D03               	skipz
  3779  02E4  2ADD               	goto	u3265
  3780  02E5  083D               	movf	??___flmul^(0+128),w
  3781  02E6  07C9               	addwf	___flmul@prod^(0+128),f
  3782  02E7  083E               	movf	(??___flmul+1)^(0+128),w
  3783  02E8  1103               	clrz
  3784  02E9  1803               	skipnc
  3785  02EA  3E01               	addlw	1
  3786  02EB  1903               	skipnz
  3787  02EC  2AEE               	goto	u3271
  3788  02ED  07CA               	addwf	(___flmul@prod+1)^(0+128),f
  3789  02EE                     u3271:
  3790  02EE  083F               	movf	(??___flmul+2)^(0+128),w
  3791  02EF  1103               	clrz
  3792  02F0  1803               	skipnc
  3793  02F1  3E01               	addlw	1
  3794  02F2  1903               	skipnz
  3795  02F3  2AF5               	goto	u3272
  3796  02F4  07CB               	addwf	(___flmul@prod+2)^(0+128),f
  3797  02F5                     u3272:
  3798  02F5  0840               	movf	(??___flmul+3)^(0+128),w
  3799  02F6  1103               	clrz
  3800  02F7  1803               	skipnc
  3801  02F8  3E01               	addlw	1
  3802  02F9  1903               	skipnz
  3803  02FA  2AFC               	goto	u3273
  3804  02FB  07CC               	addwf	(___flmul@prod+3)^(0+128),f
  3805  02FC                     u3273:
  3806  02FC                     l2913:
  3807  02FC  3008               	movlw	8
  3808  02FD  00BD               	movwf	??___flmul^(0+128)
  3809  02FE                     u3285:
  3810  02FE  1003               	clrc
  3811  02FF  0DC3               	rlf	___flmul@grs^(0+128),f
  3812  0300  0DC4               	rlf	(___flmul@grs+1)^(0+128),f
  3813  0301  0DC5               	rlf	(___flmul@grs+2)^(0+128),f
  3814  0302  0DC6               	rlf	(___flmul@grs+3)^(0+128),f
  3815  0303  0BBD               	decfsz	??___flmul^(0+128),f
  3816  0304  2AFE               	goto	u3285
  3817  0305                     l2915:
  3818  0305  0848               	movf	___flmul@bexp^(0+128),w
  3819  0306  0747               	addwf	___flmul@aexp^(0+128),w
  3820  0307  00BD               	movwf	??___flmul^(0+128)
  3821  0308  01BE               	clrf	(??___flmul^(0+128)+1)
  3822  0309  0DBE               	rlf	(??___flmul+1)^(0+128),f
  3823  030A  083D               	movf	??___flmul^(0+128),w
  3824  030B  3E82               	addlw	130
  3825  030C  00CD               	movwf	___flmul@temp^(0+128)
  3826  030D  083E               	movf	(??___flmul+1)^(0+128),w
  3827  030E  1803               	skipnc
  3828  030F  3E01               	addlw	1
  3829  0310  3EFF               	addlw	255
  3830  0311  00CE               	movwf	(___flmul@temp+1)^(0+128)
  3831  0312  2B30               	goto	l2927
  3832  0313                     l2917:
  3833  0313  3001               	movlw	1
  3834  0314  00BD               	movwf	??___flmul^(0+128)
  3835  0315                     u3295:
  3836  0315  1003               	clrc
  3837  0316  0DC9               	rlf	___flmul@prod^(0+128),f
  3838  0317  0DCA               	rlf	(___flmul@prod+1)^(0+128),f
  3839  0318  0DCB               	rlf	(___flmul@prod+2)^(0+128),f
  3840  0319  0DCC               	rlf	(___flmul@prod+3)^(0+128),f
  3841  031A  0BBD               	decfsz	??___flmul^(0+128),f
  3842  031B  2B15               	goto	u3295
  3843  031C                     l2919:
  3844  031C  1FC6               	btfss	(___flmul@grs+3)^(0+128),7
  3845  031D  2B1F               	goto	u3301
  3846  031E  2B20               	goto	u3300
  3847  031F                     u3301:
  3848  031F  2B21               	goto	l2923
  3849  0320                     u3300:
  3850  0320                     l2921:
  3851  0320  1449               	bsf	___flmul@prod^(0+128),0
  3852  0321                     l2923:
  3853  0321  3001               	movlw	1
  3854  0322  00BD               	movwf	??___flmul^(0+128)
  3855  0323                     u3315:
  3856  0323  1003               	clrc
  3857  0324  0DC3               	rlf	___flmul@grs^(0+128),f
  3858  0325  0DC4               	rlf	(___flmul@grs+1)^(0+128),f
  3859  0326  0DC5               	rlf	(___flmul@grs+2)^(0+128),f
  3860  0327  0DC6               	rlf	(___flmul@grs+3)^(0+128),f
  3861  0328  0BBD               	decfsz	??___flmul^(0+128),f
  3862  0329  2B23               	goto	u3315
  3863  032A                     l2925:
  3864  032A  30FF               	movlw	255
  3865  032B  07CD               	addwf	___flmul@temp^(0+128),f
  3866  032C  1803               	skipnc
  3867  032D  0ACE               	incf	(___flmul@temp+1)^(0+128),f
  3868  032E  30FF               	movlw	255
  3869  032F  07CE               	addwf	(___flmul@temp+1)^(0+128),f
  3870  0330                     l2927:
  3871  0330  1FCB               	btfss	(___flmul@prod+2)^(0+128),7
  3872  0331  2B33               	goto	u3321
  3873  0332  2B34               	goto	u3320
  3874  0333                     u3321:
  3875  0333  2B13               	goto	l2917
  3876  0334                     u3320:
  3877  0334                     l2929:
  3878  0334  01C7               	clrf	___flmul@aexp^(0+128)
  3879  0335                     l2931:
  3880  0335  1FC6               	btfss	(___flmul@grs+3)^(0+128),7
  3881  0336  2B38               	goto	u3331
  3882  0337  2B39               	goto	u3330
  3883  0338                     u3331:
  3884  0338  2B55               	goto	l2939
  3885  0339                     u3330:
  3886  0339                     l2933:
  3887  0339  30FF               	movlw	255
  3888  033A  0543               	andwf	___flmul@grs^(0+128),w
  3889  033B  00BD               	movwf	??___flmul^(0+128)
  3890  033C  30FF               	movlw	255
  3891  033D  0544               	andwf	(___flmul@grs+1)^(0+128),w
  3892  033E  00BE               	movwf	(??___flmul^(0+128)+1)
  3893  033F  30FF               	movlw	255
  3894  0340  0545               	andwf	(___flmul@grs+2)^(0+128),w
  3895  0341  00BF               	movwf	(??___flmul^(0+128)+2)
  3896  0342  307F               	movlw	127
  3897  0343  0546               	andwf	(___flmul@grs+3)^(0+128),w
  3898  0344  00C0               	movwf	(??___flmul^(0+128)+3)
  3899  0345  0840               	movf	(??___flmul+3)^(0+128),w
  3900  0346  043F               	iorwf	(??___flmul+2)^(0+128),w
  3901  0347  043E               	iorwf	(??___flmul+1)^(0+128),w
  3902  0348  043D               	iorwf	??___flmul^(0+128),w
  3903  0349  1903               	skipnz
  3904  034A  2B4C               	goto	u3341
  3905  034B  2B4D               	goto	u3340
  3906  034C                     u3341:
  3907  034C  2B50               	goto	l774
  3908  034D                     u3340:
  3909  034D                     l2935:
  3910  034D  01C7               	clrf	___flmul@aexp^(0+128)
  3911  034E  0AC7               	incf	___flmul@aexp^(0+128),f
  3912  034F  2B55               	goto	l2939
  3913  0350                     l774:
  3914  0350  1C49               	btfss	___flmul@prod^(0+128),0
  3915  0351  2B53               	goto	u3351
  3916  0352  2B54               	goto	u3350
  3917  0353                     u3351:
  3918  0353  2B55               	goto	l2939
  3919  0354                     u3350:
  3920  0354  2B4D               	goto	l2935
  3921  0355                     l2939:
  3922  0355  0847               	movf	___flmul@aexp^(0+128),w
  3923  0356  1903               	btfsc	3,2
  3924  0357  2B59               	goto	u3361
  3925  0358  2B5A               	goto	u3360
  3926  0359                     u3361:
  3927  0359  2B8B               	goto	l2949
  3928  035A                     u3360:
  3929  035A                     l2941:
  3930  035A  3001               	movlw	1
  3931  035B  07C9               	addwf	___flmul@prod^(0+128),f
  3932  035C  3000               	movlw	0
  3933  035D  1803               	skipnc
  3934  035E  3001               	movlw	1
  3935  035F  07CA               	addwf	(___flmul@prod+1)^(0+128),f
  3936  0360  3000               	movlw	0
  3937  0361  1803               	skipnc
  3938  0362  3001               	movlw	1
  3939  0363  07CB               	addwf	(___flmul@prod+2)^(0+128),f
  3940  0364  3000               	movlw	0
  3941  0365  1803               	skipnc
  3942  0366  3001               	movlw	1
  3943  0367  07CC               	addwf	(___flmul@prod+3)^(0+128),f
  3944  0368                     l2943:
  3945  0368  1C4C               	btfss	(___flmul@prod+3)^(0+128),0
  3946  0369  2B6B               	goto	u3371
  3947  036A  2B6C               	goto	u3370
  3948  036B                     u3371:
  3949  036B  2B8B               	goto	l2949
  3950  036C                     u3370:
  3951  036C                     l2945:
  3952  036C  0849               	movf	___flmul@prod^(0+128),w
  3953  036D  00BD               	movwf	??___flmul^(0+128)
  3954  036E  084A               	movf	(___flmul@prod+1)^(0+128),w
  3955  036F  00BE               	movwf	(??___flmul^(0+128)+1)
  3956  0370  084B               	movf	(___flmul@prod+2)^(0+128),w
  3957  0371  00BF               	movwf	(??___flmul^(0+128)+2)
  3958  0372  084C               	movf	(___flmul@prod+3)^(0+128),w
  3959  0373  00C0               	movwf	(??___flmul^(0+128)+3)
  3960  0374  3001               	movlw	1
  3961  0375  00C1               	movwf	(??___flmul+4)^(0+128)
  3962  0376                     u3385:
  3963  0376  0D40               	rlf	(??___flmul^(0+128)+3),w
  3964  0377  0CC0               	rrf	(??___flmul^(0+128)+3),f
  3965  0378  0CBF               	rrf	(??___flmul^(0+128)+2),f
  3966  0379  0CBE               	rrf	(??___flmul^(0+128)+1),f
  3967  037A  0CBD               	rrf	??___flmul^(0+128),f
  3968  037B                     u3380:
  3969  037B  0BC1               	decfsz	(??___flmul+4)^(0+128),f
  3970  037C  2B76               	goto	u3385
  3971  037D  0840               	movf	(??___flmul+3)^(0+128),w
  3972  037E  00CC               	movwf	(___flmul@prod+3)^(0+128)
  3973  037F  083F               	movf	(??___flmul+2)^(0+128),w
  3974  0380  00CB               	movwf	(___flmul@prod+2)^(0+128)
  3975  0381  083E               	movf	(??___flmul+1)^(0+128),w
  3976  0382  00CA               	movwf	(___flmul@prod+1)^(0+128)
  3977  0383  083D               	movf	??___flmul^(0+128),w
  3978  0384  00C9               	movwf	___flmul@prod^(0+128)
  3979  0385                     l2947:
  3980  0385  3001               	movlw	1
  3981  0386  07CD               	addwf	___flmul@temp^(0+128),f
  3982  0387  1803               	skipnc
  3983  0388  0ACE               	incf	(___flmul@temp+1)^(0+128),f
  3984  0389  3000               	movlw	0
  3985  038A  07CE               	addwf	(___flmul@temp+1)^(0+128),f
  3986  038B                     l2949:
  3987  038B  084E               	movf	(___flmul@temp+1)^(0+128),w
  3988  038C  3A80               	xorlw	128
  3989  038D  00FF               	movwf	btemp+1
  3990  038E  3080               	movlw	128
  3991  038F  027F               	subwf	btemp+1,w
  3992  0390  1D03               	skipz
  3993  0391  2B94               	goto	u3395
  3994  0392  30FF               	movlw	255
  3995  0393  024D               	subwf	___flmul@temp^(0+128),w
  3996  0394                     u3395:
  3997  0394  1C03               	skipc
  3998  0395  2B97               	goto	u3391
  3999  0396  2B98               	goto	u3390
  4000  0397                     u3391:
  4001  0397  2BA3               	goto	l2953
  4002  0398                     u3390:
  4003  0398                     l2951:
  4004  0398  307F               	movlw	127
  4005  0399  1683               	bsf	3,5	;RP0=1, select bank1
  4006  039A  1303               	bcf	3,6	;RP1=0, select bank1
  4007  039B  00CC               	movwf	(___flmul@prod+3)^(0+128)
  4008  039C  3080               	movlw	128
  4009  039D  00CB               	movwf	(___flmul@prod+2)^(0+128)
  4010  039E  3000               	movlw	0
  4011  039F  00CA               	movwf	(___flmul@prod+1)^(0+128)
  4012  03A0  3000               	movlw	0
  4013  03A1  00C9               	movwf	___flmul@prod^(0+128)
  4014  03A2  2BD8               	goto	l780
  4015  03A3                     l2953:
  4016  03A3  1683               	bsf	3,5	;RP0=1, select bank1
  4017  03A4  1303               	bcf	3,6	;RP1=0, select bank1
  4018  03A5  084E               	movf	(___flmul@temp+1)^(0+128),w
  4019  03A6  3A80               	xorlw	128
  4020  03A7  00FF               	movwf	btemp+1
  4021  03A8  3080               	movlw	128
  4022  03A9  027F               	subwf	btemp+1,w
  4023  03AA  1D03               	skipz
  4024  03AB  2BAE               	goto	u3405
  4025  03AC  3001               	movlw	1
  4026  03AD  024D               	subwf	___flmul@temp^(0+128),w
  4027  03AE                     u3405:
  4028  03AE  1803               	skipnc
  4029  03AF  2BB1               	goto	u3401
  4030  03B0  2BB2               	goto	u3400
  4031  03B1                     u3401:
  4032  03B1  2BBE               	goto	l2959
  4033  03B2                     u3400:
  4034  03B2                     l2955:
  4035  03B2  3000               	movlw	0
  4036  03B3  1683               	bsf	3,5	;RP0=1, select bank1
  4037  03B4  1303               	bcf	3,6	;RP1=0, select bank1
  4038  03B5  00CC               	movwf	(___flmul@prod+3)^(0+128)
  4039  03B6  3000               	movlw	0
  4040  03B7  00CB               	movwf	(___flmul@prod+2)^(0+128)
  4041  03B8  3000               	movlw	0
  4042  03B9  00CA               	movwf	(___flmul@prod+1)^(0+128)
  4043  03BA  3000               	movlw	0
  4044  03BB  00C9               	movwf	___flmul@prod^(0+128)
  4045  03BC                     l2957:
  4046  03BC  01C2               	clrf	___flmul@sign^(0+128)
  4047  03BD  2BD8               	goto	l780
  4048  03BE                     l2959:
  4049  03BE  1683               	bsf	3,5	;RP0=1, select bank1
  4050  03BF  1303               	bcf	3,6	;RP1=0, select bank1
  4051  03C0  084D               	movf	___flmul@temp^(0+128),w
  4052  03C1  00FF               	movwf	btemp+1
  4053  03C2  087F               	movf	btemp+1,w
  4054  03C3  00C8               	movwf	___flmul@bexp^(0+128)
  4055  03C4                     l2961:
  4056  03C4  30FF               	movlw	255
  4057  03C5  05C9               	andwf	___flmul@prod^(0+128),f
  4058  03C6  30FF               	movlw	255
  4059  03C7  05CA               	andwf	(___flmul@prod+1)^(0+128),f
  4060  03C8  307F               	movlw	127
  4061  03C9  05CB               	andwf	(___flmul@prod+2)^(0+128),f
  4062  03CA  3000               	movlw	0
  4063  03CB  05CC               	andwf	(___flmul@prod+3)^(0+128),f
  4064  03CC                     l2963:
  4065  03CC  1C48               	btfss	___flmul@bexp^(0+128),0
  4066  03CD  2BCF               	goto	u3411
  4067  03CE  2BD0               	goto	u3410
  4068  03CF                     u3411:
  4069  03CF  2BD1               	goto	l2967
  4070  03D0                     u3410:
  4071  03D0                     l2965:
  4072  03D0  17CB               	bsf	(___flmul@prod^(0+128)+2),7
  4073  03D1                     l2967:
  4074  03D1  0848               	movf	___flmul@bexp^(0+128),w
  4075  03D2  00BD               	movwf	??___flmul^(0+128)
  4076  03D3  1003               	clrc
  4077  03D4  0C3D               	rrf	??___flmul^(0+128),w
  4078  03D5  00FF               	movwf	btemp+1
  4079  03D6  087F               	movf	btemp+1,w
  4080  03D7  00CC               	movwf	(___flmul@prod^(0+128)+3)
  4081  03D8                     l780:
  4082  03D8  0842               	movf	___flmul@sign^(0+128),w
  4083  03D9  00FF               	movwf	btemp+1
  4084  03DA  087F               	movf	btemp+1,w
  4085  03DB  04CC               	iorwf	(___flmul@prod^(0+128)+3),f
  4086  03DC                     l2969:
  4087  03DC  084C               	movf	(___flmul@prod+3)^(0+128),w
  4088  03DD  00B8               	movwf	(?___flmul+3)^(0+128)
  4089  03DE  084B               	movf	(___flmul@prod+2)^(0+128),w
  4090  03DF  00B7               	movwf	(?___flmul+2)^(0+128)
  4091  03E0  084A               	movf	(___flmul@prod+1)^(0+128),w
  4092  03E1  00B6               	movwf	(?___flmul+1)^(0+128)
  4093  03E2  0849               	movf	___flmul@prod^(0+128),w
  4094  03E3  00B5               	movwf	?___flmul^(0+128)
  4095  03E4                     l768:
  4096  03E4  0008               	return
  4097  03E5                     __end_of___flmul:
  4098                           
  4099                           	psect	text6
  4100  0804                     __ptext6:	
  4101 ;; *************** function __Umul8_16 *****************
  4102 ;; Defined at:
  4103 ;;		line 4 in file "C:\Program Files\Microchip\xc8\v2.20\pic\sources\c90\common\Umul8_16.c"
  4104 ;; Parameters:    Size  Location     Type
  4105 ;;  multiplier      1    wreg     unsigned char 
  4106 ;;  multiplicand    1   11[BANK0 ] unsigned char 
  4107 ;; Auto vars:     Size  Location     Type
  4108 ;;  multiplier      1   19[BANK0 ] unsigned char 
  4109 ;;  word_mpld       2   17[BANK0 ] unsigned int 
  4110 ;;  product         2   15[BANK0 ] unsigned int 
  4111 ;; Return value:  Size  Location     Type
  4112 ;;                  2   11[BANK0 ] unsigned int 
  4113 ;; Registers used:
  4114 ;;		wreg, status,2, status,0
  4115 ;; Tracked objects:
  4116 ;;		On entry : 0/0
  4117 ;;		On exit  : 0/0
  4118 ;;		Unchanged: 0/0
  4119 ;; Data sizes:     COMMON   BANK0   BANK1   BANK3   BANK2
  4120 ;;      Params:         0       2       0       0       0
  4121 ;;      Locals:         0       5       0       0       0
  4122 ;;      Temps:          0       2       0       0       0
  4123 ;;      Totals:         0       9       0       0       0
  4124 ;;Total ram usage:        9 bytes
  4125 ;; Hardware stack levels used:    1
  4126 ;; Hardware stack levels required when called:    3
  4127 ;; This function calls:
  4128 ;;		Nothing
  4129 ;; This function is called by:
  4130 ;;		___flmul
  4131 ;; This function uses a non-reentrant model
  4132 ;;
  4133                           
  4134                           
  4135                           ;psect for function __Umul8_16
  4136  0804                     __Umul8_16:
  4137                           
  4138                           ;incstack = 0
  4139                           ; Regs used in __Umul8_16: [wreg+status,2+status,0]
  4140                           ;__Umul8_16@multiplier stored from wreg
  4141  0804  1283               	bcf	3,5	;RP0=0, select bank0
  4142  0805  1303               	bcf	3,6	;RP1=0, select bank0
  4143  0806  00B3               	movwf	__Umul8_16@multiplier
  4144  0807                     l2209:
  4145  0807  01AF               	clrf	__Umul8_16@product
  4146  0808  01B0               	clrf	__Umul8_16@product+1
  4147  0809                     l2211:
  4148  0809  082B               	movf	__Umul8_16@multiplicand,w
  4149  080A  00AD               	movwf	??__Umul8_16
  4150  080B  01AE               	clrf	??__Umul8_16+1
  4151  080C  082D               	movf	??__Umul8_16,w
  4152  080D  00B1               	movwf	__Umul8_16@word_mpld
  4153  080E  082E               	movf	??__Umul8_16+1,w
  4154  080F  00B2               	movwf	__Umul8_16@word_mpld+1
  4155  0810                     l2213:
  4156  0810  1C33               	btfss	__Umul8_16@multiplier,0
  4157  0811  2813               	goto	u1921
  4158  0812  2814               	goto	u1920
  4159  0813                     u1921:
  4160  0813  281A               	goto	l787
  4161  0814                     u1920:
  4162  0814                     l2215:
  4163  0814  0831               	movf	__Umul8_16@word_mpld,w
  4164  0815  07AF               	addwf	__Umul8_16@product,f
  4165  0816  1803               	skipnc
  4166  0817  0AB0               	incf	__Umul8_16@product+1,f
  4167  0818  0832               	movf	__Umul8_16@word_mpld+1,w
  4168  0819  07B0               	addwf	__Umul8_16@product+1,f
  4169  081A                     l787:
  4170  081A  3001               	movlw	1
  4171  081B                     u1935:
  4172  081B  1003               	clrc
  4173  081C  0DB1               	rlf	__Umul8_16@word_mpld,f
  4174  081D  0DB2               	rlf	__Umul8_16@word_mpld+1,f
  4175  081E  3EFF               	addlw	-1
  4176  081F  1D03               	skipz
  4177  0820  281B               	goto	u1935
  4178  0821  1003               	clrc
  4179  0822  0CB3               	rrf	__Umul8_16@multiplier,f
  4180  0823                     l2217:
  4181  0823  0833               	movf	__Umul8_16@multiplier,w
  4182  0824  1D03               	btfss	3,2
  4183  0825  2827               	goto	u1941
  4184  0826  2828               	goto	u1940
  4185  0827                     u1941:
  4186  0827  2810               	goto	l2213
  4187  0828                     u1940:
  4188  0828                     l2219:
  4189  0828  0830               	movf	__Umul8_16@product+1,w
  4190  0829  00AC               	movwf	?__Umul8_16+1
  4191  082A  082F               	movf	__Umul8_16@product,w
  4192  082B  00AB               	movwf	?__Umul8_16
  4193  082C                     l789:
  4194  082C  0008               	return
  4195  082D                     __end_of__Umul8_16:
  4196                           
  4197                           	psect	text7
  4198  0AC7                     __ptext7:	
  4199 ;; *************** function ___fldiv *****************
  4200 ;; Defined at:
  4201 ;;		line 8 in file "C:\Program Files\Microchip\xc8\v2.20\pic\sources\c90\common\sprcdiv.c"
  4202 ;; Parameters:    Size  Location     Type
  4203 ;;  a               4   39[BANK0 ] unsigned int 
  4204 ;;  b               4   43[BANK0 ] unsigned int 
  4205 ;; Auto vars:     Size  Location     Type
  4206 ;;  grs             4    7[BANK1 ] unsigned long 
  4207 ;;  rem             4    0[BANK1 ] unsigned long 
  4208 ;;  new_exp         2    5[BANK1 ] int 
  4209 ;;  aexp            1   12[BANK1 ] unsigned char 
  4210 ;;  bexp            1   11[BANK1 ] unsigned char 
  4211 ;;  sign            1    4[BANK1 ] unsigned char 
  4212 ;; Return value:  Size  Location     Type
  4213 ;;                  4   39[BANK0 ] unsigned char 
  4214 ;; Registers used:
  4215 ;;		wreg, status,2, status,0, btemp+1
  4216 ;; Tracked objects:
  4217 ;;		On entry : 0/0
  4218 ;;		On exit  : 0/0
  4219 ;;		Unchanged: 0/0
  4220 ;; Data sizes:     COMMON   BANK0   BANK1   BANK3   BANK2
  4221 ;;      Params:         0       8       0       0       0
  4222 ;;      Locals:         0       0      13       0       0
  4223 ;;      Temps:          0       5       0       0       0
  4224 ;;      Totals:         0      13      13       0       0
  4225 ;;Total ram usage:       26 bytes
  4226 ;; Hardware stack levels used:    1
  4227 ;; Hardware stack levels required when called:    3
  4228 ;; This function calls:
  4229 ;;		Nothing
  4230 ;; This function is called by:
  4231 ;;		_temp_pos
  4232 ;; This function uses a non-reentrant model
  4233 ;;
  4234                           
  4235                           
  4236                           ;psect for function ___fldiv
  4237  0AC7                     ___fldiv:
  4238  0AC7                     l3699:	
  4239                           ;incstack = 0
  4240                           ; Regs used in ___fldiv: [wreg+status,2+status,0+btemp+1]
  4241                           
  4242  0AC7  1283               	bcf	3,5	;RP0=0, select bank0
  4243  0AC8  1303               	bcf	3,6	;RP1=0, select bank0
  4244  0AC9  084E               	movf	___fldiv@b+3,w
  4245  0ACA  3980               	andlw	128
  4246  0ACB  00FF               	movwf	btemp+1
  4247  0ACC  087F               	movf	btemp+1,w
  4248  0ACD  1683               	bsf	3,5	;RP0=1, select bank1
  4249  0ACE  1303               	bcf	3,6	;RP1=0, select bank1
  4250  0ACF  00A4               	movwf	___fldiv@sign^(0+128)
  4251  0AD0                     l3701:
  4252  0AD0  1283               	bcf	3,5	;RP0=0, select bank0
  4253  0AD1  1303               	bcf	3,6	;RP1=0, select bank0
  4254  0AD2  084E               	movf	___fldiv@b+3,w
  4255  0AD3  00CF               	movwf	??___fldiv
  4256  0AD4  074F               	addwf	??___fldiv,w
  4257  0AD5  00FF               	movwf	btemp+1
  4258  0AD6  087F               	movf	btemp+1,w
  4259  0AD7  1683               	bsf	3,5	;RP0=1, select bank1
  4260  0AD8  1303               	bcf	3,6	;RP1=0, select bank1
  4261  0AD9  00AB               	movwf	___fldiv@bexp^(0+128)
  4262  0ADA                     l3703:
  4263  0ADA  1283               	bcf	3,5	;RP0=0, select bank0
  4264  0ADB  1303               	bcf	3,6	;RP1=0, select bank0
  4265  0ADC  1FCD               	btfss	___fldiv@b+2,7
  4266  0ADD  2ADF               	goto	u4271
  4267  0ADE  2AE0               	goto	u4270
  4268  0ADF                     u4271:
  4269  0ADF  2AE3               	goto	l3707
  4270  0AE0                     u4270:
  4271  0AE0                     l3705:
  4272  0AE0  1683               	bsf	3,5	;RP0=1, select bank1
  4273  0AE1  1303               	bcf	3,6	;RP1=0, select bank1
  4274  0AE2  142B               	bsf	___fldiv@bexp^(0+128),0
  4275  0AE3                     l3707:
  4276  0AE3  1683               	bsf	3,5	;RP0=1, select bank1
  4277  0AE4  1303               	bcf	3,6	;RP1=0, select bank1
  4278  0AE5  082B               	movf	___fldiv@bexp^(0+128),w
  4279  0AE6  1903               	btfsc	3,2
  4280  0AE7  2AE9               	goto	u4281
  4281  0AE8  2AEA               	goto	u4280
  4282  0AE9                     u4281:
  4283  0AE9  2AFD               	goto	l3717
  4284  0AEA                     u4280:
  4285  0AEA                     l3709:
  4286  0AEA  0A2B               	incf	___fldiv@bexp^(0+128),w
  4287  0AEB  1D03               	btfss	3,2
  4288  0AEC  2AEE               	goto	u4291
  4289  0AED  2AEF               	goto	u4290
  4290  0AEE                     u4291:
  4291  0AEE  2AF9               	goto	l3713
  4292  0AEF                     u4290:
  4293  0AEF                     l3711:
  4294  0AEF  3000               	movlw	0
  4295  0AF0  1283               	bcf	3,5	;RP0=0, select bank0
  4296  0AF1  1303               	bcf	3,6	;RP1=0, select bank0
  4297  0AF2  00CE               	movwf	___fldiv@b+3
  4298  0AF3  3000               	movlw	0
  4299  0AF4  00CD               	movwf	___fldiv@b+2
  4300  0AF5  3000               	movlw	0
  4301  0AF6  00CC               	movwf	___fldiv@b+1
  4302  0AF7  3000               	movlw	0
  4303  0AF8  00CB               	movwf	___fldiv@b
  4304  0AF9                     l3713:
  4305  0AF9  1283               	bcf	3,5	;RP0=0, select bank0
  4306  0AFA  17CD               	bsf	___fldiv@b+2,7
  4307  0AFB                     l3715:
  4308  0AFB  01CE               	clrf	___fldiv@b+3
  4309  0AFC  2B07               	goto	l3719
  4310  0AFD                     l3717:
  4311  0AFD  3000               	movlw	0
  4312  0AFE  1283               	bcf	3,5	;RP0=0, select bank0
  4313  0AFF  1303               	bcf	3,6	;RP1=0, select bank0
  4314  0B00  00CE               	movwf	___fldiv@b+3
  4315  0B01  3000               	movlw	0
  4316  0B02  00CD               	movwf	___fldiv@b+2
  4317  0B03  3000               	movlw	0
  4318  0B04  00CC               	movwf	___fldiv@b+1
  4319  0B05  3000               	movlw	0
  4320  0B06  00CB               	movwf	___fldiv@b
  4321  0B07                     l3719:
  4322  0B07  084A               	movf	___fldiv@a+3,w
  4323  0B08  3980               	andlw	128
  4324  0B09  00FF               	movwf	btemp+1
  4325  0B0A  087F               	movf	btemp+1,w
  4326  0B0B  1683               	bsf	3,5	;RP0=1, select bank1
  4327  0B0C  1303               	bcf	3,6	;RP1=0, select bank1
  4328  0B0D  06A4               	xorwf	___fldiv@sign^(0+128),f
  4329  0B0E                     l3721:
  4330  0B0E  1283               	bcf	3,5	;RP0=0, select bank0
  4331  0B0F  1303               	bcf	3,6	;RP1=0, select bank0
  4332  0B10  084A               	movf	___fldiv@a+3,w
  4333  0B11  00CF               	movwf	??___fldiv
  4334  0B12  074F               	addwf	??___fldiv,w
  4335  0B13  00FF               	movwf	btemp+1
  4336  0B14  087F               	movf	btemp+1,w
  4337  0B15  1683               	bsf	3,5	;RP0=1, select bank1
  4338  0B16  1303               	bcf	3,6	;RP1=0, select bank1
  4339  0B17  00AC               	movwf	___fldiv@aexp^(0+128)
  4340  0B18                     l3723:
  4341  0B18  1283               	bcf	3,5	;RP0=0, select bank0
  4342  0B19  1303               	bcf	3,6	;RP1=0, select bank0
  4343  0B1A  1FC9               	btfss	___fldiv@a+2,7
  4344  0B1B  2B1D               	goto	u4301
  4345  0B1C  2B1E               	goto	u4300
  4346  0B1D                     u4301:
  4347  0B1D  2B21               	goto	l3727
  4348  0B1E                     u4300:
  4349  0B1E                     l3725:
  4350  0B1E  1683               	bsf	3,5	;RP0=1, select bank1
  4351  0B1F  1303               	bcf	3,6	;RP1=0, select bank1
  4352  0B20  142C               	bsf	___fldiv@aexp^(0+128),0
  4353  0B21                     l3727:
  4354  0B21  1683               	bsf	3,5	;RP0=1, select bank1
  4355  0B22  1303               	bcf	3,6	;RP1=0, select bank1
  4356  0B23  082C               	movf	___fldiv@aexp^(0+128),w
  4357  0B24  1903               	btfsc	3,2
  4358  0B25  2B27               	goto	u4311
  4359  0B26  2B28               	goto	u4310
  4360  0B27                     u4311:
  4361  0B27  2B3B               	goto	l3737
  4362  0B28                     u4310:
  4363  0B28                     l3729:
  4364  0B28  0A2C               	incf	___fldiv@aexp^(0+128),w
  4365  0B29  1D03               	btfss	3,2
  4366  0B2A  2B2C               	goto	u4321
  4367  0B2B  2B2D               	goto	u4320
  4368  0B2C                     u4321:
  4369  0B2C  2B37               	goto	l3733
  4370  0B2D                     u4320:
  4371  0B2D                     l3731:
  4372  0B2D  3000               	movlw	0
  4373  0B2E  1283               	bcf	3,5	;RP0=0, select bank0
  4374  0B2F  1303               	bcf	3,6	;RP1=0, select bank0
  4375  0B30  00CA               	movwf	___fldiv@a+3
  4376  0B31  3000               	movlw	0
  4377  0B32  00C9               	movwf	___fldiv@a+2
  4378  0B33  3000               	movlw	0
  4379  0B34  00C8               	movwf	___fldiv@a+1
  4380  0B35  3000               	movlw	0
  4381  0B36  00C7               	movwf	___fldiv@a
  4382  0B37                     l3733:
  4383  0B37  1283               	bcf	3,5	;RP0=0, select bank0
  4384  0B38  17C9               	bsf	___fldiv@a+2,7
  4385  0B39                     l3735:
  4386  0B39  01CA               	clrf	___fldiv@a+3
  4387  0B3A  2B45               	goto	l728
  4388  0B3B                     l3737:
  4389  0B3B  3000               	movlw	0
  4390  0B3C  1283               	bcf	3,5	;RP0=0, select bank0
  4391  0B3D  1303               	bcf	3,6	;RP1=0, select bank0
  4392  0B3E  00CA               	movwf	___fldiv@a+3
  4393  0B3F  3000               	movlw	0
  4394  0B40  00C9               	movwf	___fldiv@a+2
  4395  0B41  3000               	movlw	0
  4396  0B42  00C8               	movwf	___fldiv@a+1
  4397  0B43  3000               	movlw	0
  4398  0B44  00C7               	movwf	___fldiv@a
  4399  0B45                     l728:
  4400  0B45  084A               	movf	___fldiv@a+3,w
  4401  0B46  0449               	iorwf	___fldiv@a+2,w
  4402  0B47  0448               	iorwf	___fldiv@a+1,w
  4403  0B48  0447               	iorwf	___fldiv@a,w
  4404  0B49  1D03               	skipz
  4405  0B4A  2B4C               	goto	u4331
  4406  0B4B  2B4D               	goto	u4330
  4407  0B4C                     u4331:
  4408  0B4C  2B6A               	goto	l3747
  4409  0B4D                     u4330:
  4410  0B4D                     l3739:
  4411  0B4D  3000               	movlw	0
  4412  0B4E  00CE               	movwf	___fldiv@b+3
  4413  0B4F  3000               	movlw	0
  4414  0B50  00CD               	movwf	___fldiv@b+2
  4415  0B51  3000               	movlw	0
  4416  0B52  00CC               	movwf	___fldiv@b+1
  4417  0B53  3000               	movlw	0
  4418  0B54  00CB               	movwf	___fldiv@b
  4419  0B55  3080               	movlw	128
  4420  0B56  04CD               	iorwf	___fldiv@b+2,f
  4421  0B57  307F               	movlw	127
  4422  0B58  04CE               	iorwf	___fldiv@b+3,f
  4423  0B59                     l3741:
  4424  0B59  1683               	bsf	3,5	;RP0=1, select bank1
  4425  0B5A  1303               	bcf	3,6	;RP1=0, select bank1
  4426  0B5B  0824               	movf	___fldiv@sign^(0+128),w
  4427  0B5C  00FF               	movwf	btemp+1
  4428  0B5D  087F               	movf	btemp+1,w
  4429  0B5E  1283               	bcf	3,5	;RP0=0, select bank0
  4430  0B5F  1303               	bcf	3,6	;RP1=0, select bank0
  4431  0B60  04CE               	iorwf	___fldiv@b+3,f
  4432  0B61                     l3743:
  4433  0B61  084E               	movf	___fldiv@b+3,w
  4434  0B62  00CA               	movwf	?___fldiv+3
  4435  0B63  084D               	movf	___fldiv@b+2,w
  4436  0B64  00C9               	movwf	?___fldiv+2
  4437  0B65  084C               	movf	___fldiv@b+1,w
  4438  0B66  00C8               	movwf	?___fldiv+1
  4439  0B67  084B               	movf	___fldiv@b,w
  4440  0B68  00C7               	movwf	?___fldiv
  4441  0B69  2D5E               	goto	l730
  4442  0B6A                     l3747:
  4443  0B6A  1683               	bsf	3,5	;RP0=1, select bank1
  4444  0B6B  1303               	bcf	3,6	;RP1=0, select bank1
  4445  0B6C  082B               	movf	___fldiv@bexp^(0+128),w
  4446  0B6D  1D03               	btfss	3,2
  4447  0B6E  2B70               	goto	u4341
  4448  0B6F  2B71               	goto	u4340
  4449  0B70                     u4341:
  4450  0B70  2B7C               	goto	l3753
  4451  0B71                     u4340:
  4452  0B71                     l3749:
  4453  0B71  3000               	movlw	0
  4454  0B72  1283               	bcf	3,5	;RP0=0, select bank0
  4455  0B73  1303               	bcf	3,6	;RP1=0, select bank0
  4456  0B74  00CA               	movwf	?___fldiv+3
  4457  0B75  3000               	movlw	0
  4458  0B76  00C9               	movwf	?___fldiv+2
  4459  0B77  3000               	movlw	0
  4460  0B78  00C8               	movwf	?___fldiv+1
  4461  0B79  3000               	movlw	0
  4462  0B7A  00C7               	movwf	?___fldiv
  4463  0B7B  2D5E               	goto	l730
  4464  0B7C                     l3753:
  4465  0B7C  082B               	movf	___fldiv@bexp^(0+128),w
  4466  0B7D  1283               	bcf	3,5	;RP0=0, select bank0
  4467  0B7E  1303               	bcf	3,6	;RP1=0, select bank0
  4468  0B7F  00CF               	movwf	??___fldiv
  4469  0B80  01D0               	clrf	??___fldiv+1
  4470  0B81  0850               	movf	??___fldiv+1,w
  4471  0B82  00D2               	movwf	??___fldiv+3
  4472  0B83  1683               	bsf	3,5	;RP0=1, select bank1
  4473  0B84  1303               	bcf	3,6	;RP1=0, select bank1
  4474  0B85  082C               	movf	___fldiv@aexp^(0+128),w
  4475  0B86  1283               	bcf	3,5	;RP0=0, select bank0
  4476  0B87  1303               	bcf	3,6	;RP1=0, select bank0
  4477  0B88  024F               	subwf	??___fldiv,w
  4478  0B89  00D1               	movwf	??___fldiv+2
  4479  0B8A  1C03               	skipc
  4480  0B8B  03D2               	decf	??___fldiv+3,f
  4481  0B8C  0851               	movf	??___fldiv+2,w
  4482  0B8D  3E7F               	addlw	127
  4483  0B8E  1683               	bsf	3,5	;RP0=1, select bank1
  4484  0B8F  1303               	bcf	3,6	;RP1=0, select bank1
  4485  0B90  00A5               	movwf	___fldiv@new_exp^(0+128)
  4486  0B91  1283               	bcf	3,5	;RP0=0, select bank0
  4487  0B92  1303               	bcf	3,6	;RP1=0, select bank0
  4488  0B93  0852               	movf	??___fldiv+3,w
  4489  0B94  1803               	skipnc
  4490  0B95  3E01               	addlw	1
  4491  0B96  3E00               	addlw	0
  4492  0B97  1683               	bsf	3,5	;RP0=1, select bank1
  4493  0B98  1303               	bcf	3,6	;RP1=0, select bank1
  4494  0B99  00A6               	movwf	(___fldiv@new_exp+1)^(0+128)
  4495  0B9A                     l3755:
  4496  0B9A  1283               	bcf	3,5	;RP0=0, select bank0
  4497  0B9B  1303               	bcf	3,6	;RP1=0, select bank0
  4498  0B9C  084E               	movf	___fldiv@b+3,w
  4499  0B9D  1683               	bsf	3,5	;RP0=1, select bank1
  4500  0B9E  1303               	bcf	3,6	;RP1=0, select bank1
  4501  0B9F  00A3               	movwf	(___fldiv@rem+3)^(0+128)
  4502  0BA0  1283               	bcf	3,5	;RP0=0, select bank0
  4503  0BA1  1303               	bcf	3,6	;RP1=0, select bank0
  4504  0BA2  084D               	movf	___fldiv@b+2,w
  4505  0BA3  1683               	bsf	3,5	;RP0=1, select bank1
  4506  0BA4  1303               	bcf	3,6	;RP1=0, select bank1
  4507  0BA5  00A2               	movwf	(___fldiv@rem+2)^(0+128)
  4508  0BA6  1283               	bcf	3,5	;RP0=0, select bank0
  4509  0BA7  1303               	bcf	3,6	;RP1=0, select bank0
  4510  0BA8  084C               	movf	___fldiv@b+1,w
  4511  0BA9  1683               	bsf	3,5	;RP0=1, select bank1
  4512  0BAA  1303               	bcf	3,6	;RP1=0, select bank1
  4513  0BAB  00A1               	movwf	(___fldiv@rem+1)^(0+128)
  4514  0BAC  1283               	bcf	3,5	;RP0=0, select bank0
  4515  0BAD  1303               	bcf	3,6	;RP1=0, select bank0
  4516  0BAE  084B               	movf	___fldiv@b,w
  4517  0BAF  1683               	bsf	3,5	;RP0=1, select bank1
  4518  0BB0  1303               	bcf	3,6	;RP1=0, select bank1
  4519  0BB1  00A0               	movwf	___fldiv@rem^(0+128)
  4520  0BB2                     l3757:
  4521  0BB2  3000               	movlw	0
  4522  0BB3  1283               	bcf	3,5	;RP0=0, select bank0
  4523  0BB4  1303               	bcf	3,6	;RP1=0, select bank0
  4524  0BB5  00CE               	movwf	___fldiv@b+3
  4525  0BB6  3000               	movlw	0
  4526  0BB7  00CD               	movwf	___fldiv@b+2
  4527  0BB8  3000               	movlw	0
  4528  0BB9  00CC               	movwf	___fldiv@b+1
  4529  0BBA  3000               	movlw	0
  4530  0BBB  00CB               	movwf	___fldiv@b
  4531  0BBC                     l3759:
  4532  0BBC  3000               	movlw	0
  4533  0BBD  1683               	bsf	3,5	;RP0=1, select bank1
  4534  0BBE  1303               	bcf	3,6	;RP1=0, select bank1
  4535  0BBF  00AA               	movwf	(___fldiv@grs+3)^(0+128)
  4536  0BC0  3000               	movlw	0
  4537  0BC1  00A9               	movwf	(___fldiv@grs+2)^(0+128)
  4538  0BC2  3000               	movlw	0
  4539  0BC3  00A8               	movwf	(___fldiv@grs+1)^(0+128)
  4540  0BC4  3000               	movlw	0
  4541  0BC5  00A7               	movwf	___fldiv@grs^(0+128)
  4542  0BC6                     l3761:
  4543  0BC6  01AC               	clrf	___fldiv@aexp^(0+128)
  4544  0BC7  2C4A               	goto	l3781
  4545  0BC8                     l3763:
  4546  0BC8  082C               	movf	___fldiv@aexp^(0+128),w
  4547  0BC9  1903               	btfsc	3,2
  4548  0BCA  2BCC               	goto	u4351
  4549  0BCB  2BCD               	goto	u4350
  4550  0BCC                     u4351:
  4551  0BCC  2BFC               	goto	l3773
  4552  0BCD                     u4350:
  4553  0BCD                     l3765:
  4554  0BCD  3001               	movlw	1
  4555  0BCE  1283               	bcf	3,5	;RP0=0, select bank0
  4556  0BCF  1303               	bcf	3,6	;RP1=0, select bank0
  4557  0BD0  00CF               	movwf	??___fldiv
  4558  0BD1                     u4365:
  4559  0BD1  1003               	clrc
  4560  0BD2  1683               	bsf	3,5	;RP0=1, select bank1
  4561  0BD3  1303               	bcf	3,6	;RP1=0, select bank1
  4562  0BD4  0DA0               	rlf	___fldiv@rem^(0+128),f
  4563  0BD5  0DA1               	rlf	(___fldiv@rem+1)^(0+128),f
  4564  0BD6  0DA2               	rlf	(___fldiv@rem+2)^(0+128),f
  4565  0BD7  0DA3               	rlf	(___fldiv@rem+3)^(0+128),f
  4566  0BD8  1283               	bcf	3,5	;RP0=0, select bank0
  4567  0BD9  1303               	bcf	3,6	;RP1=0, select bank0
  4568  0BDA  0BCF               	decfsz	??___fldiv,f
  4569  0BDB  2BD1               	goto	u4365
  4570  0BDC  3001               	movlw	1
  4571  0BDD  00CF               	movwf	??___fldiv
  4572  0BDE                     u4375:
  4573  0BDE  1003               	clrc
  4574  0BDF  0DCB               	rlf	___fldiv@b,f
  4575  0BE0  0DCC               	rlf	___fldiv@b+1,f
  4576  0BE1  0DCD               	rlf	___fldiv@b+2,f
  4577  0BE2  0DCE               	rlf	___fldiv@b+3,f
  4578  0BE3  0BCF               	decfsz	??___fldiv,f
  4579  0BE4  2BDE               	goto	u4375
  4580  0BE5                     l3767:
  4581  0BE5  1683               	bsf	3,5	;RP0=1, select bank1
  4582  0BE6  1303               	bcf	3,6	;RP1=0, select bank1
  4583  0BE7  1FAA               	btfss	(___fldiv@grs+3)^(0+128),7
  4584  0BE8  2BEA               	goto	u4381
  4585  0BE9  2BEB               	goto	u4380
  4586  0BEA                     u4381:
  4587  0BEA  2BEE               	goto	l3771
  4588  0BEB                     u4380:
  4589  0BEB                     l3769:
  4590  0BEB  1283               	bcf	3,5	;RP0=0, select bank0
  4591  0BEC  1303               	bcf	3,6	;RP1=0, select bank0
  4592  0BED  144B               	bsf	___fldiv@b,0
  4593  0BEE                     l3771:
  4594  0BEE  3001               	movlw	1
  4595  0BEF  1283               	bcf	3,5	;RP0=0, select bank0
  4596  0BF0  00CF               	movwf	??___fldiv
  4597  0BF1                     u4395:
  4598  0BF1  1003               	clrc
  4599  0BF2  1683               	bsf	3,5	;RP0=1, select bank1
  4600  0BF3  1303               	bcf	3,6	;RP1=0, select bank1
  4601  0BF4  0DA7               	rlf	___fldiv@grs^(0+128),f
  4602  0BF5  0DA8               	rlf	(___fldiv@grs+1)^(0+128),f
  4603  0BF6  0DA9               	rlf	(___fldiv@grs+2)^(0+128),f
  4604  0BF7  0DAA               	rlf	(___fldiv@grs+3)^(0+128),f
  4605  0BF8  1283               	bcf	3,5	;RP0=0, select bank0
  4606  0BF9  1303               	bcf	3,6	;RP1=0, select bank0
  4607  0BFA  0BCF               	decfsz	??___fldiv,f
  4608  0BFB  2BF1               	goto	u4395
  4609  0BFC                     l3773:
  4610  0BFC  1283               	bcf	3,5	;RP0=0, select bank0
  4611  0BFD  084A               	movf	___fldiv@a+3,w
  4612  0BFE  1683               	bsf	3,5	;RP0=1, select bank1
  4613  0BFF  1303               	bcf	3,6	;RP1=0, select bank1
  4614  0C00  0223               	subwf	(___fldiv@rem+3)^(0+128),w
  4615  0C01  1D03               	skipz
  4616  0C02  2C19               	goto	u4405
  4617  0C03  1283               	bcf	3,5	;RP0=0, select bank0
  4618  0C04  1303               	bcf	3,6	;RP1=0, select bank0
  4619  0C05  0849               	movf	___fldiv@a+2,w
  4620  0C06  1683               	bsf	3,5	;RP0=1, select bank1
  4621  0C07  1303               	bcf	3,6	;RP1=0, select bank1
  4622  0C08  0222               	subwf	(___fldiv@rem+2)^(0+128),w
  4623  0C09  1D03               	skipz
  4624  0C0A  2C19               	goto	u4405
  4625  0C0B  1283               	bcf	3,5	;RP0=0, select bank0
  4626  0C0C  1303               	bcf	3,6	;RP1=0, select bank0
  4627  0C0D  0848               	movf	___fldiv@a+1,w
  4628  0C0E  1683               	bsf	3,5	;RP0=1, select bank1
  4629  0C0F  1303               	bcf	3,6	;RP1=0, select bank1
  4630  0C10  0221               	subwf	(___fldiv@rem+1)^(0+128),w
  4631  0C11  1D03               	skipz
  4632  0C12  2C19               	goto	u4405
  4633  0C13  1283               	bcf	3,5	;RP0=0, select bank0
  4634  0C14  1303               	bcf	3,6	;RP1=0, select bank0
  4635  0C15  0847               	movf	___fldiv@a,w
  4636  0C16  1683               	bsf	3,5	;RP0=1, select bank1
  4637  0C17  1303               	bcf	3,6	;RP1=0, select bank1
  4638  0C18  0220               	subwf	___fldiv@rem^(0+128),w
  4639  0C19                     u4405:
  4640  0C19  1C03               	skipc
  4641  0C1A  2C1C               	goto	u4401
  4642  0C1B  2C1D               	goto	u4400
  4643  0C1C                     u4401:
  4644  0C1C  2C46               	goto	l3779
  4645  0C1D                     u4400:
  4646  0C1D                     l3775:
  4647  0C1D  172A               	bsf	(___fldiv@grs^(0+128)+3),6
  4648  0C1E                     l3777:
  4649  0C1E  1283               	bcf	3,5	;RP0=0, select bank0
  4650  0C1F  1303               	bcf	3,6	;RP1=0, select bank0
  4651  0C20  0847               	movf	___fldiv@a,w
  4652  0C21  1683               	bsf	3,5	;RP0=1, select bank1
  4653  0C22  1303               	bcf	3,6	;RP1=0, select bank1
  4654  0C23  02A0               	subwf	___fldiv@rem^(0+128),f
  4655  0C24  1283               	bcf	3,5	;RP0=0, select bank0
  4656  0C25  1303               	bcf	3,6	;RP1=0, select bank0
  4657  0C26  0848               	movf	___fldiv@a+1,w
  4658  0C27  1C03               	skipc
  4659  0C28  0F48               	incfsz	___fldiv@a+1,w
  4660  0C29  2C2B               	goto	u4415
  4661  0C2A  2C2E               	goto	u4416
  4662  0C2B                     u4415:
  4663  0C2B  1683               	bsf	3,5	;RP0=1, select bank1
  4664  0C2C  1303               	bcf	3,6	;RP1=0, select bank1
  4665  0C2D  02A1               	subwf	(___fldiv@rem+1)^(0+128),f
  4666  0C2E                     u4416:
  4667  0C2E  1283               	bcf	3,5	;RP0=0, select bank0
  4668  0C2F  1303               	bcf	3,6	;RP1=0, select bank0
  4669  0C30  0849               	movf	___fldiv@a+2,w
  4670  0C31  1C03               	skipc
  4671  0C32  0F49               	incfsz	___fldiv@a+2,w
  4672  0C33  2C35               	goto	u4417
  4673  0C34  2C38               	goto	u4418
  4674  0C35                     u4417:
  4675  0C35  1683               	bsf	3,5	;RP0=1, select bank1
  4676  0C36  1303               	bcf	3,6	;RP1=0, select bank1
  4677  0C37  02A2               	subwf	(___fldiv@rem+2)^(0+128),f
  4678  0C38                     u4418:
  4679  0C38  1283               	bcf	3,5	;RP0=0, select bank0
  4680  0C39  1303               	bcf	3,6	;RP1=0, select bank0
  4681  0C3A  084A               	movf	___fldiv@a+3,w
  4682  0C3B  1C03               	skipc
  4683  0C3C  0F4A               	incfsz	___fldiv@a+3,w
  4684  0C3D  2C3F               	goto	u4419
  4685  0C3E  2C42               	goto	u4410
  4686  0C3F                     u4419:
  4687  0C3F  1683               	bsf	3,5	;RP0=1, select bank1
  4688  0C40  1303               	bcf	3,6	;RP1=0, select bank1
  4689  0C41  02A3               	subwf	(___fldiv@rem+3)^(0+128),f
  4690  0C42                     u4410:
  4691  0C42  1283               	bcf	3,5	;RP0=0, select bank0
  4692  0C43  1303               	bcf	3,6	;RP1=0, select bank0
  4693  0C44  1683               	bsf	3,5	;RP0=1, select bank1
  4694  0C45  1303               	bcf	3,6	;RP1=0, select bank1
  4695  0C46                     l3779:
  4696  0C46  3001               	movlw	1
  4697  0C47  00FF               	movwf	btemp+1
  4698  0C48  087F               	movf	btemp+1,w
  4699  0C49  07AC               	addwf	___fldiv@aexp^(0+128),f
  4700  0C4A                     l3781:
  4701  0C4A  301A               	movlw	26
  4702  0C4B  022C               	subwf	___fldiv@aexp^(0+128),w
  4703  0C4C  1C03               	skipc
  4704  0C4D  2C4F               	goto	u4421
  4705  0C4E  2C50               	goto	u4420
  4706  0C4F                     u4421:
  4707  0C4F  2BC8               	goto	l3763
  4708  0C50                     u4420:
  4709  0C50                     l3783:
  4710  0C50  0823               	movf	(___fldiv@rem+3)^(0+128),w
  4711  0C51  0422               	iorwf	(___fldiv@rem+2)^(0+128),w
  4712  0C52  0421               	iorwf	(___fldiv@rem+1)^(0+128),w
  4713  0C53  0420               	iorwf	___fldiv@rem^(0+128),w
  4714  0C54  1903               	skipnz
  4715  0C55  2C57               	goto	u4431
  4716  0C56  2C58               	goto	u4430
  4717  0C57                     u4431:
  4718  0C57  2C82               	goto	l3797
  4719  0C58                     u4430:
  4720  0C58                     l3785:
  4721  0C58  1427               	bsf	___fldiv@grs^(0+128),0
  4722  0C59  2C82               	goto	l3797
  4723  0C5A                     l3787:
  4724  0C5A  3001               	movlw	1
  4725  0C5B  00CF               	movwf	??___fldiv
  4726  0C5C                     u4445:
  4727  0C5C  1003               	clrc
  4728  0C5D  0DCB               	rlf	___fldiv@b,f
  4729  0C5E  0DCC               	rlf	___fldiv@b+1,f
  4730  0C5F  0DCD               	rlf	___fldiv@b+2,f
  4731  0C60  0DCE               	rlf	___fldiv@b+3,f
  4732  0C61  0BCF               	decfsz	??___fldiv,f
  4733  0C62  2C5C               	goto	u4445
  4734  0C63                     l3789:
  4735  0C63  1683               	bsf	3,5	;RP0=1, select bank1
  4736  0C64  1303               	bcf	3,6	;RP1=0, select bank1
  4737  0C65  1FAA               	btfss	(___fldiv@grs+3)^(0+128),7
  4738  0C66  2C68               	goto	u4451
  4739  0C67  2C69               	goto	u4450
  4740  0C68                     u4451:
  4741  0C68  2C6C               	goto	l3793
  4742  0C69                     u4450:
  4743  0C69                     l3791:
  4744  0C69  1283               	bcf	3,5	;RP0=0, select bank0
  4745  0C6A  1303               	bcf	3,6	;RP1=0, select bank0
  4746  0C6B  144B               	bsf	___fldiv@b,0
  4747  0C6C                     l3793:
  4748  0C6C  3001               	movlw	1
  4749  0C6D  1283               	bcf	3,5	;RP0=0, select bank0
  4750  0C6E  00CF               	movwf	??___fldiv
  4751  0C6F                     u4465:
  4752  0C6F  1003               	clrc
  4753  0C70  1683               	bsf	3,5	;RP0=1, select bank1
  4754  0C71  1303               	bcf	3,6	;RP1=0, select bank1
  4755  0C72  0DA7               	rlf	___fldiv@grs^(0+128),f
  4756  0C73  0DA8               	rlf	(___fldiv@grs+1)^(0+128),f
  4757  0C74  0DA9               	rlf	(___fldiv@grs+2)^(0+128),f
  4758  0C75  0DAA               	rlf	(___fldiv@grs+3)^(0+128),f
  4759  0C76  1283               	bcf	3,5	;RP0=0, select bank0
  4760  0C77  1303               	bcf	3,6	;RP1=0, select bank0
  4761  0C78  0BCF               	decfsz	??___fldiv,f
  4762  0C79  2C6F               	goto	u4465
  4763  0C7A                     l3795:
  4764  0C7A  30FF               	movlw	255
  4765  0C7B  1683               	bsf	3,5	;RP0=1, select bank1
  4766  0C7C  1303               	bcf	3,6	;RP1=0, select bank1
  4767  0C7D  07A5               	addwf	___fldiv@new_exp^(0+128),f
  4768  0C7E  1803               	skipnc
  4769  0C7F  0AA6               	incf	(___fldiv@new_exp+1)^(0+128),f
  4770  0C80  30FF               	movlw	255
  4771  0C81  07A6               	addwf	(___fldiv@new_exp+1)^(0+128),f
  4772  0C82                     l3797:
  4773  0C82  1283               	bcf	3,5	;RP0=0, select bank0
  4774  0C83  1303               	bcf	3,6	;RP1=0, select bank0
  4775  0C84  1FCD               	btfss	___fldiv@b+2,7
  4776  0C85  2C87               	goto	u4471
  4777  0C86  2C88               	goto	u4470
  4778  0C87                     u4471:
  4779  0C87  2C5A               	goto	l3787
  4780  0C88                     u4470:
  4781  0C88                     l3799:
  4782  0C88  1683               	bsf	3,5	;RP0=1, select bank1
  4783  0C89  1303               	bcf	3,6	;RP1=0, select bank1
  4784  0C8A  01AC               	clrf	___fldiv@aexp^(0+128)
  4785  0C8B                     l3801:
  4786  0C8B  1FAA               	btfss	(___fldiv@grs+3)^(0+128),7
  4787  0C8C  2C8E               	goto	u4481
  4788  0C8D  2C8F               	goto	u4480
  4789  0C8E                     u4481:
  4790  0C8E  2CBB               	goto	l3809
  4791  0C8F                     u4480:
  4792  0C8F                     l3803:
  4793  0C8F  30FF               	movlw	255
  4794  0C90  0527               	andwf	___fldiv@grs^(0+128),w
  4795  0C91  1283               	bcf	3,5	;RP0=0, select bank0
  4796  0C92  1303               	bcf	3,6	;RP1=0, select bank0
  4797  0C93  00CF               	movwf	??___fldiv
  4798  0C94  30FF               	movlw	255
  4799  0C95  1683               	bsf	3,5	;RP0=1, select bank1
  4800  0C96  1303               	bcf	3,6	;RP1=0, select bank1
  4801  0C97  0528               	andwf	(___fldiv@grs+1)^(0+128),w
  4802  0C98  1283               	bcf	3,5	;RP0=0, select bank0
  4803  0C99  1303               	bcf	3,6	;RP1=0, select bank0
  4804  0C9A  00D0               	movwf	??___fldiv+1
  4805  0C9B  30FF               	movlw	255
  4806  0C9C  1683               	bsf	3,5	;RP0=1, select bank1
  4807  0C9D  1303               	bcf	3,6	;RP1=0, select bank1
  4808  0C9E  0529               	andwf	(___fldiv@grs+2)^(0+128),w
  4809  0C9F  1283               	bcf	3,5	;RP0=0, select bank0
  4810  0CA0  1303               	bcf	3,6	;RP1=0, select bank0
  4811  0CA1  00D1               	movwf	??___fldiv+2
  4812  0CA2  307F               	movlw	127
  4813  0CA3  1683               	bsf	3,5	;RP0=1, select bank1
  4814  0CA4  1303               	bcf	3,6	;RP1=0, select bank1
  4815  0CA5  052A               	andwf	(___fldiv@grs+3)^(0+128),w
  4816  0CA6  1283               	bcf	3,5	;RP0=0, select bank0
  4817  0CA7  1303               	bcf	3,6	;RP1=0, select bank0
  4818  0CA8  00D2               	movwf	??___fldiv+3
  4819  0CA9  0852               	movf	??___fldiv+3,w
  4820  0CAA  0451               	iorwf	??___fldiv+2,w
  4821  0CAB  0450               	iorwf	??___fldiv+1,w
  4822  0CAC  044F               	iorwf	??___fldiv,w
  4823  0CAD  1903               	skipnz
  4824  0CAE  2CB0               	goto	u4491
  4825  0CAF  2CB1               	goto	u4490
  4826  0CB0                     u4491:
  4827  0CB0  2CB6               	goto	l744
  4828  0CB1                     u4490:
  4829  0CB1                     l3805:
  4830  0CB1  1683               	bsf	3,5	;RP0=1, select bank1
  4831  0CB2  1303               	bcf	3,6	;RP1=0, select bank1
  4832  0CB3  01AC               	clrf	___fldiv@aexp^(0+128)
  4833  0CB4  0AAC               	incf	___fldiv@aexp^(0+128),f
  4834  0CB5  2CBB               	goto	l3809
  4835  0CB6                     l744:
  4836  0CB6  1C4B               	btfss	___fldiv@b,0
  4837  0CB7  2CB9               	goto	u4501
  4838  0CB8  2CBA               	goto	u4500
  4839  0CB9                     u4501:
  4840  0CB9  2CBB               	goto	l3809
  4841  0CBA                     u4500:
  4842  0CBA  2CB1               	goto	l3805
  4843  0CBB                     l3809:
  4844  0CBB  1683               	bsf	3,5	;RP0=1, select bank1
  4845  0CBC  1303               	bcf	3,6	;RP1=0, select bank1
  4846  0CBD  082C               	movf	___fldiv@aexp^(0+128),w
  4847  0CBE  1903               	btfsc	3,2
  4848  0CBF  2CC1               	goto	u4511
  4849  0CC0  2CC2               	goto	u4510
  4850  0CC1                     u4511:
  4851  0CC1  2CF7               	goto	l3819
  4852  0CC2                     u4510:
  4853  0CC2                     l3811:
  4854  0CC2  3001               	movlw	1
  4855  0CC3  1283               	bcf	3,5	;RP0=0, select bank0
  4856  0CC4  1303               	bcf	3,6	;RP1=0, select bank0
  4857  0CC5  07CB               	addwf	___fldiv@b,f
  4858  0CC6  3000               	movlw	0
  4859  0CC7  1803               	skipnc
  4860  0CC8  3001               	movlw	1
  4861  0CC9  07CC               	addwf	___fldiv@b+1,f
  4862  0CCA  3000               	movlw	0
  4863  0CCB  1803               	skipnc
  4864  0CCC  3001               	movlw	1
  4865  0CCD  07CD               	addwf	___fldiv@b+2,f
  4866  0CCE  3000               	movlw	0
  4867  0CCF  1803               	skipnc
  4868  0CD0  3001               	movlw	1
  4869  0CD1  07CE               	addwf	___fldiv@b+3,f
  4870  0CD2                     l3813:
  4871  0CD2  1C4E               	btfss	___fldiv@b+3,0
  4872  0CD3  2CD5               	goto	u4521
  4873  0CD4  2CD6               	goto	u4520
  4874  0CD5                     u4521:
  4875  0CD5  2CF7               	goto	l3819
  4876  0CD6                     u4520:
  4877  0CD6                     l3815:
  4878  0CD6  084B               	movf	___fldiv@b,w
  4879  0CD7  00CF               	movwf	??___fldiv
  4880  0CD8  084C               	movf	___fldiv@b+1,w
  4881  0CD9  00D0               	movwf	??___fldiv+1
  4882  0CDA  084D               	movf	___fldiv@b+2,w
  4883  0CDB  00D1               	movwf	??___fldiv+2
  4884  0CDC  084E               	movf	___fldiv@b+3,w
  4885  0CDD  00D2               	movwf	??___fldiv+3
  4886  0CDE  3001               	movlw	1
  4887  0CDF  00D3               	movwf	??___fldiv+4
  4888  0CE0                     u4535:
  4889  0CE0  0D52               	rlf	??___fldiv+3,w
  4890  0CE1  0CD2               	rrf	??___fldiv+3,f
  4891  0CE2  0CD1               	rrf	??___fldiv+2,f
  4892  0CE3  0CD0               	rrf	??___fldiv+1,f
  4893  0CE4  0CCF               	rrf	??___fldiv,f
  4894  0CE5                     u4530:
  4895  0CE5  0BD3               	decfsz	??___fldiv+4,f
  4896  0CE6  2CE0               	goto	u4535
  4897  0CE7  0852               	movf	??___fldiv+3,w
  4898  0CE8  00CE               	movwf	___fldiv@b+3
  4899  0CE9  0851               	movf	??___fldiv+2,w
  4900  0CEA  00CD               	movwf	___fldiv@b+2
  4901  0CEB  0850               	movf	??___fldiv+1,w
  4902  0CEC  00CC               	movwf	___fldiv@b+1
  4903  0CED  084F               	movf	??___fldiv,w
  4904  0CEE  00CB               	movwf	___fldiv@b
  4905  0CEF                     l3817:
  4906  0CEF  3001               	movlw	1
  4907  0CF0  1683               	bsf	3,5	;RP0=1, select bank1
  4908  0CF1  1303               	bcf	3,6	;RP1=0, select bank1
  4909  0CF2  07A5               	addwf	___fldiv@new_exp^(0+128),f
  4910  0CF3  1803               	skipnc
  4911  0CF4  0AA6               	incf	(___fldiv@new_exp+1)^(0+128),f
  4912  0CF5  3000               	movlw	0
  4913  0CF6  07A6               	addwf	(___fldiv@new_exp+1)^(0+128),f
  4914  0CF7                     l3819:
  4915  0CF7  1683               	bsf	3,5	;RP0=1, select bank1
  4916  0CF8  1303               	bcf	3,6	;RP1=0, select bank1
  4917  0CF9  0826               	movf	(___fldiv@new_exp+1)^(0+128),w
  4918  0CFA  3A80               	xorlw	128
  4919  0CFB  00FF               	movwf	btemp+1
  4920  0CFC  3080               	movlw	128
  4921  0CFD  027F               	subwf	btemp+1,w
  4922  0CFE  1D03               	skipz
  4923  0CFF  2D02               	goto	u4545
  4924  0D00  30FF               	movlw	255
  4925  0D01  0225               	subwf	___fldiv@new_exp^(0+128),w
  4926  0D02                     u4545:
  4927  0D02  1C03               	skipc
  4928  0D03  2D05               	goto	u4541
  4929  0D04  2D06               	goto	u4540
  4930  0D05                     u4541:
  4931  0D05  2D16               	goto	l3823
  4932  0D06                     u4540:
  4933  0D06                     l3821:
  4934  0D06  30FF               	movlw	255
  4935  0D07  1683               	bsf	3,5	;RP0=1, select bank1
  4936  0D08  1303               	bcf	3,6	;RP1=0, select bank1
  4937  0D09  00A5               	movwf	___fldiv@new_exp^(0+128)
  4938  0D0A  3000               	movlw	0
  4939  0D0B  00A6               	movwf	(___fldiv@new_exp^(0+128)+1)
  4940  0D0C  3000               	movlw	0
  4941  0D0D  1283               	bcf	3,5	;RP0=0, select bank0
  4942  0D0E  1303               	bcf	3,6	;RP1=0, select bank0
  4943  0D0F  00CE               	movwf	___fldiv@b+3
  4944  0D10  3000               	movlw	0
  4945  0D11  00CD               	movwf	___fldiv@b+2
  4946  0D12  3000               	movlw	0
  4947  0D13  00CC               	movwf	___fldiv@b+1
  4948  0D14  3000               	movlw	0
  4949  0D15  00CB               	movwf	___fldiv@b
  4950  0D16                     l3823:
  4951  0D16  1683               	bsf	3,5	;RP0=1, select bank1
  4952  0D17  1303               	bcf	3,6	;RP1=0, select bank1
  4953  0D18  0826               	movf	(___fldiv@new_exp+1)^(0+128),w
  4954  0D19  3A80               	xorlw	128
  4955  0D1A  00FF               	movwf	btemp+1
  4956  0D1B  3080               	movlw	128
  4957  0D1C  027F               	subwf	btemp+1,w
  4958  0D1D  1D03               	skipz
  4959  0D1E  2D21               	goto	u4555
  4960  0D1F  3001               	movlw	1
  4961  0D20  0225               	subwf	___fldiv@new_exp^(0+128),w
  4962  0D21                     u4555:
  4963  0D21  1803               	skipnc
  4964  0D22  2D24               	goto	u4551
  4965  0D23  2D25               	goto	u4550
  4966  0D24                     u4551:
  4967  0D24  2D36               	goto	l3831
  4968  0D25                     u4550:
  4969  0D25                     l3825:
  4970  0D25  1683               	bsf	3,5	;RP0=1, select bank1
  4971  0D26  1303               	bcf	3,6	;RP1=0, select bank1
  4972  0D27  01A5               	clrf	___fldiv@new_exp^(0+128)
  4973  0D28  01A6               	clrf	(___fldiv@new_exp+1)^(0+128)
  4974  0D29                     l3827:
  4975  0D29  3000               	movlw	0
  4976  0D2A  1283               	bcf	3,5	;RP0=0, select bank0
  4977  0D2B  1303               	bcf	3,6	;RP1=0, select bank0
  4978  0D2C  00CE               	movwf	___fldiv@b+3
  4979  0D2D  3000               	movlw	0
  4980  0D2E  00CD               	movwf	___fldiv@b+2
  4981  0D2F  3000               	movlw	0
  4982  0D30  00CC               	movwf	___fldiv@b+1
  4983  0D31  3000               	movlw	0
  4984  0D32  00CB               	movwf	___fldiv@b
  4985  0D33                     l3829:
  4986  0D33  1683               	bsf	3,5	;RP0=1, select bank1
  4987  0D34  1303               	bcf	3,6	;RP1=0, select bank1
  4988  0D35  01A4               	clrf	___fldiv@sign^(0+128)
  4989  0D36                     l3831:
  4990  0D36  1683               	bsf	3,5	;RP0=1, select bank1
  4991  0D37  1303               	bcf	3,6	;RP1=0, select bank1
  4992  0D38  0825               	movf	___fldiv@new_exp^(0+128),w
  4993  0D39  00FF               	movwf	btemp+1
  4994  0D3A  087F               	movf	btemp+1,w
  4995  0D3B  00AB               	movwf	___fldiv@bexp^(0+128)
  4996  0D3C                     l3833:
  4997  0D3C  1C2B               	btfss	___fldiv@bexp^(0+128),0
  4998  0D3D  2D3F               	goto	u4561
  4999  0D3E  2D40               	goto	u4560
  5000  0D3F                     u4561:
  5001  0D3F  2D44               	goto	l3837
  5002  0D40                     u4560:
  5003  0D40                     l3835:
  5004  0D40  1283               	bcf	3,5	;RP0=0, select bank0
  5005  0D41  1303               	bcf	3,6	;RP1=0, select bank0
  5006  0D42  17CD               	bsf	___fldiv@b+2,7
  5007  0D43  2D4A               	goto	l752
  5008  0D44                     l3837:
  5009  0D44  307F               	movlw	127
  5010  0D45  00FF               	movwf	btemp+1
  5011  0D46  087F               	movf	btemp+1,w
  5012  0D47  1283               	bcf	3,5	;RP0=0, select bank0
  5013  0D48  1303               	bcf	3,6	;RP1=0, select bank0
  5014  0D49  05CD               	andwf	___fldiv@b+2,f
  5015  0D4A                     l752:
  5016  0D4A  1683               	bsf	3,5	;RP0=1, select bank1
  5017  0D4B  1303               	bcf	3,6	;RP1=0, select bank1
  5018  0D4C  082B               	movf	___fldiv@bexp^(0+128),w
  5019  0D4D  1283               	bcf	3,5	;RP0=0, select bank0
  5020  0D4E  1303               	bcf	3,6	;RP1=0, select bank0
  5021  0D4F  00CF               	movwf	??___fldiv
  5022  0D50  1003               	clrc
  5023  0D51  0C4F               	rrf	??___fldiv,w
  5024  0D52  00FF               	movwf	btemp+1
  5025  0D53  087F               	movf	btemp+1,w
  5026  0D54  00CE               	movwf	___fldiv@b+3
  5027  0D55  1683               	bsf	3,5	;RP0=1, select bank1
  5028  0D56  1303               	bcf	3,6	;RP1=0, select bank1
  5029  0D57  0824               	movf	___fldiv@sign^(0+128),w
  5030  0D58  00FF               	movwf	btemp+1
  5031  0D59  087F               	movf	btemp+1,w
  5032  0D5A  1283               	bcf	3,5	;RP0=0, select bank0
  5033  0D5B  1303               	bcf	3,6	;RP1=0, select bank0
  5034  0D5C  04CE               	iorwf	___fldiv@b+3,f
  5035  0D5D  2B61               	goto	l3743
  5036  0D5E                     l730:
  5037  0D5E  0008               	return
  5038  0D5F                     __end_of___fldiv:
  5039                           
  5040                           	psect	text8
  5041  03E5                     __ptext8:	
  5042 ;; *************** function ___fladd *****************
  5043 ;; Defined at:
  5044 ;;		line 10 in file "C:\Program Files\Microchip\xc8\v2.20\pic\sources\c90\common\sprcadd.c"
  5045 ;; Parameters:    Size  Location     Type
  5046 ;;  b               4   13[BANK1 ] unsigned char 
  5047 ;;  a               4   17[BANK1 ] unsigned char 
  5048 ;; Auto vars:     Size  Location     Type
  5049 ;;  grs             1   63[BANK0 ] unsigned char 
  5050 ;;  bexp            1   62[BANK0 ] unsigned char 
  5051 ;;  aexp            1   61[BANK0 ] unsigned char 
  5052 ;;  signs           1   60[BANK0 ] unsigned char 
  5053 ;; Return value:  Size  Location     Type
  5054 ;;                  4   13[BANK1 ] unsigned char 
  5055 ;; Registers used:
  5056 ;;		wreg, status,2, status,0, btemp+1
  5057 ;; Tracked objects:
  5058 ;;		On entry : 0/0
  5059 ;;		On exit  : 0/0
  5060 ;;		Unchanged: 0/0
  5061 ;; Data sizes:     COMMON   BANK0   BANK1   BANK3   BANK2
  5062 ;;      Params:         0       0       8       0       0
  5063 ;;      Locals:         0       4       0       0       0
  5064 ;;      Temps:          0       8       0       0       0
  5065 ;;      Totals:         0      12       8       0       0
  5066 ;;Total ram usage:       20 bytes
  5067 ;; Hardware stack levels used:    1
  5068 ;; Hardware stack levels required when called:    3
  5069 ;; This function calls:
  5070 ;;		Nothing
  5071 ;; This function is called by:
  5072 ;;		_temp_pos
  5073 ;; This function uses a non-reentrant model
  5074 ;;
  5075                           
  5076                           
  5077                           ;psect for function ___fladd
  5078  03E5                     ___fladd:
  5079  03E5                     l3497:	
  5080                           ;incstack = 0
  5081                           ; Regs used in ___fladd: [wreg+status,2+status,0+btemp+1]
  5082                           
  5083  03E5  1683               	bsf	3,5	;RP0=1, select bank1
  5084  03E6  1303               	bcf	3,6	;RP1=0, select bank1
  5085  03E7  0830               	movf	(___fladd@b^(0+128)+3),w
  5086  03E8  3980               	andlw	128
  5087  03E9  00FF               	movwf	btemp+1
  5088  03EA  087F               	movf	btemp+1,w
  5089  03EB  1283               	bcf	3,5	;RP0=0, select bank0
  5090  03EC  1303               	bcf	3,6	;RP1=0, select bank0
  5091  03ED  00DC               	movwf	___fladd@signs
  5092  03EE                     l3499:
  5093  03EE  1683               	bsf	3,5	;RP0=1, select bank1
  5094  03EF  1303               	bcf	3,6	;RP1=0, select bank1
  5095  03F0  0830               	movf	(___fladd@b^(0+128)+3),w
  5096  03F1  1283               	bcf	3,5	;RP0=0, select bank0
  5097  03F2  1303               	bcf	3,6	;RP1=0, select bank0
  5098  03F3  00D4               	movwf	??___fladd
  5099  03F4  0754               	addwf	??___fladd,w
  5100  03F5  00FF               	movwf	btemp+1
  5101  03F6  087F               	movf	btemp+1,w
  5102  03F7  00DE               	movwf	___fladd@bexp
  5103  03F8                     l3501:
  5104  03F8  1683               	bsf	3,5	;RP0=1, select bank1
  5105  03F9  1303               	bcf	3,6	;RP1=0, select bank1
  5106  03FA  1FAF               	btfss	(___fladd@b^(0+128)+2),7
  5107  03FB  2BFD               	goto	u3811
  5108  03FC  2BFE               	goto	u3810
  5109  03FD                     u3811:
  5110  03FD  2C01               	goto	l3505
  5111  03FE                     u3810:
  5112  03FE                     l3503:
  5113  03FE  1283               	bcf	3,5	;RP0=0, select bank0
  5114  03FF  1303               	bcf	3,6	;RP1=0, select bank0
  5115  0400  145E               	bsf	___fladd@bexp,0
  5116  0401                     l3505:
  5117  0401  1283               	bcf	3,5	;RP0=0, select bank0
  5118  0402  085E               	movf	___fladd@bexp,w
  5119  0403  1903               	btfsc	3,2
  5120  0404  2C06               	goto	u3821
  5121  0405  2C07               	goto	u3820
  5122  0406                     u3821:
  5123  0406  2C1B               	goto	l3515
  5124  0407                     u3820:
  5125  0407                     l3507:
  5126  0407  0A5E               	incf	___fladd@bexp,w
  5127  0408  1D03               	btfss	3,2
  5128  0409  2C0B               	goto	u3831
  5129  040A  2C0C               	goto	u3830
  5130  040B                     u3831:
  5131  040B  2C16               	goto	l3511
  5132  040C                     u3830:
  5133  040C                     l3509:
  5134  040C  3000               	movlw	0
  5135  040D  1683               	bsf	3,5	;RP0=1, select bank1
  5136  040E  1303               	bcf	3,6	;RP1=0, select bank1
  5137  040F  00B0               	movwf	(___fladd@b+3)^(0+128)
  5138  0410  3000               	movlw	0
  5139  0411  00AF               	movwf	(___fladd@b+2)^(0+128)
  5140  0412  3000               	movlw	0
  5141  0413  00AE               	movwf	(___fladd@b+1)^(0+128)
  5142  0414  3000               	movlw	0
  5143  0415  00AD               	movwf	___fladd@b^(0+128)
  5144  0416                     l3511:
  5145  0416  1683               	bsf	3,5	;RP0=1, select bank1
  5146  0417  1303               	bcf	3,6	;RP1=0, select bank1
  5147  0418  17AF               	bsf	(___fladd@b^(0+128)+2),7
  5148  0419                     l3513:
  5149  0419  01B0               	clrf	(___fladd@b^(0+128)+3)
  5150  041A  2C25               	goto	l3517
  5151  041B                     l3515:
  5152  041B  3000               	movlw	0
  5153  041C  1683               	bsf	3,5	;RP0=1, select bank1
  5154  041D  1303               	bcf	3,6	;RP1=0, select bank1
  5155  041E  00B0               	movwf	(___fladd@b+3)^(0+128)
  5156  041F  3000               	movlw	0
  5157  0420  00AF               	movwf	(___fladd@b+2)^(0+128)
  5158  0421  3000               	movlw	0
  5159  0422  00AE               	movwf	(___fladd@b+1)^(0+128)
  5160  0423  3000               	movlw	0
  5161  0424  00AD               	movwf	___fladd@b^(0+128)
  5162  0425                     l3517:
  5163  0425  0834               	movf	(___fladd@a^(0+128)+3),w
  5164  0426  3980               	andlw	128
  5165  0427  00FF               	movwf	btemp+1
  5166  0428  087F               	movf	btemp+1,w
  5167  0429  1283               	bcf	3,5	;RP0=0, select bank0
  5168  042A  1303               	bcf	3,6	;RP1=0, select bank0
  5169  042B  00DD               	movwf	___fladd@aexp
  5170  042C                     l3519:
  5171  042C  085D               	movf	___fladd@aexp,w
  5172  042D  065C               	xorwf	___fladd@signs,w
  5173  042E  1903               	skipnz
  5174  042F  2C31               	goto	u3841
  5175  0430  2C32               	goto	u3840
  5176  0431                     u3841:
  5177  0431  2C33               	goto	l3523
  5178  0432                     u3840:
  5179  0432                     l3521:
  5180  0432  175C               	bsf	___fladd@signs,6
  5181  0433                     l3523:
  5182  0433  1683               	bsf	3,5	;RP0=1, select bank1
  5183  0434  1303               	bcf	3,6	;RP1=0, select bank1
  5184  0435  0834               	movf	(___fladd@a^(0+128)+3),w
  5185  0436  1283               	bcf	3,5	;RP0=0, select bank0
  5186  0437  1303               	bcf	3,6	;RP1=0, select bank0
  5187  0438  00D4               	movwf	??___fladd
  5188  0439  0754               	addwf	??___fladd,w
  5189  043A  00FF               	movwf	btemp+1
  5190  043B  087F               	movf	btemp+1,w
  5191  043C  00DD               	movwf	___fladd@aexp
  5192  043D                     l3525:
  5193  043D  1683               	bsf	3,5	;RP0=1, select bank1
  5194  043E  1303               	bcf	3,6	;RP1=0, select bank1
  5195  043F  1FB3               	btfss	(___fladd@a^(0+128)+2),7
  5196  0440  2C42               	goto	u3851
  5197  0441  2C43               	goto	u3850
  5198  0442                     u3851:
  5199  0442  2C46               	goto	l3529
  5200  0443                     u3850:
  5201  0443                     l3527:
  5202  0443  1283               	bcf	3,5	;RP0=0, select bank0
  5203  0444  1303               	bcf	3,6	;RP1=0, select bank0
  5204  0445  145D               	bsf	___fladd@aexp,0
  5205  0446                     l3529:
  5206  0446  1283               	bcf	3,5	;RP0=0, select bank0
  5207  0447  085D               	movf	___fladd@aexp,w
  5208  0448  1903               	btfsc	3,2
  5209  0449  2C4B               	goto	u3861
  5210  044A  2C4C               	goto	u3860
  5211  044B                     u3861:
  5212  044B  2C60               	goto	l3539
  5213  044C                     u3860:
  5214  044C                     l3531:
  5215  044C  0A5D               	incf	___fladd@aexp,w
  5216  044D  1D03               	btfss	3,2
  5217  044E  2C50               	goto	u3871
  5218  044F  2C51               	goto	u3870
  5219  0450                     u3871:
  5220  0450  2C5B               	goto	l3535
  5221  0451                     u3870:
  5222  0451                     l3533:
  5223  0451  3000               	movlw	0
  5224  0452  1683               	bsf	3,5	;RP0=1, select bank1
  5225  0453  1303               	bcf	3,6	;RP1=0, select bank1
  5226  0454  00B4               	movwf	(___fladd@a+3)^(0+128)
  5227  0455  3000               	movlw	0
  5228  0456  00B3               	movwf	(___fladd@a+2)^(0+128)
  5229  0457  3000               	movlw	0
  5230  0458  00B2               	movwf	(___fladd@a+1)^(0+128)
  5231  0459  3000               	movlw	0
  5232  045A  00B1               	movwf	___fladd@a^(0+128)
  5233  045B                     l3535:
  5234  045B  1683               	bsf	3,5	;RP0=1, select bank1
  5235  045C  1303               	bcf	3,6	;RP1=0, select bank1
  5236  045D  17B3               	bsf	(___fladd@a^(0+128)+2),7
  5237  045E                     l3537:
  5238  045E  01B4               	clrf	(___fladd@a^(0+128)+3)
  5239  045F  2C6A               	goto	l672
  5240  0460                     l3539:
  5241  0460  3000               	movlw	0
  5242  0461  1683               	bsf	3,5	;RP0=1, select bank1
  5243  0462  1303               	bcf	3,6	;RP1=0, select bank1
  5244  0463  00B4               	movwf	(___fladd@a+3)^(0+128)
  5245  0464  3000               	movlw	0
  5246  0465  00B3               	movwf	(___fladd@a+2)^(0+128)
  5247  0466  3000               	movlw	0
  5248  0467  00B2               	movwf	(___fladd@a+1)^(0+128)
  5249  0468  3000               	movlw	0
  5250  0469  00B1               	movwf	___fladd@a^(0+128)
  5251  046A                     l672:
  5252  046A  1283               	bcf	3,5	;RP0=0, select bank0
  5253  046B  1303               	bcf	3,6	;RP1=0, select bank0
  5254  046C  085E               	movf	___fladd@bexp,w
  5255  046D  025D               	subwf	___fladd@aexp,w
  5256  046E  1803               	skipnc
  5257  046F  2C71               	goto	u3881
  5258  0470  2C72               	goto	u3880
  5259  0471                     u3881:
  5260  0471  2CD8               	goto	l3575
  5261  0472                     u3880:
  5262  0472                     l3541:
  5263  0472  1F5C               	btfss	___fladd@signs,6
  5264  0473  2C75               	goto	u3891
  5265  0474  2C76               	goto	u3890
  5266  0475                     u3891:
  5267  0475  2C7A               	goto	l3545
  5268  0476                     u3890:
  5269  0476                     l3543:
  5270  0476  3080               	movlw	128
  5271  0477  00FF               	movwf	btemp+1
  5272  0478  087F               	movf	btemp+1,w
  5273  0479  06DC               	xorwf	___fladd@signs,f
  5274  047A                     l3545:
  5275  047A  085E               	movf	___fladd@bexp,w
  5276  047B  00FF               	movwf	btemp+1
  5277  047C  087F               	movf	btemp+1,w
  5278  047D  00DF               	movwf	___fladd@grs
  5279  047E                     l3547:
  5280  047E  085D               	movf	___fladd@aexp,w
  5281  047F  00FF               	movwf	btemp+1
  5282  0480  087F               	movf	btemp+1,w
  5283  0481  00DE               	movwf	___fladd@bexp
  5284  0482                     l3549:
  5285  0482  085F               	movf	___fladd@grs,w
  5286  0483  00FF               	movwf	btemp+1
  5287  0484  087F               	movf	btemp+1,w
  5288  0485  00DD               	movwf	___fladd@aexp
  5289  0486                     l3551:
  5290  0486  1683               	bsf	3,5	;RP0=1, select bank1
  5291  0487  1303               	bcf	3,6	;RP1=0, select bank1
  5292  0488  082D               	movf	___fladd@b^(0+128),w
  5293  0489  00FF               	movwf	btemp+1
  5294  048A  087F               	movf	btemp+1,w
  5295  048B  1283               	bcf	3,5	;RP0=0, select bank0
  5296  048C  1303               	bcf	3,6	;RP1=0, select bank0
  5297  048D  00DF               	movwf	___fladd@grs
  5298  048E                     l3553:
  5299  048E  1683               	bsf	3,5	;RP0=1, select bank1
  5300  048F  1303               	bcf	3,6	;RP1=0, select bank1
  5301  0490  0831               	movf	___fladd@a^(0+128),w
  5302  0491  00FF               	movwf	btemp+1
  5303  0492  087F               	movf	btemp+1,w
  5304  0493  00AD               	movwf	___fladd@b^(0+128)
  5305  0494                     l3555:
  5306  0494  1283               	bcf	3,5	;RP0=0, select bank0
  5307  0495  1303               	bcf	3,6	;RP1=0, select bank0
  5308  0496  085F               	movf	___fladd@grs,w
  5309  0497  00FF               	movwf	btemp+1
  5310  0498  087F               	movf	btemp+1,w
  5311  0499  1683               	bsf	3,5	;RP0=1, select bank1
  5312  049A  1303               	bcf	3,6	;RP1=0, select bank1
  5313  049B  00B1               	movwf	___fladd@a^(0+128)
  5314  049C                     l3557:
  5315  049C  082E               	movf	(___fladd@b^(0+128)+1),w
  5316  049D  00FF               	movwf	btemp+1
  5317  049E  087F               	movf	btemp+1,w
  5318  049F  1283               	bcf	3,5	;RP0=0, select bank0
  5319  04A0  1303               	bcf	3,6	;RP1=0, select bank0
  5320  04A1  00DF               	movwf	___fladd@grs
  5321  04A2                     l3559:
  5322  04A2  1683               	bsf	3,5	;RP0=1, select bank1
  5323  04A3  1303               	bcf	3,6	;RP1=0, select bank1
  5324  04A4  0832               	movf	(___fladd@a^(0+128)+1),w
  5325  04A5  00FF               	movwf	btemp+1
  5326  04A6  087F               	movf	btemp+1,w
  5327  04A7  00AE               	movwf	(___fladd@b^(0+128)+1)
  5328  04A8                     l3561:
  5329  04A8  1283               	bcf	3,5	;RP0=0, select bank0
  5330  04A9  1303               	bcf	3,6	;RP1=0, select bank0
  5331  04AA  085F               	movf	___fladd@grs,w
  5332  04AB  00FF               	movwf	btemp+1
  5333  04AC  087F               	movf	btemp+1,w
  5334  04AD  1683               	bsf	3,5	;RP0=1, select bank1
  5335  04AE  1303               	bcf	3,6	;RP1=0, select bank1
  5336  04AF  00B2               	movwf	(___fladd@a^(0+128)+1)
  5337  04B0                     l3563:
  5338  04B0  082F               	movf	(___fladd@b^(0+128)+2),w
  5339  04B1  00FF               	movwf	btemp+1
  5340  04B2  087F               	movf	btemp+1,w
  5341  04B3  1283               	bcf	3,5	;RP0=0, select bank0
  5342  04B4  1303               	bcf	3,6	;RP1=0, select bank0
  5343  04B5  00DF               	movwf	___fladd@grs
  5344  04B6                     l3565:
  5345  04B6  1683               	bsf	3,5	;RP0=1, select bank1
  5346  04B7  1303               	bcf	3,6	;RP1=0, select bank1
  5347  04B8  0833               	movf	(___fladd@a^(0+128)+2),w
  5348  04B9  00FF               	movwf	btemp+1
  5349  04BA  087F               	movf	btemp+1,w
  5350  04BB  00AF               	movwf	(___fladd@b^(0+128)+2)
  5351  04BC                     l3567:
  5352  04BC  1283               	bcf	3,5	;RP0=0, select bank0
  5353  04BD  1303               	bcf	3,6	;RP1=0, select bank0
  5354  04BE  085F               	movf	___fladd@grs,w
  5355  04BF  00FF               	movwf	btemp+1
  5356  04C0  087F               	movf	btemp+1,w
  5357  04C1  1683               	bsf	3,5	;RP0=1, select bank1
  5358  04C2  1303               	bcf	3,6	;RP1=0, select bank1
  5359  04C3  00B3               	movwf	(___fladd@a^(0+128)+2)
  5360  04C4                     l3569:
  5361  04C4  0830               	movf	(___fladd@b^(0+128)+3),w
  5362  04C5  00FF               	movwf	btemp+1
  5363  04C6  087F               	movf	btemp+1,w
  5364  04C7  1283               	bcf	3,5	;RP0=0, select bank0
  5365  04C8  1303               	bcf	3,6	;RP1=0, select bank0
  5366  04C9  00DF               	movwf	___fladd@grs
  5367  04CA                     l3571:
  5368  04CA  1683               	bsf	3,5	;RP0=1, select bank1
  5369  04CB  1303               	bcf	3,6	;RP1=0, select bank1
  5370  04CC  0834               	movf	(___fladd@a^(0+128)+3),w
  5371  04CD  00FF               	movwf	btemp+1
  5372  04CE  087F               	movf	btemp+1,w
  5373  04CF  00B0               	movwf	(___fladd@b^(0+128)+3)
  5374  04D0                     l3573:
  5375  04D0  1283               	bcf	3,5	;RP0=0, select bank0
  5376  04D1  1303               	bcf	3,6	;RP1=0, select bank0
  5377  04D2  085F               	movf	___fladd@grs,w
  5378  04D3  00FF               	movwf	btemp+1
  5379  04D4  087F               	movf	btemp+1,w
  5380  04D5  1683               	bsf	3,5	;RP0=1, select bank1
  5381  04D6  1303               	bcf	3,6	;RP1=0, select bank1
  5382  04D7  00B4               	movwf	(___fladd@a^(0+128)+3)
  5383  04D8                     l3575:
  5384  04D8  1283               	bcf	3,5	;RP0=0, select bank0
  5385  04D9  01DF               	clrf	___fladd@grs
  5386  04DA                     l3577:
  5387  04DA  085D               	movf	___fladd@aexp,w
  5388  04DB  00D4               	movwf	??___fladd
  5389  04DC  01D5               	clrf	??___fladd+1
  5390  04DD  0855               	movf	??___fladd+1,w
  5391  04DE  00D7               	movwf	??___fladd+3
  5392  04DF  085E               	movf	___fladd@bexp,w
  5393  04E0  0254               	subwf	??___fladd,w
  5394  04E1  00D6               	movwf	??___fladd+2
  5395  04E2  1C03               	skipc
  5396  04E3  03D7               	decf	??___fladd+3,f
  5397  04E4  0857               	movf	??___fladd+3,w
  5398  04E5  3A80               	xorlw	128
  5399  04E6  00FF               	movwf	btemp+1
  5400  04E7  3080               	movlw	128
  5401  04E8  027F               	subwf	btemp+1,w
  5402  04E9  1D03               	skipz
  5403  04EA  2CED               	goto	u3905
  5404  04EB  301A               	movlw	26
  5405  04EC  0256               	subwf	??___fladd+2,w
  5406  04ED                     u3905:
  5407  04ED  1C03               	skipc
  5408  04EE  2CF0               	goto	u3901
  5409  04EF  2CF1               	goto	u3900
  5410  04F0                     u3901:
  5411  04F0  2D3D               	goto	l3597
  5412  04F1                     u3900:
  5413  04F1                     l3579:
  5414  04F1  1683               	bsf	3,5	;RP0=1, select bank1
  5415  04F2  1303               	bcf	3,6	;RP1=0, select bank1
  5416  04F3  0830               	movf	(___fladd@b+3)^(0+128),w
  5417  04F4  042F               	iorwf	(___fladd@b+2)^(0+128),w
  5418  04F5  042E               	iorwf	(___fladd@b+1)^(0+128),w
  5419  04F6  042D               	iorwf	___fladd@b^(0+128),w
  5420  04F7  1D03               	skipz
  5421  04F8  2CFA               	goto	u3911
  5422  04F9  2CFC               	goto	u3910
  5423  04FA                     u3911:
  5424  04FA  3001               	movlw	1
  5425  04FB  2CFD               	goto	u3920
  5426  04FC                     u3910:
  5427  04FC  3000               	movlw	0
  5428  04FD                     u3920:
  5429  04FD  00FF               	movwf	btemp+1
  5430  04FE  087F               	movf	btemp+1,w
  5431  04FF  1283               	bcf	3,5	;RP0=0, select bank0
  5432  0500  1303               	bcf	3,6	;RP1=0, select bank0
  5433  0501  00DF               	movwf	___fladd@grs
  5434  0502                     l3581:
  5435  0502  3000               	movlw	0
  5436  0503  1683               	bsf	3,5	;RP0=1, select bank1
  5437  0504  1303               	bcf	3,6	;RP1=0, select bank1
  5438  0505  00B0               	movwf	(___fladd@b+3)^(0+128)
  5439  0506  3000               	movlw	0
  5440  0507  00AF               	movwf	(___fladd@b+2)^(0+128)
  5441  0508  3000               	movlw	0
  5442  0509  00AE               	movwf	(___fladd@b+1)^(0+128)
  5443  050A  3000               	movlw	0
  5444  050B  00AD               	movwf	___fladd@b^(0+128)
  5445  050C                     l3583:
  5446  050C  1283               	bcf	3,5	;RP0=0, select bank0
  5447  050D  1303               	bcf	3,6	;RP1=0, select bank0
  5448  050E  085D               	movf	___fladd@aexp,w
  5449  050F  00FF               	movwf	btemp+1
  5450  0510  087F               	movf	btemp+1,w
  5451  0511  00DE               	movwf	___fladd@bexp
  5452  0512  2D45               	goto	l676
  5453  0513                     l678:
  5454  0513  1C5F               	btfss	___fladd@grs,0
  5455  0514  2D16               	goto	u3931
  5456  0515  2D17               	goto	u3930
  5457  0516                     u3931:
  5458  0516  2D20               	goto	l3587
  5459  0517                     u3930:
  5460  0517                     l3585:
  5461  0517  085F               	movf	___fladd@grs,w
  5462  0518  00D4               	movwf	??___fladd
  5463  0519  1003               	clrc
  5464  051A  0C54               	rrf	??___fladd,w
  5465  051B  3801               	iorlw	1
  5466  051C  00FF               	movwf	btemp+1
  5467  051D  087F               	movf	btemp+1,w
  5468  051E  00DF               	movwf	___fladd@grs
  5469  051F  2D22               	goto	l3589
  5470  0520                     l3587:
  5471  0520  1003               	clrc
  5472  0521  0CDF               	rrf	___fladd@grs,f
  5473  0522                     l3589:
  5474  0522  1683               	bsf	3,5	;RP0=1, select bank1
  5475  0523  1303               	bcf	3,6	;RP1=0, select bank1
  5476  0524  1C2D               	btfss	___fladd@b^(0+128),0
  5477  0525  2D27               	goto	u3941
  5478  0526  2D28               	goto	u3940
  5479  0527                     u3941:
  5480  0527  2D2B               	goto	l3593
  5481  0528                     u3940:
  5482  0528                     l3591:
  5483  0528  1283               	bcf	3,5	;RP0=0, select bank0
  5484  0529  1303               	bcf	3,6	;RP1=0, select bank0
  5485  052A  17DF               	bsf	___fladd@grs,7
  5486  052B                     l3593:
  5487  052B  3001               	movlw	1
  5488  052C  1283               	bcf	3,5	;RP0=0, select bank0
  5489  052D  00D4               	movwf	??___fladd
  5490  052E                     u3955:
  5491  052E  1683               	bsf	3,5	;RP0=1, select bank1
  5492  052F  1303               	bcf	3,6	;RP1=0, select bank1
  5493  0530  0D30               	rlf	(___fladd@b+3)^(0+128),w
  5494  0531  0CB0               	rrf	(___fladd@b+3)^(0+128),f
  5495  0532  0CAF               	rrf	(___fladd@b+2)^(0+128),f
  5496  0533  0CAE               	rrf	(___fladd@b+1)^(0+128),f
  5497  0534  0CAD               	rrf	___fladd@b^(0+128),f
  5498  0535  1283               	bcf	3,5	;RP0=0, select bank0
  5499  0536  1303               	bcf	3,6	;RP1=0, select bank0
  5500  0537  0BD4               	decfsz	??___fladd& (0+127),f
  5501  0538  2D2E               	goto	u3955
  5502  0539                     l3595:
  5503  0539  3001               	movlw	1
  5504  053A  00FF               	movwf	btemp+1
  5505  053B  087F               	movf	btemp+1,w
  5506  053C  07DE               	addwf	___fladd@bexp,f
  5507  053D                     l3597:
  5508  053D  1283               	bcf	3,5	;RP0=0, select bank0
  5509  053E  1303               	bcf	3,6	;RP1=0, select bank0
  5510  053F  085D               	movf	___fladd@aexp,w
  5511  0540  025E               	subwf	___fladd@bexp,w
  5512  0541  1C03               	skipc
  5513  0542  2D44               	goto	u3961
  5514  0543  2D45               	goto	u3960
  5515  0544                     u3961:
  5516  0544  2D13               	goto	l678
  5517  0545                     u3960:
  5518  0545                     l676:
  5519  0545  1B5C               	btfsc	___fladd@signs,6
  5520  0546  2D48               	goto	u3971
  5521  0547  2D49               	goto	u3970
  5522  0548                     u3971:
  5523  0548  2DA3               	goto	l3623
  5524  0549                     u3970:
  5525  0549                     l3599:
  5526  0549  085E               	movf	___fladd@bexp,w
  5527  054A  1D03               	btfss	3,2
  5528  054B  2D4D               	goto	u3981
  5529  054C  2D4E               	goto	u3980
  5530  054D                     u3981:
  5531  054D  2D59               	goto	l3605
  5532  054E                     u3980:
  5533  054E                     l3601:
  5534  054E  3000               	movlw	0
  5535  054F  1683               	bsf	3,5	;RP0=1, select bank1
  5536  0550  1303               	bcf	3,6	;RP1=0, select bank1
  5537  0551  00B0               	movwf	(?___fladd+3)^(0+128)
  5538  0552  3000               	movlw	0
  5539  0553  00AF               	movwf	(?___fladd+2)^(0+128)
  5540  0554  3000               	movlw	0
  5541  0555  00AE               	movwf	(?___fladd+1)^(0+128)
  5542  0556  3000               	movlw	0
  5543  0557  00AD               	movwf	?___fladd^(0+128)
  5544  0558  2F52               	goto	l685
  5545  0559                     l3605:
  5546  0559  1683               	bsf	3,5	;RP0=1, select bank1
  5547  055A  1303               	bcf	3,6	;RP1=0, select bank1
  5548  055B  0831               	movf	___fladd@a^(0+128),w
  5549  055C  07AD               	addwf	___fladd@b^(0+128),f
  5550  055D  0832               	movf	(___fladd@a+1)^(0+128),w
  5551  055E  1103               	clrz
  5552  055F  1803               	skipnc
  5553  0560  3E01               	addlw	1
  5554  0561  1903               	skipnz
  5555  0562  2D64               	goto	u3991
  5556  0563  07AE               	addwf	(___fladd@b+1)^(0+128),f
  5557  0564                     u3991:
  5558  0564  0833               	movf	(___fladd@a+2)^(0+128),w
  5559  0565  1103               	clrz
  5560  0566  1803               	skipnc
  5561  0567  3E01               	addlw	1
  5562  0568  1903               	skipnz
  5563  0569  2D6B               	goto	u3992
  5564  056A  07AF               	addwf	(___fladd@b+2)^(0+128),f
  5565  056B                     u3992:
  5566  056B  0834               	movf	(___fladd@a+3)^(0+128),w
  5567  056C  1103               	clrz
  5568  056D  1803               	skipnc
  5569  056E  3E01               	addlw	1
  5570  056F  1903               	skipnz
  5571  0570  2D72               	goto	u3993
  5572  0571  07B0               	addwf	(___fladd@b+3)^(0+128),f
  5573  0572                     u3993:
  5574  0572                     l3607:
  5575  0572  1C30               	btfss	(___fladd@b+3)^(0+128),0
  5576  0573  2D75               	goto	u4001
  5577  0574  2D76               	goto	u4000
  5578  0575                     u4001:
  5579  0575  2EA2               	goto	l3659
  5580  0576                     u4000:
  5581  0576                     l3609:
  5582  0576  1283               	bcf	3,5	;RP0=0, select bank0
  5583  0577  1303               	bcf	3,6	;RP1=0, select bank0
  5584  0578  1C5F               	btfss	___fladd@grs,0
  5585  0579  2D7B               	goto	u4011
  5586  057A  2D7C               	goto	u4010
  5587  057B                     u4011:
  5588  057B  2D85               	goto	l3613
  5589  057C                     u4010:
  5590  057C                     l3611:
  5591  057C  085F               	movf	___fladd@grs,w
  5592  057D  00D4               	movwf	??___fladd
  5593  057E  1003               	clrc
  5594  057F  0C54               	rrf	??___fladd,w
  5595  0580  3801               	iorlw	1
  5596  0581  00FF               	movwf	btemp+1
  5597  0582  087F               	movf	btemp+1,w
  5598  0583  00DF               	movwf	___fladd@grs
  5599  0584  2D87               	goto	l3615
  5600  0585                     l3613:
  5601  0585  1003               	clrc
  5602  0586  0CDF               	rrf	___fladd@grs,f
  5603  0587                     l3615:
  5604  0587  1683               	bsf	3,5	;RP0=1, select bank1
  5605  0588  1303               	bcf	3,6	;RP1=0, select bank1
  5606  0589  1C2D               	btfss	___fladd@b^(0+128),0
  5607  058A  2D8C               	goto	u4021
  5608  058B  2D8D               	goto	u4020
  5609  058C                     u4021:
  5610  058C  2D90               	goto	l3619
  5611  058D                     u4020:
  5612  058D                     l3617:
  5613  058D  1283               	bcf	3,5	;RP0=0, select bank0
  5614  058E  1303               	bcf	3,6	;RP1=0, select bank0
  5615  058F  17DF               	bsf	___fladd@grs,7
  5616  0590                     l3619:
  5617  0590  3001               	movlw	1
  5618  0591  1283               	bcf	3,5	;RP0=0, select bank0
  5619  0592  00D4               	movwf	??___fladd
  5620  0593                     u4035:
  5621  0593  1683               	bsf	3,5	;RP0=1, select bank1
  5622  0594  1303               	bcf	3,6	;RP1=0, select bank1
  5623  0595  0D30               	rlf	(___fladd@b+3)^(0+128),w
  5624  0596  0CB0               	rrf	(___fladd@b+3)^(0+128),f
  5625  0597  0CAF               	rrf	(___fladd@b+2)^(0+128),f
  5626  0598  0CAE               	rrf	(___fladd@b+1)^(0+128),f
  5627  0599  0CAD               	rrf	___fladd@b^(0+128),f
  5628  059A  1283               	bcf	3,5	;RP0=0, select bank0
  5629  059B  1303               	bcf	3,6	;RP1=0, select bank0
  5630  059C  0BD4               	decfsz	??___fladd& (0+127),f
  5631  059D  2D93               	goto	u4035
  5632  059E                     l3621:
  5633  059E  3001               	movlw	1
  5634  059F  00FF               	movwf	btemp+1
  5635  05A0  087F               	movf	btemp+1,w
  5636  05A1  07DE               	addwf	___fladd@bexp,f
  5637  05A2  2EA2               	goto	l3659
  5638  05A3                     l3623:
  5639  05A3  1683               	bsf	3,5	;RP0=1, select bank1
  5640  05A4  1303               	bcf	3,6	;RP1=0, select bank1
  5641  05A5  0830               	movf	(___fladd@b+3)^(0+128),w
  5642  05A6  3A80               	xorlw	128
  5643  05A7  00FF               	movwf	btemp+1
  5644  05A8  0834               	movf	(___fladd@a+3)^(0+128),w
  5645  05A9  3A80               	xorlw	128
  5646  05AA  027F               	subwf	btemp+1,w
  5647  05AB  1D03               	skipz
  5648  05AC  2DB7               	goto	u4043
  5649  05AD  0833               	movf	(___fladd@a+2)^(0+128),w
  5650  05AE  022F               	subwf	(___fladd@b+2)^(0+128),w
  5651  05AF  1D03               	skipz
  5652  05B0  2DB7               	goto	u4043
  5653  05B1  0832               	movf	(___fladd@a+1)^(0+128),w
  5654  05B2  022E               	subwf	(___fladd@b+1)^(0+128),w
  5655  05B3  1D03               	skipz
  5656  05B4  2DB7               	goto	u4043
  5657  05B5  0831               	movf	___fladd@a^(0+128),w
  5658  05B6  022D               	subwf	___fladd@b^(0+128),w
  5659  05B7                     u4043:
  5660  05B7  1803               	skipnc
  5661  05B8  2DBA               	goto	u4041
  5662  05B9  2DBB               	goto	u4040
  5663  05BA                     u4041:
  5664  05BA  2E4B               	goto	l3635
  5665  05BB                     u4040:
  5666  05BB                     l3625:
  5667  05BB  30FF               	movlw	255
  5668  05BC  1283               	bcf	3,5	;RP0=0, select bank0
  5669  05BD  1303               	bcf	3,6	;RP1=0, select bank0
  5670  05BE  00D4               	movwf	??___fladd
  5671  05BF  30FF               	movlw	255
  5672  05C0  00D5               	movwf	??___fladd+1
  5673  05C1  30FF               	movlw	255
  5674  05C2  00D6               	movwf	??___fladd+2
  5675  05C3  30FF               	movlw	255
  5676  05C4  00D7               	movwf	??___fladd+3
  5677  05C5  1683               	bsf	3,5	;RP0=1, select bank1
  5678  05C6  1303               	bcf	3,6	;RP1=0, select bank1
  5679  05C7  0831               	movf	___fladd@a^(0+128),w
  5680  05C8  1283               	bcf	3,5	;RP0=0, select bank0
  5681  05C9  1303               	bcf	3,6	;RP1=0, select bank0
  5682  05CA  00D8               	movwf	??___fladd+4
  5683  05CB  1683               	bsf	3,5	;RP0=1, select bank1
  5684  05CC  1303               	bcf	3,6	;RP1=0, select bank1
  5685  05CD  0832               	movf	(___fladd@a+1)^(0+128),w
  5686  05CE  1283               	bcf	3,5	;RP0=0, select bank0
  5687  05CF  1303               	bcf	3,6	;RP1=0, select bank0
  5688  05D0  00D9               	movwf	??___fladd+5
  5689  05D1  1683               	bsf	3,5	;RP0=1, select bank1
  5690  05D2  1303               	bcf	3,6	;RP1=0, select bank1
  5691  05D3  0833               	movf	(___fladd@a+2)^(0+128),w
  5692  05D4  1283               	bcf	3,5	;RP0=0, select bank0
  5693  05D5  1303               	bcf	3,6	;RP1=0, select bank0
  5694  05D6  00DA               	movwf	??___fladd+6
  5695  05D7  1683               	bsf	3,5	;RP0=1, select bank1
  5696  05D8  1303               	bcf	3,6	;RP1=0, select bank1
  5697  05D9  0834               	movf	(___fladd@a+3)^(0+128),w
  5698  05DA  1283               	bcf	3,5	;RP0=0, select bank0
  5699  05DB  1303               	bcf	3,6	;RP1=0, select bank0
  5700  05DC  00DB               	movwf	??___fladd+7
  5701  05DD  1683               	bsf	3,5	;RP0=1, select bank1
  5702  05DE  1303               	bcf	3,6	;RP1=0, select bank1
  5703  05DF  082D               	movf	___fladd@b^(0+128),w
  5704  05E0  1283               	bcf	3,5	;RP0=0, select bank0
  5705  05E1  1303               	bcf	3,6	;RP1=0, select bank0
  5706  05E2  02D8               	subwf	??___fladd+4,f
  5707  05E3  1683               	bsf	3,5	;RP0=1, select bank1
  5708  05E4  1303               	bcf	3,6	;RP1=0, select bank1
  5709  05E5  082E               	movf	(___fladd@b+1)^(0+128),w
  5710  05E6  1C03               	skipc
  5711  05E7  0F2E               	incfsz	(___fladd@b+1)^(0+128),w
  5712  05E8  2DEA               	goto	u4051
  5713  05E9  2DED               	goto	u4052
  5714  05EA                     u4051:
  5715  05EA  1283               	bcf	3,5	;RP0=0, select bank0
  5716  05EB  1303               	bcf	3,6	;RP1=0, select bank0
  5717  05EC  02D9               	subwf	??___fladd+5,f
  5718  05ED                     u4052:
  5719  05ED  1683               	bsf	3,5	;RP0=1, select bank1
  5720  05EE  1303               	bcf	3,6	;RP1=0, select bank1
  5721  05EF  082F               	movf	(___fladd@b+2)^(0+128),w
  5722  05F0  1C03               	skipc
  5723  05F1  0F2F               	incfsz	(___fladd@b+2)^(0+128),w
  5724  05F2  2DF4               	goto	u4053
  5725  05F3  2DF7               	goto	u4054
  5726  05F4                     u4053:
  5727  05F4  1283               	bcf	3,5	;RP0=0, select bank0
  5728  05F5  1303               	bcf	3,6	;RP1=0, select bank0
  5729  05F6  02DA               	subwf	??___fladd+6,f
  5730  05F7                     u4054:
  5731  05F7  1683               	bsf	3,5	;RP0=1, select bank1
  5732  05F8  1303               	bcf	3,6	;RP1=0, select bank1
  5733  05F9  0830               	movf	(___fladd@b+3)^(0+128),w
  5734  05FA  1C03               	skipc
  5735  05FB  0F30               	incfsz	(___fladd@b+3)^(0+128),w
  5736  05FC  2DFE               	goto	u4055
  5737  05FD  2E01               	goto	u4056
  5738  05FE                     u4055:
  5739  05FE  1283               	bcf	3,5	;RP0=0, select bank0
  5740  05FF  1303               	bcf	3,6	;RP1=0, select bank0
  5741  0600  02DB               	subwf	??___fladd+7,f
  5742  0601                     u4056:
  5743  0601  1683               	bsf	3,5	;RP0=1, select bank1
  5744  0602  1303               	bcf	3,6	;RP1=0, select bank1
  5745  0603  1283               	bcf	3,5	;RP0=0, select bank0
  5746  0604  1303               	bcf	3,6	;RP1=0, select bank0
  5747  0605  0858               	movf	??___fladd+4,w
  5748  0606  07D4               	addwf	??___fladd,f
  5749  0607  0859               	movf	??___fladd+5,w
  5750  0608  1803               	skipnc
  5751  0609  0F59               	incfsz	??___fladd+5,w
  5752  060A  2E0C               	goto	u4060
  5753  060B  2E0D               	goto	u4061
  5754  060C                     u4060:
  5755  060C  07D5               	addwf	??___fladd+1,f
  5756  060D                     u4061:
  5757  060D  085A               	movf	??___fladd+6,w
  5758  060E  1803               	skipnc
  5759  060F  0F5A               	incfsz	??___fladd+6,w
  5760  0610  2E12               	goto	u4062
  5761  0611  2E13               	goto	u4063
  5762  0612                     u4062:
  5763  0612  07D6               	addwf	??___fladd+2,f
  5764  0613                     u4063:
  5765  0613  085B               	movf	??___fladd+7,w
  5766  0614  1803               	skipnc
  5767  0615  0A5B               	incf	??___fladd+7,w
  5768  0616  07D7               	addwf	??___fladd+3,f
  5769  0617  0857               	movf	??___fladd+3,w
  5770  0618  1683               	bsf	3,5	;RP0=1, select bank1
  5771  0619  1303               	bcf	3,6	;RP1=0, select bank1
  5772  061A  00B0               	movwf	(___fladd@b+3)^(0+128)
  5773  061B  1283               	bcf	3,5	;RP0=0, select bank0
  5774  061C  1303               	bcf	3,6	;RP1=0, select bank0
  5775  061D  0856               	movf	??___fladd+2,w
  5776  061E  1683               	bsf	3,5	;RP0=1, select bank1
  5777  061F  1303               	bcf	3,6	;RP1=0, select bank1
  5778  0620  00AF               	movwf	(___fladd@b+2)^(0+128)
  5779  0621  1283               	bcf	3,5	;RP0=0, select bank0
  5780  0622  1303               	bcf	3,6	;RP1=0, select bank0
  5781  0623  0855               	movf	??___fladd+1,w
  5782  0624  1683               	bsf	3,5	;RP0=1, select bank1
  5783  0625  1303               	bcf	3,6	;RP1=0, select bank1
  5784  0626  00AE               	movwf	(___fladd@b+1)^(0+128)
  5785  0627  1283               	bcf	3,5	;RP0=0, select bank0
  5786  0628  1303               	bcf	3,6	;RP1=0, select bank0
  5787  0629  0854               	movf	??___fladd,w
  5788  062A  1683               	bsf	3,5	;RP0=1, select bank1
  5789  062B  1303               	bcf	3,6	;RP1=0, select bank1
  5790  062C  00AD               	movwf	___fladd@b^(0+128)
  5791  062D                     l3627:
  5792  062D  3080               	movlw	128
  5793  062E  00FF               	movwf	btemp+1
  5794  062F  087F               	movf	btemp+1,w
  5795  0630  1283               	bcf	3,5	;RP0=0, select bank0
  5796  0631  1303               	bcf	3,6	;RP1=0, select bank0
  5797  0632  06DC               	xorwf	___fladd@signs,f
  5798  0633                     l3629:
  5799  0633  09DF               	comf	___fladd@grs,f
  5800  0634  0ADF               	incf	___fladd@grs,f
  5801  0635                     l3631:
  5802  0635  085F               	movf	___fladd@grs,w
  5803  0636  1D03               	btfss	3,2
  5804  0637  2E39               	goto	u4071
  5805  0638  2E3A               	goto	u4070
  5806  0639                     u4071:
  5807  0639  2E59               	goto	l693
  5808  063A                     u4070:
  5809  063A                     l3633:
  5810  063A  3001               	movlw	1
  5811  063B  1683               	bsf	3,5	;RP0=1, select bank1
  5812  063C  1303               	bcf	3,6	;RP1=0, select bank1
  5813  063D  07AD               	addwf	___fladd@b^(0+128),f
  5814  063E  3000               	movlw	0
  5815  063F  1803               	skipnc
  5816  0640  3001               	movlw	1
  5817  0641  07AE               	addwf	(___fladd@b+1)^(0+128),f
  5818  0642  3000               	movlw	0
  5819  0643  1803               	skipnc
  5820  0644  3001               	movlw	1
  5821  0645  07AF               	addwf	(___fladd@b+2)^(0+128),f
  5822  0646  3000               	movlw	0
  5823  0647  1803               	skipnc
  5824  0648  3001               	movlw	1
  5825  0649  07B0               	addwf	(___fladd@b+3)^(0+128),f
  5826  064A  2E59               	goto	l693
  5827  064B                     l3635:
  5828  064B  0831               	movf	___fladd@a^(0+128),w
  5829  064C  02AD               	subwf	___fladd@b^(0+128),f
  5830  064D  0832               	movf	(___fladd@a+1)^(0+128),w
  5831  064E  1C03               	skipc
  5832  064F  0F32               	incfsz	(___fladd@a+1)^(0+128),w
  5833  0650  02AE               	subwf	(___fladd@b+1)^(0+128),f
  5834  0651  0833               	movf	(___fladd@a+2)^(0+128),w
  5835  0652  1C03               	skipc
  5836  0653  0F33               	incfsz	(___fladd@a+2)^(0+128),w
  5837  0654  02AF               	subwf	(___fladd@b+2)^(0+128),f
  5838  0655  0834               	movf	(___fladd@a+3)^(0+128),w
  5839  0656  1C03               	skipc
  5840  0657  0F34               	incfsz	(___fladd@a+3)^(0+128),w
  5841  0658  02B0               	subwf	(___fladd@b+3)^(0+128),f
  5842  0659                     l693:
  5843  0659  1683               	bsf	3,5	;RP0=1, select bank1
  5844  065A  1303               	bcf	3,6	;RP1=0, select bank1
  5845  065B  0830               	movf	(___fladd@b+3)^(0+128),w
  5846  065C  042F               	iorwf	(___fladd@b+2)^(0+128),w
  5847  065D  042E               	iorwf	(___fladd@b+1)^(0+128),w
  5848  065E  042D               	iorwf	___fladd@b^(0+128),w
  5849  065F  1D03               	skipz
  5850  0660  2E62               	goto	u4081
  5851  0661  2E63               	goto	u4080
  5852  0662                     u4081:
  5853  0662  2E9C               	goto	l3657
  5854  0663                     u4080:
  5855  0663                     l3637:
  5856  0663  1283               	bcf	3,5	;RP0=0, select bank0
  5857  0664  1303               	bcf	3,6	;RP1=0, select bank0
  5858  0665  085F               	movf	___fladd@grs,w
  5859  0666  1D03               	btfss	3,2
  5860  0667  2E69               	goto	u4091
  5861  0668  2E6A               	goto	u4090
  5862  0669                     u4091:
  5863  0669  2E9C               	goto	l3657
  5864  066A                     u4090:
  5865  066A                     l3639:
  5866  066A  3000               	movlw	0
  5867  066B  1683               	bsf	3,5	;RP0=1, select bank1
  5868  066C  1303               	bcf	3,6	;RP1=0, select bank1
  5869  066D  00B0               	movwf	(?___fladd+3)^(0+128)
  5870  066E  3000               	movlw	0
  5871  066F  00AF               	movwf	(?___fladd+2)^(0+128)
  5872  0670  3000               	movlw	0
  5873  0671  00AE               	movwf	(?___fladd+1)^(0+128)
  5874  0672  3000               	movlw	0
  5875  0673  00AD               	movwf	?___fladd^(0+128)
  5876  0674  2F52               	goto	l685
  5877  0675                     l3643:
  5878  0675  3001               	movlw	1
  5879  0676  1283               	bcf	3,5	;RP0=0, select bank0
  5880  0677  1303               	bcf	3,6	;RP1=0, select bank0
  5881  0678  00D4               	movwf	??___fladd
  5882  0679                     u4105:
  5883  0679  1003               	clrc
  5884  067A  1683               	bsf	3,5	;RP0=1, select bank1
  5885  067B  1303               	bcf	3,6	;RP1=0, select bank1
  5886  067C  0DAD               	rlf	___fladd@b^(0+128),f
  5887  067D  0DAE               	rlf	(___fladd@b+1)^(0+128),f
  5888  067E  0DAF               	rlf	(___fladd@b+2)^(0+128),f
  5889  067F  0DB0               	rlf	(___fladd@b+3)^(0+128),f
  5890  0680  1283               	bcf	3,5	;RP0=0, select bank0
  5891  0681  1303               	bcf	3,6	;RP1=0, select bank0
  5892  0682  0BD4               	decfsz	??___fladd,f
  5893  0683  2E79               	goto	u4105
  5894  0684                     l3645:
  5895  0684  1FDF               	btfss	___fladd@grs,7
  5896  0685  2E87               	goto	u4111
  5897  0686  2E88               	goto	u4110
  5898  0687                     u4111:
  5899  0687  2E8B               	goto	l697
  5900  0688                     u4110:
  5901  0688                     l3647:
  5902  0688  1683               	bsf	3,5	;RP0=1, select bank1
  5903  0689  1303               	bcf	3,6	;RP1=0, select bank1
  5904  068A  142D               	bsf	___fladd@b^(0+128),0
  5905  068B                     l697:
  5906  068B  1283               	bcf	3,5	;RP0=0, select bank0
  5907  068C  1C5F               	btfss	___fladd@grs,0
  5908  068D  2E8F               	goto	u4121
  5909  068E  2E90               	goto	u4120
  5910  068F                     u4121:
  5911  068F  2E93               	goto	l3651
  5912  0690                     u4120:
  5913  0690                     l3649:
  5914  0690  1403               	setc
  5915  0691  0DDF               	rlf	___fladd@grs,f
  5916  0692  2E95               	goto	l3653
  5917  0693                     l3651:
  5918  0693  1003               	clrc
  5919  0694  0DDF               	rlf	___fladd@grs,f
  5920  0695                     l3653:
  5921  0695  085E               	movf	___fladd@bexp,w
  5922  0696  1903               	btfsc	3,2
  5923  0697  2E99               	goto	u4131
  5924  0698  2E9A               	goto	u4130
  5925  0699                     u4131:
  5926  0699  2E9C               	goto	l3657
  5927  069A                     u4130:
  5928  069A                     l3655:
  5929  069A  3001               	movlw	1
  5930  069B  02DE               	subwf	___fladd@bexp,f
  5931  069C                     l3657:
  5932  069C  1683               	bsf	3,5	;RP0=1, select bank1
  5933  069D  1303               	bcf	3,6	;RP1=0, select bank1
  5934  069E  1FAF               	btfss	(___fladd@b+2)^(0+128),7
  5935  069F  2EA1               	goto	u4141
  5936  06A0  2EA2               	goto	u4140
  5937  06A1                     u4141:
  5938  06A1  2E75               	goto	l3643
  5939  06A2                     u4140:
  5940  06A2                     l3659:
  5941  06A2  1283               	bcf	3,5	;RP0=0, select bank0
  5942  06A3  01DD               	clrf	___fladd@aexp
  5943  06A4                     l3661:
  5944  06A4  1FDF               	btfss	___fladd@grs,7
  5945  06A5  2EA7               	goto	u4151
  5946  06A6  2EA8               	goto	u4150
  5947  06A7                     u4151:
  5948  06A7  2EB9               	goto	l3669
  5949  06A8                     u4150:
  5950  06A8                     l3663:
  5951  06A8  085F               	movf	___fladd@grs,w
  5952  06A9  397F               	andlw	127
  5953  06AA  1903               	btfsc	3,2
  5954  06AB  2EAD               	goto	u4161
  5955  06AC  2EAE               	goto	u4160
  5956  06AD                     u4161:
  5957  06AD  2EB2               	goto	l703
  5958  06AE                     u4160:
  5959  06AE                     l3665:
  5960  06AE  1283               	bcf	3,5	;RP0=0, select bank0
  5961  06AF  01DD               	clrf	___fladd@aexp
  5962  06B0  0ADD               	incf	___fladd@aexp,f
  5963  06B1  2EB9               	goto	l3669
  5964  06B2                     l703:
  5965  06B2  1683               	bsf	3,5	;RP0=1, select bank1
  5966  06B3  1303               	bcf	3,6	;RP1=0, select bank1
  5967  06B4  1C2D               	btfss	___fladd@b^(0+128),0
  5968  06B5  2EB7               	goto	u4171
  5969  06B6  2EB8               	goto	u4170
  5970  06B7                     u4171:
  5971  06B7  2EB9               	goto	l3669
  5972  06B8                     u4170:
  5973  06B8  2EAE               	goto	l3665
  5974  06B9                     l3669:
  5975  06B9  1283               	bcf	3,5	;RP0=0, select bank0
  5976  06BA  085D               	movf	___fladd@aexp,w
  5977  06BB  1903               	btfsc	3,2
  5978  06BC  2EBE               	goto	u4181
  5979  06BD  2EBF               	goto	u4180
  5980  06BE                     u4181:
  5981  06BE  2F13               	goto	l3679
  5982  06BF                     u4180:
  5983  06BF                     l3671:
  5984  06BF  3001               	movlw	1
  5985  06C0  1683               	bsf	3,5	;RP0=1, select bank1
  5986  06C1  1303               	bcf	3,6	;RP1=0, select bank1
  5987  06C2  07AD               	addwf	___fladd@b^(0+128),f
  5988  06C3  3000               	movlw	0
  5989  06C4  1803               	skipnc
  5990  06C5  3001               	movlw	1
  5991  06C6  07AE               	addwf	(___fladd@b+1)^(0+128),f
  5992  06C7  3000               	movlw	0
  5993  06C8  1803               	skipnc
  5994  06C9  3001               	movlw	1
  5995  06CA  07AF               	addwf	(___fladd@b+2)^(0+128),f
  5996  06CB  3000               	movlw	0
  5997  06CC  1803               	skipnc
  5998  06CD  3001               	movlw	1
  5999  06CE  07B0               	addwf	(___fladd@b+3)^(0+128),f
  6000  06CF                     l3673:
  6001  06CF  1C30               	btfss	(___fladd@b+3)^(0+128),0
  6002  06D0  2ED2               	goto	u4191
  6003  06D1  2ED3               	goto	u4190
  6004  06D2                     u4191:
  6005  06D2  2F13               	goto	l3679
  6006  06D3                     u4190:
  6007  06D3                     l3675:
  6008  06D3  082D               	movf	___fladd@b^(0+128),w
  6009  06D4  1283               	bcf	3,5	;RP0=0, select bank0
  6010  06D5  1303               	bcf	3,6	;RP1=0, select bank0
  6011  06D6  00D4               	movwf	??___fladd
  6012  06D7  1683               	bsf	3,5	;RP0=1, select bank1
  6013  06D8  1303               	bcf	3,6	;RP1=0, select bank1
  6014  06D9  082E               	movf	(___fladd@b+1)^(0+128),w
  6015  06DA  1283               	bcf	3,5	;RP0=0, select bank0
  6016  06DB  1303               	bcf	3,6	;RP1=0, select bank0
  6017  06DC  00D5               	movwf	??___fladd+1
  6018  06DD  1683               	bsf	3,5	;RP0=1, select bank1
  6019  06DE  1303               	bcf	3,6	;RP1=0, select bank1
  6020  06DF  082F               	movf	(___fladd@b+2)^(0+128),w
  6021  06E0  1283               	bcf	3,5	;RP0=0, select bank0
  6022  06E1  1303               	bcf	3,6	;RP1=0, select bank0
  6023  06E2  00D6               	movwf	??___fladd+2
  6024  06E3  1683               	bsf	3,5	;RP0=1, select bank1
  6025  06E4  1303               	bcf	3,6	;RP1=0, select bank1
  6026  06E5  0830               	movf	(___fladd@b+3)^(0+128),w
  6027  06E6  1283               	bcf	3,5	;RP0=0, select bank0
  6028  06E7  1303               	bcf	3,6	;RP1=0, select bank0
  6029  06E8  00D7               	movwf	??___fladd+3
  6030  06E9  3001               	movlw	1
  6031  06EA  00D8               	movwf	??___fladd+4
  6032  06EB                     u4205:
  6033  06EB  0D57               	rlf	??___fladd+3,w
  6034  06EC  0CD7               	rrf	??___fladd+3,f
  6035  06ED  0CD6               	rrf	??___fladd+2,f
  6036  06EE  0CD5               	rrf	??___fladd+1,f
  6037  06EF  0CD4               	rrf	??___fladd,f
  6038  06F0                     u4200:
  6039  06F0  0BD8               	decfsz	??___fladd+4,f
  6040  06F1  2EEB               	goto	u4205
  6041  06F2  0857               	movf	??___fladd+3,w
  6042  06F3  1683               	bsf	3,5	;RP0=1, select bank1
  6043  06F4  1303               	bcf	3,6	;RP1=0, select bank1
  6044  06F5  00B0               	movwf	(___fladd@b+3)^(0+128)
  6045  06F6  1283               	bcf	3,5	;RP0=0, select bank0
  6046  06F7  1303               	bcf	3,6	;RP1=0, select bank0
  6047  06F8  0856               	movf	??___fladd+2,w
  6048  06F9  1683               	bsf	3,5	;RP0=1, select bank1
  6049  06FA  1303               	bcf	3,6	;RP1=0, select bank1
  6050  06FB  00AF               	movwf	(___fladd@b+2)^(0+128)
  6051  06FC  1283               	bcf	3,5	;RP0=0, select bank0
  6052  06FD  1303               	bcf	3,6	;RP1=0, select bank0
  6053  06FE  0855               	movf	??___fladd+1,w
  6054  06FF  1683               	bsf	3,5	;RP0=1, select bank1
  6055  0700  1303               	bcf	3,6	;RP1=0, select bank1
  6056  0701  00AE               	movwf	(___fladd@b+1)^(0+128)
  6057  0702  1283               	bcf	3,5	;RP0=0, select bank0
  6058  0703  1303               	bcf	3,6	;RP1=0, select bank0
  6059  0704  0854               	movf	??___fladd,w
  6060  0705  1683               	bsf	3,5	;RP0=1, select bank1
  6061  0706  1303               	bcf	3,6	;RP1=0, select bank1
  6062  0707  00AD               	movwf	___fladd@b^(0+128)
  6063  0708  1283               	bcf	3,5	;RP0=0, select bank0
  6064  0709  1303               	bcf	3,6	;RP1=0, select bank0
  6065  070A  0A5E               	incf	___fladd@bexp,w
  6066  070B  1903               	btfsc	3,2
  6067  070C  2F0E               	goto	u4211
  6068  070D  2F0F               	goto	u4210
  6069  070E                     u4211:
  6070  070E  2F13               	goto	l3679
  6071  070F                     u4210:
  6072  070F                     l3677:
  6073  070F  3001               	movlw	1
  6074  0710  00FF               	movwf	btemp+1
  6075  0711  087F               	movf	btemp+1,w
  6076  0712  07DE               	addwf	___fladd@bexp,f
  6077  0713                     l3679:
  6078  0713  1283               	bcf	3,5	;RP0=0, select bank0
  6079  0714  0A5E               	incf	___fladd@bexp,w
  6080  0715  1903               	btfsc	3,2
  6081  0716  2F18               	goto	u4221
  6082  0717  2F19               	goto	u4220
  6083  0718                     u4221:
  6084  0718  2F1E               	goto	l3683
  6085  0719                     u4220:
  6086  0719                     l3681:
  6087  0719  085E               	movf	___fladd@bexp,w
  6088  071A  1D03               	btfss	3,2
  6089  071B  2F1D               	goto	u4231
  6090  071C  2F1E               	goto	u4230
  6091  071D                     u4231:
  6092  071D  2F30               	goto	l3689
  6093  071E                     u4230:
  6094  071E                     l3683:
  6095  071E  3000               	movlw	0
  6096  071F  1683               	bsf	3,5	;RP0=1, select bank1
  6097  0720  1303               	bcf	3,6	;RP1=0, select bank1
  6098  0721  00B0               	movwf	(___fladd@b+3)^(0+128)
  6099  0722  3000               	movlw	0
  6100  0723  00AF               	movwf	(___fladd@b+2)^(0+128)
  6101  0724  3000               	movlw	0
  6102  0725  00AE               	movwf	(___fladd@b+1)^(0+128)
  6103  0726  3000               	movlw	0
  6104  0727  00AD               	movwf	___fladd@b^(0+128)
  6105  0728                     l3685:
  6106  0728  1283               	bcf	3,5	;RP0=0, select bank0
  6107  0729  1303               	bcf	3,6	;RP1=0, select bank0
  6108  072A  085E               	movf	___fladd@bexp,w
  6109  072B  1D03               	btfss	3,2
  6110  072C  2F2E               	goto	u4241
  6111  072D  2F2F               	goto	u4240
  6112  072E                     u4241:
  6113  072E  2F30               	goto	l3689
  6114  072F                     u4240:
  6115  072F                     l3687:
  6116  072F  01DC               	clrf	___fladd@signs
  6117  0730                     l3689:
  6118  0730  1C5E               	btfss	___fladd@bexp,0
  6119  0731  2F33               	goto	u4251
  6120  0732  2F34               	goto	u4250
  6121  0733                     u4251:
  6122  0733  2F38               	goto	l3693
  6123  0734                     u4250:
  6124  0734                     l3691:
  6125  0734  1683               	bsf	3,5	;RP0=1, select bank1
  6126  0735  1303               	bcf	3,6	;RP1=0, select bank1
  6127  0736  17AF               	bsf	(___fladd@b^(0+128)+2),7
  6128  0737  2F3E               	goto	l714
  6129  0738                     l3693:
  6130  0738  307F               	movlw	127
  6131  0739  00FF               	movwf	btemp+1
  6132  073A  087F               	movf	btemp+1,w
  6133  073B  1683               	bsf	3,5	;RP0=1, select bank1
  6134  073C  1303               	bcf	3,6	;RP1=0, select bank1
  6135  073D  05AF               	andwf	(___fladd@b^(0+128)+2),f
  6136  073E                     l714:
  6137  073E  1283               	bcf	3,5	;RP0=0, select bank0
  6138  073F  1303               	bcf	3,6	;RP1=0, select bank0
  6139  0740  085E               	movf	___fladd@bexp,w
  6140  0741  00D4               	movwf	??___fladd
  6141  0742  1003               	clrc
  6142  0743  0C54               	rrf	??___fladd,w
  6143  0744  00FF               	movwf	btemp+1
  6144  0745  087F               	movf	btemp+1,w
  6145  0746  1683               	bsf	3,5	;RP0=1, select bank1
  6146  0747  1303               	bcf	3,6	;RP1=0, select bank1
  6147  0748  00B0               	movwf	(___fladd@b^(0+128)+3)
  6148  0749                     l3695:
  6149  0749  1283               	bcf	3,5	;RP0=0, select bank0
  6150  074A  1303               	bcf	3,6	;RP1=0, select bank0
  6151  074B  1FDC               	btfss	___fladd@signs,7
  6152  074C  2F4E               	goto	u4261
  6153  074D  2F4F               	goto	u4260
  6154  074E                     u4261:
  6155  074E  2F52               	goto	l715
  6156  074F                     u4260:
  6157  074F                     l3697:
  6158  074F  1683               	bsf	3,5	;RP0=1, select bank1
  6159  0750  1303               	bcf	3,6	;RP1=0, select bank1
  6160  0751  17B0               	bsf	(___fladd@b^(0+128)+3),7
  6161  0752                     l715:
  6162  0752                     l685:
  6163  0752  0008               	return
  6164  0753                     __end_of___fladd:
  6165                           
  6166                           	psect	text9
  6167  12E1                     __ptext9:	
  6168 ;; *************** function _setup *****************
  6169 ;; Defined at:
  6170 ;;		line 145 in file "C:/MPlab_Digital2/Digital_2/Proyecto3Digital2.X/main.c"
  6171 ;; Parameters:    Size  Location     Type
  6172 ;;		None
  6173 ;; Auto vars:     Size  Location     Type
  6174 ;;		None
  6175 ;; Return value:  Size  Location     Type
  6176 ;;                  1    wreg      void 
  6177 ;; Registers used:
  6178 ;;		wreg, fsr0l, fsr0h, status,2, status,0, pclath, cstack
  6179 ;; Tracked objects:
  6180 ;;		On entry : 0/0
  6181 ;;		On exit  : 0/0
  6182 ;;		Unchanged: 0/0
  6183 ;; Data sizes:     COMMON   BANK0   BANK1   BANK3   BANK2
  6184 ;;      Params:         0       0       0       0       0
  6185 ;;      Locals:         0       0       0       0       0
  6186 ;;      Temps:          0       0       0       0       0
  6187 ;;      Totals:         0       0       0       0       0
  6188 ;;Total ram usage:        0 bytes
  6189 ;; Hardware stack levels used:    1
  6190 ;; Hardware stack levels required when called:    6
  6191 ;; This function calls:
  6192 ;;		_Lcd_Init
  6193 ;;		_initOsc
  6194 ;;		_initUSART
  6195 ;;		_spiInit
  6196 ;; This function is called by:
  6197 ;;		_main
  6198 ;; This function uses a non-reentrant model
  6199 ;;
  6200                           
  6201                           
  6202                           ;psect for function _setup
  6203  12E1                     _setup:
  6204  12E1                     l3171:	
  6205                           ;incstack = 0
  6206                           ; Regs used in _setup: [wreg-fsr0h+status,2+status,0+pclath+cstack]
  6207                           
  6208                           
  6209                           ;C:/MPlab_Digital2/Digital_2/Proyecto3Digital2.X/main.c: 146:     }
  6210  12E1  160A  118A  217E  160A  118A  	fcall	_initUSART
  6211  12E6                     l3173:
  6212                           
  6213                           ;C:/MPlab_Digital2/Digital_2/Proyecto3Digital2.X/main.c: 147: }
  6214  12E6  3006               	movlw	6
  6215  12E7  160A  118A  2380  160A  118A  	fcall	_initOsc
  6216  12EC                     l3175:
  6217                           
  6218                           ;C:/MPlab_Digital2/Digital_2/Proyecto3Digital2.X/main.c: 148: void envio_esclavos(void){
  6219  12EC  30D7               	movlw	215
  6220  12ED  1683               	bsf	3,5	;RP0=1, select bank1
  6221  12EE  1303               	bcf	3,6	;RP1=0, select bank1
  6222  12EF  0081               	movwf	1	;volatile
  6223  12F0                     l3177:
  6224                           
  6225                           ;C:/MPlab_Digital2/Digital_2/Proyecto3Digital2.X/main.c: 149:     if (controles > 50){
  6226  12F0  1683               	bsf	3,5	;RP0=1, select bank3
  6227  12F1  1703               	bsf	3,6	;RP1=1, select bank3
  6228  12F2  0188               	clrf	8	;volatile
  6229  12F3                     l3179:
  6230                           
  6231                           ;C:/MPlab_Digital2/Digital_2/Proyecto3Digital2.X/main.c: 150:         controles = 0;
  6232  12F3  0189               	clrf	9	;volatile
  6233  12F4                     l3181:
  6234                           
  6235                           ;C:/MPlab_Digital2/Digital_2/Proyecto3Digital2.X/main.c: 151:         PORTCbits.RC2 = 1;
  6236  12F4  1283               	bcf	3,5	;RP0=0, select bank0
  6237  12F5  1303               	bcf	3,6	;RP1=0, select bank0
  6238  12F6  0187               	clrf	7	;volatile
  6239  12F7                     l3183:
  6240                           
  6241                           ;C:/MPlab_Digital2/Digital_2/Proyecto3Digital2.X/main.c: 152:         PORTCbits.RC1 = 1;
  6242  12F7  0188               	clrf	8	;volatile
  6243  12F8                     l3185:
  6244                           
  6245                           ;C:/MPlab_Digital2/Digital_2/Proyecto3Digital2.X/main.c: 153:         PORTCbits.RC0 = 1;
  6246  12F8  1683               	bsf	3,5	;RP0=1, select bank1
  6247  12F9  1303               	bcf	3,6	;RP1=0, select bank1
  6248  12FA  0188               	clrf	8	;volatile
  6249  12FB                     l3187:
  6250                           
  6251                           ;C:/MPlab_Digital2/Digital_2/Proyecto3Digital2.X/main.c: 154:         switch(slave){
  6252  12FB  1283               	bcf	3,5	;RP0=0, select bank0
  6253  12FC  1303               	bcf	3,6	;RP1=0, select bank0
  6254  12FD  0186               	clrf	6	;volatile
  6255  12FE                     l3189:
  6256                           
  6257                           ;C:/MPlab_Digital2/Digital_2/Proyecto3Digital2.X/main.c: 155:             case 0:
  6258  12FE  1683               	bsf	3,5	;RP0=1, select bank1
  6259  12FF  1303               	bcf	3,6	;RP1=0, select bank1
  6260  1300  0189               	clrf	9	;volatile
  6261  1301                     l3191:
  6262                           
  6263                           ;C:/MPlab_Digital2/Digital_2/Proyecto3Digital2.X/main.c: 156:                 PORTCbits.
      +                          RC0 = 0;
  6264  1301  1283               	bcf	3,5	;RP0=0, select bank0
  6265  1302  1303               	bcf	3,6	;RP1=0, select bank0
  6266  1303  0189               	clrf	9	;volatile
  6267  1304                     l3193:
  6268                           
  6269                           ;C:/MPlab_Digital2/Digital_2/Proyecto3Digital2.X/main.c: 157:                 SSPBUF = 0
      +                          ;
  6270  1304  0185               	clrf	5	;volatile
  6271  1305                     l3195:
  6272                           
  6273                           ;C:/MPlab_Digital2/Digital_2/Proyecto3Digital2.X/main.c: 158:                 esclavo1 =
      +                           spiRead();
  6274  1305  1683               	bsf	3,5	;RP0=1, select bank1
  6275  1306  1303               	bcf	3,6	;RP1=0, select bank1
  6276  1307  0185               	clrf	5	;volatile
  6277  1308                     l3197:
  6278                           
  6279                           ;C:/MPlab_Digital2/Digital_2/Proyecto3Digital2.X/main.c: 159:                 slave++;
  6280  1308  0186               	clrf	6	;volatile
  6281  1309                     l3199:
  6282                           
  6283                           ;C:/MPlab_Digital2/Digital_2/Proyecto3Digital2.X/main.c: 160:                 break;
  6284  1309  1283               	bcf	3,5	;RP0=0, select bank0
  6285  130A  1303               	bcf	3,6	;RP1=0, select bank0
  6286  130B  1407               	bsf	7,0	;volatile
  6287  130C                     l3201:
  6288                           
  6289                           ;C:/MPlab_Digital2/Digital_2/Proyecto3Digital2.X/main.c: 161:             case 1:
  6290  130C  1487               	bsf	7,1	;volatile
  6291  130D                     l3203:
  6292                           
  6293                           ;C:/MPlab_Digital2/Digital_2/Proyecto3Digital2.X/main.c: 162:                 PORTCbits.
      +                          RC1 = 0;
  6294  130D  1507               	bsf	7,2	;volatile
  6295  130E                     l3205:
  6296                           
  6297                           ;C:/MPlab_Digital2/Digital_2/Proyecto3Digital2.X/main.c: 163:                 SSPBUF = 0
      +                          ;
  6298  130E  160A  118A  23D7  160A  118A  	fcall	_Lcd_Init
  6299  1313                     l3207:
  6300                           
  6301                           ;C:/MPlab_Digital2/Digital_2/Proyecto3Digital2.X/main.c: 165:                 slave++;
  6302  1313  1683               	bsf	3,5	;RP0=1, select bank1
  6303  1314  1303               	bcf	3,6	;RP1=0, select bank1
  6304  1315  1607               	bsf	7,4	;volatile
  6305  1316                     l3209:
  6306                           
  6307                           ;C:/MPlab_Digital2/Digital_2/Proyecto3Digital2.X/main.c: 166:                 break;
  6308  1316  1187               	bcf	7,3	;volatile
  6309  1317                     l3211:
  6310                           
  6311                           ;C:/MPlab_Digital2/Digital_2/Proyecto3Digital2.X/main.c: 167:             case 2:
  6312  1317  1007               	bcf	7,0	;volatile
  6313  1318                     l3213:
  6314                           
  6315                           ;C:/MPlab_Digital2/Digital_2/Proyecto3Digital2.X/main.c: 168:                 PORTCbits.
      +                          RC2 = 0;
  6316  1318  1087               	bcf	7,1	;volatile
  6317  1319                     l3215:
  6318                           
  6319                           ;C:/MPlab_Digital2/Digital_2/Proyecto3Digital2.X/main.c: 169:                 SSPBUF = 0
      +                          ;
  6320  1319  1107               	bcf	7,2	;volatile
  6321  131A                     l3217:
  6322                           
  6323                           ;C:/MPlab_Digital2/Digital_2/Proyecto3Digital2.X/main.c: 170:                 esclavo3 =
      +                           spiRead();
  6324  131A  1283               	bcf	3,5	;RP0=0, select bank0
  6325  131B  1303               	bcf	3,6	;RP1=0, select bank0
  6326  131C  01AB               	clrf	spiInit@sDataSample
  6327  131D  01AC               	clrf	spiInit@sClockIdle
  6328  131E  01AD               	clrf	spiInit@sTransmitEdge
  6329  131F  3020               	movlw	32
  6330  1320  160A  118A  21BF  160A  118A  	fcall	_spiInit
  6331  1325                     l3219:
  6332                           
  6333                           ;C:/MPlab_Digital2/Digital_2/Proyecto3Digital2.X/main.c: 172:                 break;
  6334  1325  178B               	bsf	11,7	;volatile
  6335  1326                     l3221:
  6336                           
  6337                           ;C:/MPlab_Digital2/Digital_2/Proyecto3Digital2.X/main.c: 173:         }
  6338  1326  170B               	bsf	11,6	;volatile
  6339  1327                     l3223:
  6340                           
  6341                           ;C:/MPlab_Digital2/Digital_2/Proyecto3Digital2.X/main.c: 174:       }
  6342  1327  168B               	bsf	11,5	;volatile
  6343  1328                     l3225:
  6344                           
  6345                           ;C:/MPlab_Digital2/Digital_2/Proyecto3Digital2.X/main.c: 175:    }
  6346  1328  110B               	bcf	11,2	;volatile
  6347  1329                     l3227:
  6348                           
  6349                           ;C:/MPlab_Digital2/Digital_2/Proyecto3Digital2.X/main.c: 176: void envio (void){
  6350  1329  1683               	bsf	3,5	;RP0=1, select bank1
  6351  132A  1303               	bcf	3,6	;RP1=0, select bank1
  6352  132B  160C               	bsf	12,4	;volatile
  6353  132C                     l3229:
  6354                           
  6355                           ;C:/MPlab_Digital2/Digital_2/Proyecto3Digital2.X/main.c: 177:     switch (var_envio){
  6356  132C  1283               	bcf	3,5	;RP0=0, select bank0
  6357  132D  1303               	bcf	3,6	;RP1=0, select bank0
  6358  132E  120C               	bcf	12,4	;volatile
  6359  132F                     l178:
  6360  132F  0008               	return
  6361  1330                     __end_of_setup:
  6362                           
  6363                           	psect	text10
  6364  11BF                     __ptext10:	
  6365 ;; *************** function _spiInit *****************
  6366 ;; Defined at:
  6367 ;;		line 12 in file "C:/MPlab_Digital2/Digital_2/Proyecto3Digital2.X/SPI.c"
  6368 ;; Parameters:    Size  Location     Type
  6369 ;;  sType           1    wreg     enum E1264
  6370 ;;  sDataSample     1   11[BANK0 ] enum E1272
  6371 ;;  sClockIdle      1   12[BANK0 ] enum E1276
  6372 ;;  sTransmitEdg    1   13[BANK0 ] enum E1280
  6373 ;; Auto vars:     Size  Location     Type
  6374 ;;  sType           1   14[BANK0 ] enum E1264
  6375 ;; Return value:  Size  Location     Type
  6376 ;;                  1    wreg      void 
  6377 ;; Registers used:
  6378 ;;		wreg, status,2, status,0
  6379 ;; Tracked objects:
  6380 ;;		On entry : 0/0
  6381 ;;		On exit  : 0/0
  6382 ;;		Unchanged: 0/0
  6383 ;; Data sizes:     COMMON   BANK0   BANK1   BANK3   BANK2
  6384 ;;      Params:         0       3       0       0       0
  6385 ;;      Locals:         0       1       0       0       0
  6386 ;;      Temps:          0       0       0       0       0
  6387 ;;      Totals:         0       4       0       0       0
  6388 ;;Total ram usage:        4 bytes
  6389 ;; Hardware stack levels used:    1
  6390 ;; Hardware stack levels required when called:    3
  6391 ;; This function calls:
  6392 ;;		Nothing
  6393 ;; This function is called by:
  6394 ;;		_setup
  6395 ;; This function uses a non-reentrant model
  6396 ;;
  6397                           
  6398                           
  6399                           ;psect for function _spiInit
  6400  11BF                     _spiInit:
  6401                           
  6402                           ;incstack = 0
  6403                           ; Regs used in _spiInit: [wreg+status,2+status,0]
  6404                           ;spiInit@sType stored from wreg
  6405  11BF  1283               	bcf	3,5	;RP0=0, select bank0
  6406  11C0  1303               	bcf	3,6	;RP1=0, select bank0
  6407  11C1  00AE               	movwf	spiInit@sType
  6408  11C2                     l2287:
  6409                           
  6410                           ;C:/MPlab_Digital2/Digital_2/Proyecto3Digital2.X/SPI.c: 12: void spiInit(Spi_Type sType,
      +                           Spi_Data_Sample sDataSample, Spi_Clock_Idle sClockIdle, Spi_Transmit_Edge sTransmitEdge
      +                          );C:/MPlab_Digital2/Digital_2/Proyecto3Digital2.X/SPI.c: 13: {;C:/MPlab_Digital2/Digital
      +                          _2/Proyecto3Digital2.X/SPI.c: 14:     TRISC5 = 0;
  6411  11C2  1683               	bsf	3,5	;RP0=1, select bank1
  6412  11C3  1303               	bcf	3,6	;RP1=0, select bank1
  6413  11C4  1287               	bcf	7,5	;volatile
  6414                           
  6415                           ;C:/MPlab_Digital2/Digital_2/Proyecto3Digital2.X/SPI.c: 15:     if(sType & 0b00000100)
  6416  11C5  1283               	bcf	3,5	;RP0=0, select bank0
  6417  11C6  1303               	bcf	3,6	;RP1=0, select bank0
  6418  11C7  1D2E               	btfss	spiInit@sType,2
  6419  11C8  29CA               	goto	u1961
  6420  11C9  29CB               	goto	u1960
  6421  11CA                     u1961:
  6422  11CA  29D1               	goto	l2293
  6423  11CB                     u1960:
  6424  11CB                     l2289:
  6425                           
  6426                           ;C:/MPlab_Digital2/Digital_2/Proyecto3Digital2.X/SPI.c: 16:     {;C:/MPlab_Digital2/Digi
      +                          tal_2/Proyecto3Digital2.X/SPI.c: 17:         SSPSTAT = sTransmitEdge;
  6427  11CB  082D               	movf	spiInit@sTransmitEdge,w
  6428  11CC  1683               	bsf	3,5	;RP0=1, select bank1
  6429  11CD  1303               	bcf	3,6	;RP1=0, select bank1
  6430  11CE  0094               	movwf	20	;volatile
  6431  11CF                     l2291:
  6432                           
  6433                           ;C:/MPlab_Digital2/Digital_2/Proyecto3Digital2.X/SPI.c: 18:         TRISC3 = 1;
  6434  11CF  1587               	bsf	7,3	;volatile
  6435                           
  6436                           ;C:/MPlab_Digital2/Digital_2/Proyecto3Digital2.X/SPI.c: 19:     }
  6437  11D0  29D7               	goto	l275
  6438  11D1                     l2293:
  6439                           
  6440                           ;C:/MPlab_Digital2/Digital_2/Proyecto3Digital2.X/SPI.c: 21:     {;C:/MPlab_Digital2/Digi
      +                          tal_2/Proyecto3Digital2.X/SPI.c: 22:         SSPSTAT = sDataSample | sTransmitEdge;
  6441  11D1  082B               	movf	spiInit@sDataSample,w
  6442  11D2  042D               	iorwf	spiInit@sTransmitEdge,w
  6443  11D3  1683               	bsf	3,5	;RP0=1, select bank1
  6444  11D4  1303               	bcf	3,6	;RP1=0, select bank1
  6445  11D5  0094               	movwf	20	;volatile
  6446  11D6                     l2295:
  6447                           
  6448                           ;C:/MPlab_Digital2/Digital_2/Proyecto3Digital2.X/SPI.c: 23:         TRISC3 = 0;
  6449  11D6  1187               	bcf	7,3	;volatile
  6450  11D7                     l275:	
  6451                           ;C:/MPlab_Digital2/Digital_2/Proyecto3Digital2.X/SPI.c: 24:     }
  6452                           
  6453                           
  6454                           ;C:/MPlab_Digital2/Digital_2/Proyecto3Digital2.X/SPI.c: 26:     SSPCON = sType | sClockI
      +                          dle;
  6455  11D7  1283               	bcf	3,5	;RP0=0, select bank0
  6456  11D8  1303               	bcf	3,6	;RP1=0, select bank0
  6457  11D9  082E               	movf	spiInit@sType,w
  6458  11DA  042C               	iorwf	spiInit@sClockIdle,w
  6459  11DB  0094               	movwf	20	;volatile
  6460  11DC                     l276:
  6461  11DC  0008               	return
  6462  11DD                     __end_of_spiInit:
  6463                           
  6464                           	psect	text11
  6465  117E                     __ptext11:	
  6466 ;; *************** function _initUSART *****************
  6467 ;; Defined at:
  6468 ;;		line 12 in file "C:/MPlab_Digital2/Digital_2/Proyecto3Digital2.X/usart9600.c"
  6469 ;; Parameters:    Size  Location     Type
  6470 ;;		None
  6471 ;; Auto vars:     Size  Location     Type
  6472 ;;		None
  6473 ;; Return value:  Size  Location     Type
  6474 ;;                  1    wreg      void 
  6475 ;; Registers used:
  6476 ;;		wreg, status,2
  6477 ;; Tracked objects:
  6478 ;;		On entry : 0/0
  6479 ;;		On exit  : 0/0
  6480 ;;		Unchanged: 0/0
  6481 ;; Data sizes:     COMMON   BANK0   BANK1   BANK3   BANK2
  6482 ;;      Params:         0       0       0       0       0
  6483 ;;      Locals:         0       0       0       0       0
  6484 ;;      Temps:          0       0       0       0       0
  6485 ;;      Totals:         0       0       0       0       0
  6486 ;;Total ram usage:        0 bytes
  6487 ;; Hardware stack levels used:    1
  6488 ;; Hardware stack levels required when called:    3
  6489 ;; This function calls:
  6490 ;;		Nothing
  6491 ;; This function is called by:
  6492 ;;		_setup
  6493 ;; This function uses a non-reentrant model
  6494 ;;
  6495                           
  6496                           
  6497                           ;psect for function _initUSART
  6498  117E                     _initUSART:
  6499  117E                     l2273:	
  6500                           ;incstack = 0
  6501                           ; Regs used in _initUSART: [wreg+status,2]
  6502                           
  6503                           
  6504                           ;C:/MPlab_Digital2/Digital_2/Proyecto3Digital2.X/usart9600.c: 13:     TXSTAbits.TX9 = 0;
  6505  117E  1683               	bsf	3,5	;RP0=1, select bank1
  6506  117F  1303               	bcf	3,6	;RP1=0, select bank1
  6507  1180  1318               	bcf	24,6	;volatile
  6508                           
  6509                           ;C:/MPlab_Digital2/Digital_2/Proyecto3Digital2.X/usart9600.c: 14:     TXSTAbits.SYNC = 0
      +                          ;
  6510  1181  1218               	bcf	24,4	;volatile
  6511                           
  6512                           ;C:/MPlab_Digital2/Digital_2/Proyecto3Digital2.X/usart9600.c: 15:     TXSTAbits.BRGH = 1
      +                          ;
  6513  1182  1518               	bsf	24,2	;volatile
  6514                           
  6515                           ;C:/MPlab_Digital2/Digital_2/Proyecto3Digital2.X/usart9600.c: 16:     BAUDCTLbits.BRG16 
      +                          = 0;
  6516  1183  1683               	bsf	3,5	;RP0=1, select bank3
  6517  1184  1703               	bsf	3,6	;RP1=1, select bank3
  6518  1185  1187               	bcf	7,3	;volatile
  6519  1186                     l2275:
  6520                           
  6521                           ;C:/MPlab_Digital2/Digital_2/Proyecto3Digital2.X/usart9600.c: 17:     SPBRG = 25;
  6522  1186  3019               	movlw	25
  6523  1187  1683               	bsf	3,5	;RP0=1, select bank1
  6524  1188  1303               	bcf	3,6	;RP1=0, select bank1
  6525  1189  0099               	movwf	25	;volatile
  6526  118A                     l2277:
  6527                           
  6528                           ;C:/MPlab_Digital2/Digital_2/Proyecto3Digital2.X/usart9600.c: 18:     SPBRGH = 0;
  6529  118A  019A               	clrf	26	;volatile
  6530  118B                     l2279:
  6531                           
  6532                           ;C:/MPlab_Digital2/Digital_2/Proyecto3Digital2.X/usart9600.c: 19:     TXSTAbits.TXEN = 1
      +                          ;
  6533  118B  1698               	bsf	24,5	;volatile
  6534  118C                     l2281:
  6535                           
  6536                           ;C:/MPlab_Digital2/Digital_2/Proyecto3Digital2.X/usart9600.c: 20:     RCSTAbits.SPEN = 1
      +                          ;
  6537  118C  1283               	bcf	3,5	;RP0=0, select bank0
  6538  118D  1303               	bcf	3,6	;RP1=0, select bank0
  6539  118E  1798               	bsf	24,7	;volatile
  6540  118F                     l2283:
  6541                           
  6542                           ;C:/MPlab_Digital2/Digital_2/Proyecto3Digital2.X/usart9600.c: 21:     RCSTAbits.RX9 = 0;
  6543  118F  1318               	bcf	24,6	;volatile
  6544  1190                     l2285:
  6545                           
  6546                           ;C:/MPlab_Digital2/Digital_2/Proyecto3Digital2.X/usart9600.c: 22:     RCSTAbits.CREN = 1
      +                          ;
  6547  1190  1618               	bsf	24,4	;volatile
  6548  1191                     l259:
  6549  1191  0008               	return
  6550  1192                     __end_of_initUSART:
  6551                           
  6552                           	psect	text12
  6553  1380                     __ptext12:	
  6554 ;; *************** function _initOsc *****************
  6555 ;; Defined at:
  6556 ;;		line 8 in file "C:/MPlab_Digital2/Digital_2/Proyecto3Digital2.X/librerias2.c"
  6557 ;; Parameters:    Size  Location     Type
  6558 ;;  option          1    wreg     unsigned char 
  6559 ;; Auto vars:     Size  Location     Type
  6560 ;;  option          1   13[BANK0 ] unsigned char 
  6561 ;; Return value:  Size  Location     Type
  6562 ;;                  1    wreg      void 
  6563 ;; Registers used:
  6564 ;;		wreg, fsr0l, fsr0h, status,2, status,0
  6565 ;; Tracked objects:
  6566 ;;		On entry : 0/0
  6567 ;;		On exit  : 0/0
  6568 ;;		Unchanged: 0/0
  6569 ;; Data sizes:     COMMON   BANK0   BANK1   BANK3   BANK2
  6570 ;;      Params:         0       0       0       0       0
  6571 ;;      Locals:         0       1       0       0       0
  6572 ;;      Temps:          0       2       0       0       0
  6573 ;;      Totals:         0       3       0       0       0
  6574 ;;Total ram usage:        3 bytes
  6575 ;; Hardware stack levels used:    1
  6576 ;; Hardware stack levels required when called:    3
  6577 ;; This function calls:
  6578 ;;		Nothing
  6579 ;; This function is called by:
  6580 ;;		_setup
  6581 ;; This function uses a non-reentrant model
  6582 ;;
  6583                           
  6584                           
  6585                           ;psect for function _initOsc
  6586  1380                     _initOsc:
  6587                           
  6588                           ;incstack = 0
  6589                           ; Regs used in _initOsc: [wreg-fsr0h+status,2+status,0]
  6590                           ;initOsc@option stored from wreg
  6591  1380  1283               	bcf	3,5	;RP0=0, select bank0
  6592  1381  1303               	bcf	3,6	;RP1=0, select bank0
  6593  1382  00AD               	movwf	initOsc@option
  6594  1383                     l2255:
  6595                           
  6596                           ;C:/MPlab_Digital2/Digital_2/Proyecto3Digital2.X/librerias2.c: 9:     switch (option){
  6597  1383  2BB4               	goto	l2259
  6598  1384                     l47:	
  6599                           ;C:/MPlab_Digital2/Digital_2/Proyecto3Digital2.X/librerias2.c: 10:         case 0:
  6600                           
  6601                           
  6602                           ;C:/MPlab_Digital2/Digital_2/Proyecto3Digital2.X/librerias2.c: 11:             OSCCONbit
      +                          s.IRCF2 = 0;
  6603  1384  1683               	bsf	3,5	;RP0=1, select bank1
  6604  1385  1303               	bcf	3,6	;RP1=0, select bank1
  6605  1386  130F               	bcf	15,6	;volatile
  6606                           
  6607                           ;C:/MPlab_Digital2/Digital_2/Proyecto3Digital2.X/librerias2.c: 12:             OSCCONbit
      +                          s.IRCF1 = 0;
  6608  1387  128F               	bcf	15,5	;volatile
  6609                           
  6610                           ;C:/MPlab_Digital2/Digital_2/Proyecto3Digital2.X/librerias2.c: 13:             OSCCONbit
      +                          s.IRCF0 = 0;
  6611  1388  120F               	bcf	15,4	;volatile
  6612                           
  6613                           ;C:/MPlab_Digital2/Digital_2/Proyecto3Digital2.X/librerias2.c: 14:             break;
  6614  1389  2BD6               	goto	l56
  6615  138A                     l49:	
  6616                           ;C:/MPlab_Digital2/Digital_2/Proyecto3Digital2.X/librerias2.c: 15:         case 1:
  6617                           
  6618                           
  6619                           ;C:/MPlab_Digital2/Digital_2/Proyecto3Digital2.X/librerias2.c: 16:             OSCCONbit
      +                          s.IRCF2 = 0;
  6620  138A  1683               	bsf	3,5	;RP0=1, select bank1
  6621  138B  1303               	bcf	3,6	;RP1=0, select bank1
  6622  138C  130F               	bcf	15,6	;volatile
  6623                           
  6624                           ;C:/MPlab_Digital2/Digital_2/Proyecto3Digital2.X/librerias2.c: 17:             OSCCONbit
      +                          s.IRCF1 = 0;
  6625  138D  128F               	bcf	15,5	;volatile
  6626                           
  6627                           ;C:/MPlab_Digital2/Digital_2/Proyecto3Digital2.X/librerias2.c: 18:             OSCCONbit
      +                          s.IRCF0 = 1;
  6628  138E  160F               	bsf	15,4	;volatile
  6629                           
  6630                           ;C:/MPlab_Digital2/Digital_2/Proyecto3Digital2.X/librerias2.c: 19:             break;
  6631  138F  2BD6               	goto	l56
  6632  1390                     l50:	
  6633                           ;C:/MPlab_Digital2/Digital_2/Proyecto3Digital2.X/librerias2.c: 20:         case 2:
  6634                           
  6635                           
  6636                           ;C:/MPlab_Digital2/Digital_2/Proyecto3Digital2.X/librerias2.c: 21:             OSCCONbit
      +                          s.IRCF2 = 0;
  6637  1390  1683               	bsf	3,5	;RP0=1, select bank1
  6638  1391  1303               	bcf	3,6	;RP1=0, select bank1
  6639  1392  130F               	bcf	15,6	;volatile
  6640                           
  6641                           ;C:/MPlab_Digital2/Digital_2/Proyecto3Digital2.X/librerias2.c: 22:             OSCCONbit
      +                          s.IRCF1 = 1;
  6642  1393  168F               	bsf	15,5	;volatile
  6643                           
  6644                           ;C:/MPlab_Digital2/Digital_2/Proyecto3Digital2.X/librerias2.c: 23:             OSCCONbit
      +                          s.IRCF0 = 0;
  6645  1394  120F               	bcf	15,4	;volatile
  6646                           
  6647                           ;C:/MPlab_Digital2/Digital_2/Proyecto3Digital2.X/librerias2.c: 24:             break;
  6648  1395  2BD6               	goto	l56
  6649  1396                     l51:	
  6650                           ;C:/MPlab_Digital2/Digital_2/Proyecto3Digital2.X/librerias2.c: 25:         case 3:
  6651                           
  6652                           
  6653                           ;C:/MPlab_Digital2/Digital_2/Proyecto3Digital2.X/librerias2.c: 26:             OSCCONbit
      +                          s.IRCF2 = 0;
  6654  1396  1683               	bsf	3,5	;RP0=1, select bank1
  6655  1397  1303               	bcf	3,6	;RP1=0, select bank1
  6656  1398  130F               	bcf	15,6	;volatile
  6657                           
  6658                           ;C:/MPlab_Digital2/Digital_2/Proyecto3Digital2.X/librerias2.c: 27:             OSCCONbit
      +                          s.IRCF1 = 1;
  6659  1399  168F               	bsf	15,5	;volatile
  6660                           
  6661                           ;C:/MPlab_Digital2/Digital_2/Proyecto3Digital2.X/librerias2.c: 28:             OSCCONbit
      +                          s.IRCF0 = 1;
  6662  139A  160F               	bsf	15,4	;volatile
  6663                           
  6664                           ;C:/MPlab_Digital2/Digital_2/Proyecto3Digital2.X/librerias2.c: 29:             break;
  6665  139B  2BD6               	goto	l56
  6666  139C                     l52:	
  6667                           ;C:/MPlab_Digital2/Digital_2/Proyecto3Digital2.X/librerias2.c: 30:         case 4:
  6668                           
  6669                           
  6670                           ;C:/MPlab_Digital2/Digital_2/Proyecto3Digital2.X/librerias2.c: 31:             OSCCONbit
      +                          s.IRCF2 = 1;
  6671  139C  1683               	bsf	3,5	;RP0=1, select bank1
  6672  139D  1303               	bcf	3,6	;RP1=0, select bank1
  6673  139E  170F               	bsf	15,6	;volatile
  6674                           
  6675                           ;C:/MPlab_Digital2/Digital_2/Proyecto3Digital2.X/librerias2.c: 32:             OSCCONbit
      +                          s.IRCF1 = 0;
  6676  139F  128F               	bcf	15,5	;volatile
  6677                           
  6678                           ;C:/MPlab_Digital2/Digital_2/Proyecto3Digital2.X/librerias2.c: 33:             OSCCONbit
      +                          s.IRCF0 = 0;
  6679  13A0  120F               	bcf	15,4	;volatile
  6680                           
  6681                           ;C:/MPlab_Digital2/Digital_2/Proyecto3Digital2.X/librerias2.c: 34:             break;
  6682  13A1  2BD6               	goto	l56
  6683  13A2                     l53:	
  6684                           ;C:/MPlab_Digital2/Digital_2/Proyecto3Digital2.X/librerias2.c: 35:         case 5:
  6685                           
  6686                           
  6687                           ;C:/MPlab_Digital2/Digital_2/Proyecto3Digital2.X/librerias2.c: 36:             OSCCONbit
      +                          s.IRCF2 = 1;
  6688  13A2  1683               	bsf	3,5	;RP0=1, select bank1
  6689  13A3  1303               	bcf	3,6	;RP1=0, select bank1
  6690  13A4  170F               	bsf	15,6	;volatile
  6691                           
  6692                           ;C:/MPlab_Digital2/Digital_2/Proyecto3Digital2.X/librerias2.c: 37:             OSCCONbit
      +                          s.IRCF1 = 0;
  6693  13A5  128F               	bcf	15,5	;volatile
  6694                           
  6695                           ;C:/MPlab_Digital2/Digital_2/Proyecto3Digital2.X/librerias2.c: 38:             OSCCONbit
      +                          s.IRCF0 = 1;
  6696  13A6  160F               	bsf	15,4	;volatile
  6697                           
  6698                           ;C:/MPlab_Digital2/Digital_2/Proyecto3Digital2.X/librerias2.c: 39:             break;
  6699  13A7  2BD6               	goto	l56
  6700  13A8                     l54:	
  6701                           ;C:/MPlab_Digital2/Digital_2/Proyecto3Digital2.X/librerias2.c: 40:         case 6:
  6702                           
  6703                           
  6704                           ;C:/MPlab_Digital2/Digital_2/Proyecto3Digital2.X/librerias2.c: 41:             OSCCONbit
      +                          s.IRCF2 = 1;
  6705  13A8  1683               	bsf	3,5	;RP0=1, select bank1
  6706  13A9  1303               	bcf	3,6	;RP1=0, select bank1
  6707  13AA  170F               	bsf	15,6	;volatile
  6708                           
  6709                           ;C:/MPlab_Digital2/Digital_2/Proyecto3Digital2.X/librerias2.c: 42:             OSCCONbit
      +                          s.IRCF1 = 1;
  6710  13AB  168F               	bsf	15,5	;volatile
  6711                           
  6712                           ;C:/MPlab_Digital2/Digital_2/Proyecto3Digital2.X/librerias2.c: 43:             OSCCONbit
      +                          s.IRCF0 = 0;
  6713  13AC  120F               	bcf	15,4	;volatile
  6714                           
  6715                           ;C:/MPlab_Digital2/Digital_2/Proyecto3Digital2.X/librerias2.c: 44:             break;
  6716  13AD  2BD6               	goto	l56
  6717  13AE                     l55:	
  6718                           ;C:/MPlab_Digital2/Digital_2/Proyecto3Digital2.X/librerias2.c: 45:         case 7:
  6719                           
  6720                           
  6721                           ;C:/MPlab_Digital2/Digital_2/Proyecto3Digital2.X/librerias2.c: 46:             OSCCONbit
      +                          s.IRCF2 = 1;
  6722  13AE  1683               	bsf	3,5	;RP0=1, select bank1
  6723  13AF  1303               	bcf	3,6	;RP1=0, select bank1
  6724  13B0  170F               	bsf	15,6	;volatile
  6725                           
  6726                           ;C:/MPlab_Digital2/Digital_2/Proyecto3Digital2.X/librerias2.c: 47:             OSCCONbit
      +                          s.IRCF1 = 1;
  6727  13B1  168F               	bsf	15,5	;volatile
  6728                           
  6729                           ;C:/MPlab_Digital2/Digital_2/Proyecto3Digital2.X/librerias2.c: 48:             OSCCONbit
      +                          s.IRCF0 = 1;
  6730  13B2  160F               	bsf	15,4	;volatile
  6731                           
  6732                           ;C:/MPlab_Digital2/Digital_2/Proyecto3Digital2.X/librerias2.c: 49:             break;
  6733  13B3  2BD6               	goto	l56
  6734  13B4                     l2259:
  6735  13B4  082D               	movf	initOsc@option,w
  6736  13B5  00AB               	movwf	??_initOsc
  6737  13B6  01AC               	clrf	??_initOsc+1
  6738                           
  6739                           ; Switch on 2 bytes has been partitioned into a top level switch of size 1, and 1 sub-sw
      +                          itches
  6740                           ; Switch size 1, requested type "simple"
  6741                           ; Number of cases is 1, Range of values is 0 to 0
  6742                           ; switch strategies available:
  6743                           ; Name         Instructions Cycles
  6744                           ; simple_byte            4     3 (average)
  6745                           ; direct_byte           11     8 (fixed)
  6746                           ; jumptable            260     6 (fixed)
  6747                           ;	Chosen strategy is simple_byte
  6748  13B7  082C               	movf	??_initOsc+1,w
  6749  13B8  3A00               	xorlw	0	; case 0
  6750  13B9  1903               	skipnz
  6751  13BA  2BBC               	goto	l4041
  6752  13BB  2BD6               	goto	l56
  6753  13BC                     l4041:
  6754                           
  6755                           ; Switch size 1, requested type "simple"
  6756                           ; Number of cases is 8, Range of values is 0 to 7
  6757                           ; switch strategies available:
  6758                           ; Name         Instructions Cycles
  6759                           ; simple_byte           25    13 (average)
  6760                           ; direct_byte           32     8 (fixed)
  6761                           ; jumptable            260     6 (fixed)
  6762                           ;	Chosen strategy is simple_byte
  6763  13BC  082B               	movf	??_initOsc,w
  6764  13BD  3A00               	xorlw	0	; case 0
  6765  13BE  1903               	skipnz
  6766  13BF  2B84               	goto	l47
  6767  13C0  3A01               	xorlw	1	; case 1
  6768  13C1  1903               	skipnz
  6769  13C2  2B8A               	goto	l49
  6770  13C3  3A03               	xorlw	3	; case 2
  6771  13C4  1903               	skipnz
  6772  13C5  2B90               	goto	l50
  6773  13C6  3A01               	xorlw	1	; case 3
  6774  13C7  1903               	skipnz
  6775  13C8  2B96               	goto	l51
  6776  13C9  3A07               	xorlw	7	; case 4
  6777  13CA  1903               	skipnz
  6778  13CB  2B9C               	goto	l52
  6779  13CC  3A01               	xorlw	1	; case 5
  6780  13CD  1903               	skipnz
  6781  13CE  2BA2               	goto	l53
  6782  13CF  3A03               	xorlw	3	; case 6
  6783  13D0  1903               	skipnz
  6784  13D1  2BA8               	goto	l54
  6785  13D2  3A01               	xorlw	1	; case 7
  6786  13D3  1903               	skipnz
  6787  13D4  2BAE               	goto	l55
  6788  13D5  2BD6               	goto	l56
  6789  13D6                     l56:
  6790  13D6  0008               	return
  6791  13D7                     __end_of_initOsc:
  6792                           
  6793                           	psect	text13
  6794  13D7                     __ptext13:	
  6795 ;; *************** function _Lcd_Init *****************
  6796 ;; Defined at:
  6797 ;;		line 40 in file "C:/MPlab_Digital2/Digital_2/Proyecto3Digital2.X/Display8bits.c"
  6798 ;; Parameters:    Size  Location     Type
  6799 ;;		None
  6800 ;; Auto vars:     Size  Location     Type
  6801 ;;		None
  6802 ;; Return value:  Size  Location     Type
  6803 ;;                  1    wreg      void 
  6804 ;; Registers used:
  6805 ;;		wreg, status,2, status,0, pclath, cstack
  6806 ;; Tracked objects:
  6807 ;;		On entry : 0/0
  6808 ;;		On exit  : 0/0
  6809 ;;		Unchanged: 0/0
  6810 ;; Data sizes:     COMMON   BANK0   BANK1   BANK3   BANK2
  6811 ;;      Params:         0       0       0       0       0
  6812 ;;      Locals:         0       0       0       0       0
  6813 ;;      Temps:          0       2       0       0       0
  6814 ;;      Totals:         0       2       0       0       0
  6815 ;;Total ram usage:        2 bytes
  6816 ;; Hardware stack levels used:    1
  6817 ;; Hardware stack levels required when called:    5
  6818 ;; This function calls:
  6819 ;;		_Lcd_Cmd
  6820 ;;		_Lcd_Port
  6821 ;; This function is called by:
  6822 ;;		_setup
  6823 ;; This function uses a non-reentrant model
  6824 ;;
  6825                           
  6826                           
  6827                           ;psect for function _Lcd_Init
  6828  13D7                     _Lcd_Init:
  6829  13D7                     l2223:	
  6830                           ;incstack = 0
  6831                           ; Regs used in _Lcd_Init: [wreg+status,2+status,0+pclath+cstack]
  6832                           
  6833                           
  6834                           ;C:/MPlab_Digital2/Digital_2/Proyecto3Digital2.X/Display8bits.c: 41:   _delay((unsigned 
      +                          long)((15)*(400000/4000.0)));
  6835  13D7  30D5               	movlw	213
  6836  13D8  1283               	bcf	3,5	;RP0=0, select bank0
  6837  13D9  1303               	bcf	3,6	;RP1=0, select bank0
  6838  13DA  00AE               	movwf	??_Lcd_Init
  6839  13DB                     u4607:
  6840  13DB  2BDC               	nop2
  6841  13DC  2BDD               	nop2
  6842  13DD  0BAE               	decfsz	??_Lcd_Init,f
  6843  13DE  2BDB               	goto	u4607
  6844  13DF  2BE0               	nop2
  6845  13E0  2BE1               	nop2
  6846  13E1  2BE2               	nop2
  6847  13E2                     l2225:
  6848                           
  6849                           ;C:/MPlab_Digital2/Digital_2/Proyecto3Digital2.X/Display8bits.c: 42:   Lcd_Port(0x00);
  6850  13E2  3000               	movlw	0
  6851  13E3  160A  118A  2142  160A  118A  	fcall	_Lcd_Port
  6852  13E8                     l2227:
  6853                           
  6854                           ;C:/MPlab_Digital2/Digital_2/Proyecto3Digital2.X/Display8bits.c: 43:    _delay((unsigned
      +                           long)((20)*(400000/4000.0)));
  6855  13E8  3003               	movlw	3
  6856  13E9  1283               	bcf	3,5	;RP0=0, select bank0
  6857  13EA  1303               	bcf	3,6	;RP1=0, select bank0
  6858  13EB  00AF               	movwf	??_Lcd_Init+1
  6859  13EC  3097               	movlw	151
  6860  13ED  00AE               	movwf	??_Lcd_Init
  6861  13EE                     u4617:
  6862  13EE  0BAE               	decfsz	??_Lcd_Init,f
  6863  13EF  2BEE               	goto	u4617
  6864  13F0  0BAF               	decfsz	??_Lcd_Init+1,f
  6865  13F1  2BEE               	goto	u4617
  6866                           
  6867                           ;C:/MPlab_Digital2/Digital_2/Proyecto3Digital2.X/Display8bits.c: 44:   Lcd_Cmd(0x30);
  6868  13F2  3030               	movlw	48
  6869  13F3  120A  118A  27E7  160A  118A  	fcall	_Lcd_Cmd
  6870  13F8                     l2229:
  6871                           
  6872                           ;C:/MPlab_Digital2/Digital_2/Proyecto3Digital2.X/Display8bits.c: 45:  _delay((unsigned l
      +                          ong)((5)*(400000/4000.0)));
  6873  13F8  30A5               	movlw	165
  6874  13F9  1283               	bcf	3,5	;RP0=0, select bank0
  6875  13FA  1303               	bcf	3,6	;RP1=0, select bank0
  6876  13FB  00AE               	movwf	??_Lcd_Init
  6877  13FC                     u4627:
  6878  13FC  0BAE               	decfsz	??_Lcd_Init,f
  6879  13FD  2BFC               	goto	u4627
  6880  13FE  2BFF               	nop2
  6881  13FF                     l2231:
  6882                           
  6883                           ;C:/MPlab_Digital2/Digital_2/Proyecto3Digital2.X/Display8bits.c: 46:   Lcd_Cmd(0x30);
  6884  13FF  3030               	movlw	48
  6885  1400  120A  118A  27E7  160A  118A  	fcall	_Lcd_Cmd
  6886                           
  6887                           ;C:/MPlab_Digital2/Digital_2/Proyecto3Digital2.X/Display8bits.c: 47:  _delay((unsigned l
      +                          ong)((160)*(400000/4000000.0)));
  6888  1405  3004               	movlw	4
  6889  1406  1283               	bcf	3,5	;RP0=0, select bank0
  6890  1407  1303               	bcf	3,6	;RP1=0, select bank0
  6891  1408  00AE               	movwf	??_Lcd_Init
  6892  1409                     u4637:
  6893  1409  0BAE               	decfsz	??_Lcd_Init,f
  6894  140A  2C09               	goto	u4637
  6895  140B  0000               	nop
  6896  140C                     l2233:
  6897                           
  6898                           ;C:/MPlab_Digital2/Digital_2/Proyecto3Digital2.X/Display8bits.c: 48:   Lcd_Cmd(0x30);
  6899  140C  3030               	movlw	48
  6900  140D  120A  118A  27E7  160A  118A  	fcall	_Lcd_Cmd
  6901  1412                     l2235:
  6902                           
  6903                           ;C:/MPlab_Digital2/Digital_2/Proyecto3Digital2.X/Display8bits.c: 50:   Lcd_Cmd(0x38);
  6904  1412  3038               	movlw	56
  6905  1413  120A  118A  27E7  160A  118A  	fcall	_Lcd_Cmd
  6906  1418                     l2237:
  6907                           
  6908                           ;C:/MPlab_Digital2/Digital_2/Proyecto3Digital2.X/Display8bits.c: 51:   Lcd_Cmd(0x10);
  6909  1418  3010               	movlw	16
  6910  1419  120A  118A  27E7  160A  118A  	fcall	_Lcd_Cmd
  6911  141E                     l2239:
  6912                           
  6913                           ;C:/MPlab_Digital2/Digital_2/Proyecto3Digital2.X/Display8bits.c: 52:   Lcd_Cmd(0x01);
  6914  141E  3001               	movlw	1
  6915  141F  120A  118A  27E7  160A  118A  	fcall	_Lcd_Cmd
  6916  1424                     l2241:
  6917                           
  6918                           ;C:/MPlab_Digital2/Digital_2/Proyecto3Digital2.X/Display8bits.c: 53:   Lcd_Cmd(0x06);
  6919  1424  3006               	movlw	6
  6920  1425  120A  118A  27E7  160A  118A  	fcall	_Lcd_Cmd
  6921  142A                     l2243:
  6922                           
  6923                           ;C:/MPlab_Digital2/Digital_2/Proyecto3Digital2.X/Display8bits.c: 54:   Lcd_Cmd(0x0C);
  6924  142A  300C               	movlw	12
  6925  142B  120A  118A  27E7  160A  118A  	fcall	_Lcd_Cmd
  6926  1430                     l26:
  6927  1430  0008               	return
  6928  1431                     __end_of_Lcd_Init:
  6929                           
  6930                           	psect	text14
  6931  0753                     __ptext14:	
  6932 ;; *************** function _mapeo *****************
  6933 ;; Defined at:
  6934 ;;		line 279 in file "C:/MPlab_Digital2/Digital_2/Proyecto3Digital2.X/main.c"
  6935 ;; Parameters:    Size  Location     Type
  6936 ;;		None
  6937 ;; Auto vars:     Size  Location     Type
  6938 ;;  TEMP1           2   34[BANK0 ] unsigned int 
  6939 ;; Return value:  Size  Location     Type
  6940 ;;                  1    wreg      void 
  6941 ;; Registers used:
  6942 ;;		wreg, status,2, status,0, btemp+1, pclath, cstack
  6943 ;; Tracked objects:
  6944 ;;		On entry : 0/0
  6945 ;;		On exit  : 0/0
  6946 ;;		Unchanged: 0/0
  6947 ;; Data sizes:     COMMON   BANK0   BANK1   BANK3   BANK2
  6948 ;;      Params:         0       0       0       0       0
  6949 ;;      Locals:         0       2       0       0       0
  6950 ;;      Temps:          0       2       0       0       0
  6951 ;;      Totals:         0       4       0       0       0
  6952 ;;Total ram usage:        4 bytes
  6953 ;; Hardware stack levels used:    1
  6954 ;; Hardware stack levels required when called:    4
  6955 ;; This function calls:
  6956 ;;		___awdiv
  6957 ;;		___bmul
  6958 ;;		___lwdiv
  6959 ;;		___wmul
  6960 ;; This function is called by:
  6961 ;;		_main
  6962 ;; This function uses a non-reentrant model
  6963 ;;
  6964                           
  6965                           
  6966                           ;psect for function _mapeo
  6967  0753                     _mapeo:
  6968  0753                     l3277:	
  6969                           ;incstack = 0
  6970                           ; Regs used in _mapeo: [wreg+status,2+status,0+btemp+1+pclath+cstack]
  6971                           
  6972  0753                     l3279:
  6973  0753  3033               	movlw	51
  6974  0754  1283               	bcf	3,5	;RP0=0, select bank0
  6975  0755  1303               	bcf	3,6	;RP1=0, select bank0
  6976  0756  00AB               	movwf	___awdiv@divisor
  6977  0757  3000               	movlw	0
  6978  0758  00AC               	movwf	___awdiv@divisor+1
  6979  0759  0863               	movf	_esclavo1,w
  6980  075A  00C0               	movwf	??_mapeo
  6981  075B  01C1               	clrf	??_mapeo+1
  6982  075C  0840               	movf	??_mapeo,w
  6983  075D  00B3               	movwf	___wmul@multiplier
  6984  075E  0841               	movf	??_mapeo+1,w
  6985  075F  00B4               	movwf	___wmul@multiplier+1
  6986  0760  3064               	movlw	100
  6987  0761  00B5               	movwf	___wmul@multiplicand
  6988  0762  3000               	movlw	0
  6989  0763  00B6               	movwf	___wmul@multiplicand+1
  6990  0764  160A  118A  224B  120A  118A  	fcall	___wmul
  6991  0769  1283               	bcf	3,5	;RP0=0, select bank0
  6992  076A  1303               	bcf	3,6	;RP1=0, select bank0
  6993  076B  0834               	movf	?___wmul+1,w
  6994  076C  00AE               	movwf	___awdiv@dividend+1
  6995  076D  0833               	movf	?___wmul,w
  6996  076E  00AD               	movwf	___awdiv@dividend
  6997  076F  160A  118A  2498  120A  118A  	fcall	___awdiv
  6998  0774  1283               	bcf	3,5	;RP0=0, select bank0
  6999  0775  1303               	bcf	3,6	;RP1=0, select bank0
  7000  0776  082C               	movf	?___awdiv+1,w
  7001  0777  00C3               	movwf	mapeo@TEMP1+1
  7002  0778  082B               	movf	?___awdiv,w
  7003  0779  00C2               	movwf	mapeo@TEMP1
  7004  077A                     l3281:
  7005  077A  3064               	movlw	100
  7006  077B  00B9               	movwf	___lwdiv@divisor
  7007  077C  3000               	movlw	0
  7008  077D  00BA               	movwf	___lwdiv@divisor+1
  7009  077E  0843               	movf	mapeo@TEMP1+1,w
  7010  077F  00BC               	movwf	___lwdiv@dividend+1
  7011  0780  0842               	movf	mapeo@TEMP1,w
  7012  0781  00BB               	movwf	___lwdiv@dividend
  7013  0782  160A  118A  229B  120A  118A  	fcall	___lwdiv
  7014  0787  1283               	bcf	3,5	;RP0=0, select bank0
  7015  0788  1303               	bcf	3,6	;RP1=0, select bank0
  7016  0789  0839               	movf	?___lwdiv,w
  7017  078A  00FF               	movwf	btemp+1
  7018  078B  087F               	movf	btemp+1,w
  7019  078C  1683               	bsf	3,5	;RP0=1, select bank1
  7020  078D  1303               	bcf	3,6	;RP1=0, select bank1
  7021  078E  00E3               	movwf	_centenasp1^(0+128)
  7022  078F                     l3283:
  7023  078F  300A               	movlw	10
  7024  0790  1283               	bcf	3,5	;RP0=0, select bank0
  7025  0791  1303               	bcf	3,6	;RP1=0, select bank0
  7026  0792  00B9               	movwf	___lwdiv@divisor
  7027  0793  3000               	movlw	0
  7028  0794  00BA               	movwf	___lwdiv@divisor+1
  7029  0795  1683               	bsf	3,5	;RP0=1, select bank1
  7030  0796  1303               	bcf	3,6	;RP1=0, select bank1
  7031  0797  0863               	movf	_centenasp1^(0+128),w
  7032  0798  1283               	bcf	3,5	;RP0=0, select bank0
  7033  0799  1303               	bcf	3,6	;RP1=0, select bank0
  7034  079A  00C0               	movwf	??_mapeo
  7035  079B  01C1               	clrf	??_mapeo+1
  7036  079C  0840               	movf	??_mapeo,w
  7037  079D  00B3               	movwf	___wmul@multiplier
  7038  079E  0841               	movf	??_mapeo+1,w
  7039  079F  00B4               	movwf	___wmul@multiplier+1
  7040  07A0  309C               	movlw	156
  7041  07A1  00B5               	movwf	___wmul@multiplicand
  7042  07A2  30FF               	movlw	255
  7043  07A3  00B6               	movwf	___wmul@multiplicand+1
  7044  07A4  160A  118A  224B  120A  118A  	fcall	___wmul
  7045  07A9  1283               	bcf	3,5	;RP0=0, select bank0
  7046  07AA  1303               	bcf	3,6	;RP1=0, select bank0
  7047  07AB  0842               	movf	mapeo@TEMP1,w
  7048  07AC  0733               	addwf	?___wmul,w
  7049  07AD  00BB               	movwf	___lwdiv@dividend
  7050  07AE  0843               	movf	mapeo@TEMP1+1,w
  7051  07AF  1803               	skipnc
  7052  07B0  0A43               	incf	mapeo@TEMP1+1,w
  7053  07B1  0734               	addwf	?___wmul+1,w
  7054  07B2  00BC               	movwf	___lwdiv@dividend+1
  7055  07B3  160A  118A  229B  120A  118A  	fcall	___lwdiv
  7056  07B8  1283               	bcf	3,5	;RP0=0, select bank0
  7057  07B9  1303               	bcf	3,6	;RP1=0, select bank0
  7058  07BA  0839               	movf	?___lwdiv,w
  7059  07BB  00FF               	movwf	btemp+1
  7060  07BC  087F               	movf	btemp+1,w
  7061  07BD  1683               	bsf	3,5	;RP0=1, select bank1
  7062  07BE  1303               	bcf	3,6	;RP1=0, select bank1
  7063  07BF  00E4               	movwf	_decenasp1^(0+128)
  7064  07C0                     l3285:
  7065  07C0  309C               	movlw	156
  7066  07C1  00FF               	movwf	btemp+1
  7067  07C2  087F               	movf	btemp+1,w
  7068  07C3  1283               	bcf	3,5	;RP0=0, select bank0
  7069  07C4  1303               	bcf	3,6	;RP1=0, select bank0
  7070  07C5  00B9               	movwf	___bmul@multiplicand
  7071  07C6  1683               	bsf	3,5	;RP0=1, select bank1
  7072  07C7  1303               	bcf	3,6	;RP1=0, select bank1
  7073  07C8  0863               	movf	_centenasp1^(0+128),w
  7074  07C9  160A  118A  21A8  120A  118A  	fcall	___bmul
  7075  07CE  1283               	bcf	3,5	;RP0=0, select bank0
  7076  07CF  1303               	bcf	3,6	;RP1=0, select bank0
  7077  07D0  00C0               	movwf	??_mapeo
  7078  07D1  30F6               	movlw	246
  7079  07D2  00FF               	movwf	btemp+1
  7080  07D3  087F               	movf	btemp+1,w
  7081  07D4  00B9               	movwf	___bmul@multiplicand
  7082  07D5  1683               	bsf	3,5	;RP0=1, select bank1
  7083  07D6  1303               	bcf	3,6	;RP1=0, select bank1
  7084  07D7  0864               	movf	_decenasp1^(0+128),w
  7085  07D8  160A  118A  21A8  120A  118A  	fcall	___bmul
  7086  07DD  1283               	bcf	3,5	;RP0=0, select bank0
  7087  07DE  1303               	bcf	3,6	;RP1=0, select bank0
  7088  07DF  0740               	addwf	??_mapeo,w
  7089  07E0  0742               	addwf	mapeo@TEMP1,w
  7090  07E1  00FF               	movwf	btemp+1
  7091  07E2  087F               	movf	btemp+1,w
  7092  07E3  1683               	bsf	3,5	;RP0=1, select bank1
  7093  07E4  1303               	bcf	3,6	;RP1=0, select bank1
  7094  07E5  00E5               	movwf	_unidadesp1^(0+128)
  7095  07E6                     l215:
  7096  07E6  0008               	return
  7097  07E7                     __end_of_mapeo:
  7098                           
  7099                           	psect	text15
  7100  124B                     __ptext15:	
  7101 ;; *************** function ___wmul *****************
  7102 ;; Defined at:
  7103 ;;		line 15 in file "C:\Program Files\Microchip\xc8\v2.20\pic\sources\c90\common\Umul16.c"
  7104 ;; Parameters:    Size  Location     Type
  7105 ;;  multiplier      2   19[BANK0 ] unsigned int 
  7106 ;;  multiplicand    2   21[BANK0 ] unsigned int 
  7107 ;; Auto vars:     Size  Location     Type
  7108 ;;  product         2   23[BANK0 ] unsigned int 
  7109 ;; Return value:  Size  Location     Type
  7110 ;;                  2   19[BANK0 ] unsigned int 
  7111 ;; Registers used:
  7112 ;;		wreg, status,2, status,0
  7113 ;; Tracked objects:
  7114 ;;		On entry : 0/0
  7115 ;;		On exit  : 0/0
  7116 ;;		Unchanged: 0/0
  7117 ;; Data sizes:     COMMON   BANK0   BANK1   BANK3   BANK2
  7118 ;;      Params:         0       4       0       0       0
  7119 ;;      Locals:         0       2       0       0       0
  7120 ;;      Temps:          0       0       0       0       0
  7121 ;;      Totals:         0       6       0       0       0
  7122 ;;Total ram usage:        6 bytes
  7123 ;; Hardware stack levels used:    1
  7124 ;; Hardware stack levels required when called:    3
  7125 ;; This function calls:
  7126 ;;		Nothing
  7127 ;; This function is called by:
  7128 ;;		_main
  7129 ;;		_mapeo
  7130 ;;		_temp_pos
  7131 ;; This function uses a non-reentrant model
  7132 ;;
  7133                           
  7134                           
  7135                           ;psect for function ___wmul
  7136  124B                     ___wmul:
  7137  124B                     l2347:	
  7138                           ;incstack = 0
  7139                           ; Regs used in ___wmul: [wreg+status,2+status,0]
  7140                           
  7141  124B  1283               	bcf	3,5	;RP0=0, select bank0
  7142  124C  1303               	bcf	3,6	;RP1=0, select bank0
  7143  124D  01B7               	clrf	___wmul@product
  7144  124E  01B8               	clrf	___wmul@product+1
  7145  124F                     l2349:
  7146  124F  1C33               	btfss	___wmul@multiplier,0
  7147  1250  2A52               	goto	u1971
  7148  1251  2A53               	goto	u1970
  7149  1252                     u1971:
  7150  1252  2A59               	goto	l379
  7151  1253                     u1970:
  7152  1253                     l2351:
  7153  1253  0835               	movf	___wmul@multiplicand,w
  7154  1254  07B7               	addwf	___wmul@product,f
  7155  1255  1803               	skipnc
  7156  1256  0AB8               	incf	___wmul@product+1,f
  7157  1257  0836               	movf	___wmul@multiplicand+1,w
  7158  1258  07B8               	addwf	___wmul@product+1,f
  7159  1259                     l379:
  7160  1259  3001               	movlw	1
  7161  125A                     u1985:
  7162  125A  1003               	clrc
  7163  125B  0DB5               	rlf	___wmul@multiplicand,f
  7164  125C  0DB6               	rlf	___wmul@multiplicand+1,f
  7165  125D  3EFF               	addlw	-1
  7166  125E  1D03               	skipz
  7167  125F  2A5A               	goto	u1985
  7168  1260                     l2353:
  7169  1260  3001               	movlw	1
  7170  1261                     u1995:
  7171  1261  1003               	clrc
  7172  1262  0CB4               	rrf	___wmul@multiplier+1,f
  7173  1263  0CB3               	rrf	___wmul@multiplier,f
  7174  1264  3EFF               	addlw	-1
  7175  1265  1D03               	skipz
  7176  1266  2A61               	goto	u1995
  7177  1267                     l2355:
  7178  1267  0833               	movf	___wmul@multiplier,w
  7179  1268  0434               	iorwf	___wmul@multiplier+1,w
  7180  1269  1D03               	btfss	3,2
  7181  126A  2A6C               	goto	u2001
  7182  126B  2A6D               	goto	u2000
  7183  126C                     u2001:
  7184  126C  2A4F               	goto	l2349
  7185  126D                     u2000:
  7186  126D                     l2357:
  7187  126D  0838               	movf	___wmul@product+1,w
  7188  126E  00B4               	movwf	?___wmul+1
  7189  126F  0837               	movf	___wmul@product,w
  7190  1270  00B3               	movwf	?___wmul
  7191  1271                     l381:
  7192  1271  0008               	return
  7193  1272                     __end_of___wmul:
  7194                           
  7195                           	psect	text16
  7196  129B                     __ptext16:	
  7197 ;; *************** function ___lwdiv *****************
  7198 ;; Defined at:
  7199 ;;		line 5 in file "C:\Program Files\Microchip\xc8\v2.20\pic\sources\c90\common\lwdiv.c"
  7200 ;; Parameters:    Size  Location     Type
  7201 ;;  divisor         2   25[BANK0 ] unsigned int 
  7202 ;;  dividend        2   27[BANK0 ] unsigned int 
  7203 ;; Auto vars:     Size  Location     Type
  7204 ;;  quotient        2   29[BANK0 ] unsigned int 
  7205 ;;  counter         1   31[BANK0 ] unsigned char 
  7206 ;; Return value:  Size  Location     Type
  7207 ;;                  2   25[BANK0 ] unsigned int 
  7208 ;; Registers used:
  7209 ;;		wreg, status,2, status,0, btemp+1
  7210 ;; Tracked objects:
  7211 ;;		On entry : 0/0
  7212 ;;		On exit  : 0/0
  7213 ;;		Unchanged: 0/0
  7214 ;; Data sizes:     COMMON   BANK0   BANK1   BANK3   BANK2
  7215 ;;      Params:         0       4       0       0       0
  7216 ;;      Locals:         0       3       0       0       0
  7217 ;;      Temps:          0       0       0       0       0
  7218 ;;      Totals:         0       7       0       0       0
  7219 ;;Total ram usage:        7 bytes
  7220 ;; Hardware stack levels used:    1
  7221 ;; Hardware stack levels required when called:    3
  7222 ;; This function calls:
  7223 ;;		Nothing
  7224 ;; This function is called by:
  7225 ;;		_mapeo
  7226 ;; This function uses a non-reentrant model
  7227 ;;
  7228                           
  7229                           
  7230                           ;psect for function ___lwdiv
  7231  129B                     ___lwdiv:
  7232  129B                     l2459:	
  7233                           ;incstack = 0
  7234                           ; Regs used in ___lwdiv: [wreg+status,2+status,0+btemp+1]
  7235                           
  7236  129B  1283               	bcf	3,5	;RP0=0, select bank0
  7237  129C  1303               	bcf	3,6	;RP1=0, select bank0
  7238  129D  01BD               	clrf	___lwdiv@quotient
  7239  129E  01BE               	clrf	___lwdiv@quotient+1
  7240  129F                     l2461:
  7241  129F  0839               	movf	___lwdiv@divisor,w
  7242  12A0  043A               	iorwf	___lwdiv@divisor+1,w
  7243  12A1  1903               	btfsc	3,2
  7244  12A2  2AA4               	goto	u2231
  7245  12A3  2AA5               	goto	u2230
  7246  12A4                     u2231:
  7247  12A4  2ADC               	goto	l2481
  7248  12A5                     u2230:
  7249  12A5                     l2463:
  7250  12A5  01BF               	clrf	___lwdiv@counter
  7251  12A6  0ABF               	incf	___lwdiv@counter,f
  7252  12A7  2AB3               	goto	l2469
  7253  12A8                     l2465:
  7254  12A8  3001               	movlw	1
  7255  12A9                     u2245:
  7256  12A9  1003               	clrc
  7257  12AA  0DB9               	rlf	___lwdiv@divisor,f
  7258  12AB  0DBA               	rlf	___lwdiv@divisor+1,f
  7259  12AC  3EFF               	addlw	-1
  7260  12AD  1D03               	skipz
  7261  12AE  2AA9               	goto	u2245
  7262  12AF                     l2467:
  7263  12AF  3001               	movlw	1
  7264  12B0  00FF               	movwf	btemp+1
  7265  12B1  087F               	movf	btemp+1,w
  7266  12B2  07BF               	addwf	___lwdiv@counter,f
  7267  12B3                     l2469:
  7268  12B3  1FBA               	btfss	___lwdiv@divisor+1,7
  7269  12B4  2AB6               	goto	u2251
  7270  12B5  2AB7               	goto	u2250
  7271  12B6                     u2251:
  7272  12B6  2AA8               	goto	l2465
  7273  12B7                     u2250:
  7274  12B7                     l2471:
  7275  12B7  3001               	movlw	1
  7276  12B8                     u2265:
  7277  12B8  1003               	clrc
  7278  12B9  0DBD               	rlf	___lwdiv@quotient,f
  7279  12BA  0DBE               	rlf	___lwdiv@quotient+1,f
  7280  12BB  3EFF               	addlw	-1
  7281  12BC  1D03               	skipz
  7282  12BD  2AB8               	goto	u2265
  7283  12BE  083A               	movf	___lwdiv@divisor+1,w
  7284  12BF  023C               	subwf	___lwdiv@dividend+1,w
  7285  12C0  1D03               	skipz
  7286  12C1  2AC4               	goto	u2275
  7287  12C2  0839               	movf	___lwdiv@divisor,w
  7288  12C3  023B               	subwf	___lwdiv@dividend,w
  7289  12C4                     u2275:
  7290  12C4  1C03               	skipc
  7291  12C5  2AC7               	goto	u2271
  7292  12C6  2AC8               	goto	u2270
  7293  12C7                     u2271:
  7294  12C7  2ACF               	goto	l2477
  7295  12C8                     u2270:
  7296  12C8                     l2473:
  7297  12C8  0839               	movf	___lwdiv@divisor,w
  7298  12C9  02BB               	subwf	___lwdiv@dividend,f
  7299  12CA  083A               	movf	___lwdiv@divisor+1,w
  7300  12CB  1C03               	skipc
  7301  12CC  03BC               	decf	___lwdiv@dividend+1,f
  7302  12CD  02BC               	subwf	___lwdiv@dividend+1,f
  7303  12CE                     l2475:
  7304  12CE  143D               	bsf	___lwdiv@quotient,0
  7305  12CF                     l2477:
  7306  12CF  3001               	movlw	1
  7307  12D0                     u2285:
  7308  12D0  1003               	clrc
  7309  12D1  0CBA               	rrf	___lwdiv@divisor+1,f
  7310  12D2  0CB9               	rrf	___lwdiv@divisor,f
  7311  12D3  3EFF               	addlw	-1
  7312  12D4  1D03               	skipz
  7313  12D5  2AD0               	goto	u2285
  7314  12D6                     l2479:
  7315  12D6  3001               	movlw	1
  7316  12D7  02BF               	subwf	___lwdiv@counter,f
  7317  12D8  1D03               	btfss	3,2
  7318  12D9  2ADB               	goto	u2291
  7319  12DA  2ADC               	goto	u2290
  7320  12DB                     u2291:
  7321  12DB  2AB7               	goto	l2471
  7322  12DC                     u2290:
  7323  12DC                     l2481:
  7324  12DC  083E               	movf	___lwdiv@quotient+1,w
  7325  12DD  00BA               	movwf	?___lwdiv+1
  7326  12DE  083D               	movf	___lwdiv@quotient,w
  7327  12DF  00B9               	movwf	?___lwdiv
  7328  12E0                     l651:
  7329  12E0  0008               	return
  7330  12E1                     __end_of___lwdiv:
  7331                           
  7332                           	psect	text17
  7333  11A8                     __ptext17:	
  7334 ;; *************** function ___bmul *****************
  7335 ;; Defined at:
  7336 ;;		line 4 in file "C:\Program Files\Microchip\xc8\v2.20\pic\sources\c90\common\Umul8.c"
  7337 ;; Parameters:    Size  Location     Type
  7338 ;;  multiplier      1    wreg     unsigned char 
  7339 ;;  multiplicand    1   25[BANK0 ] unsigned char 
  7340 ;; Auto vars:     Size  Location     Type
  7341 ;;  multiplier      1   27[BANK0 ] unsigned char 
  7342 ;;  product         1   26[BANK0 ] unsigned char 
  7343 ;; Return value:  Size  Location     Type
  7344 ;;                  1    wreg      unsigned char 
  7345 ;; Registers used:
  7346 ;;		wreg, status,2, status,0, btemp+1
  7347 ;; Tracked objects:
  7348 ;;		On entry : 0/0
  7349 ;;		On exit  : 0/0
  7350 ;;		Unchanged: 0/0
  7351 ;; Data sizes:     COMMON   BANK0   BANK1   BANK3   BANK2
  7352 ;;      Params:         0       1       0       0       0
  7353 ;;      Locals:         0       2       0       0       0
  7354 ;;      Temps:          0       0       0       0       0
  7355 ;;      Totals:         0       3       0       0       0
  7356 ;;Total ram usage:        3 bytes
  7357 ;; Hardware stack levels used:    1
  7358 ;; Hardware stack levels required when called:    3
  7359 ;; This function calls:
  7360 ;;		Nothing
  7361 ;; This function is called by:
  7362 ;;		_main
  7363 ;;		_mapeo
  7364 ;;		_temp_pos
  7365 ;; This function uses a non-reentrant model
  7366 ;;
  7367                           
  7368                           
  7369                           ;psect for function ___bmul
  7370  11A8                     ___bmul:
  7371                           
  7372                           ;incstack = 0
  7373                           ; Regs used in ___bmul: [wreg+status,2+status,0+btemp+1]
  7374                           ;___bmul@multiplier stored from wreg
  7375  11A8  1283               	bcf	3,5	;RP0=0, select bank0
  7376  11A9  1303               	bcf	3,6	;RP1=0, select bank0
  7377  11AA  00BB               	movwf	___bmul@multiplier
  7378  11AB                     l2361:
  7379  11AB  01BA               	clrf	___bmul@product
  7380  11AC                     l2363:
  7381  11AC  1C3B               	btfss	___bmul@multiplier,0
  7382  11AD  29AF               	goto	u2011
  7383  11AE  29B0               	goto	u2010
  7384  11AF                     u2011:
  7385  11AF  29B4               	goto	l2367
  7386  11B0                     u2010:
  7387  11B0                     l2365:
  7388  11B0  0839               	movf	___bmul@multiplicand,w
  7389  11B1  00FF               	movwf	btemp+1
  7390  11B2  087F               	movf	btemp+1,w
  7391  11B3  07BA               	addwf	___bmul@product,f
  7392  11B4                     l2367:
  7393  11B4  1003               	clrc
  7394  11B5  0DB9               	rlf	___bmul@multiplicand,f
  7395  11B6                     l2369:
  7396  11B6  1003               	clrc
  7397  11B7  0CBB               	rrf	___bmul@multiplier,f
  7398  11B8                     l2371:
  7399  11B8  083B               	movf	___bmul@multiplier,w
  7400  11B9  1D03               	btfss	3,2
  7401  11BA  29BC               	goto	u2021
  7402  11BB  29BD               	goto	u2020
  7403  11BC                     u2021:
  7404  11BC  29AC               	goto	l2363
  7405  11BD                     u2020:
  7406  11BD                     l2373:
  7407  11BD  083A               	movf	___bmul@product,w
  7408  11BE                     l405:
  7409  11BE  0008               	return
  7410  11BF                     __end_of___bmul:
  7411                           
  7412                           	psect	text18
  7413  1498                     __ptext18:	
  7414 ;; *************** function ___awdiv *****************
  7415 ;; Defined at:
  7416 ;;		line 5 in file "C:\Program Files\Microchip\xc8\v2.20\pic\sources\c90\common\awdiv.c"
  7417 ;; Parameters:    Size  Location     Type
  7418 ;;  divisor         2   11[BANK0 ] int 
  7419 ;;  dividend        2   13[BANK0 ] int 
  7420 ;; Auto vars:     Size  Location     Type
  7421 ;;  quotient        2   17[BANK0 ] int 
  7422 ;;  sign            1   16[BANK0 ] unsigned char 
  7423 ;;  counter         1   15[BANK0 ] unsigned char 
  7424 ;; Return value:  Size  Location     Type
  7425 ;;                  2   11[BANK0 ] int 
  7426 ;; Registers used:
  7427 ;;		wreg, status,2, status,0, btemp+1
  7428 ;; Tracked objects:
  7429 ;;		On entry : 0/0
  7430 ;;		On exit  : 0/0
  7431 ;;		Unchanged: 0/0
  7432 ;; Data sizes:     COMMON   BANK0   BANK1   BANK3   BANK2
  7433 ;;      Params:         0       4       0       0       0
  7434 ;;      Locals:         0       4       0       0       0
  7435 ;;      Temps:          0       0       0       0       0
  7436 ;;      Totals:         0       8       0       0       0
  7437 ;;Total ram usage:        8 bytes
  7438 ;; Hardware stack levels used:    1
  7439 ;; Hardware stack levels required when called:    3
  7440 ;; This function calls:
  7441 ;;		Nothing
  7442 ;; This function is called by:
  7443 ;;		_main
  7444 ;;		_mapeo
  7445 ;;		_temp_pos
  7446 ;; This function uses a non-reentrant model
  7447 ;;
  7448                           
  7449                           
  7450                           ;psect for function ___awdiv
  7451  1498                     ___awdiv:
  7452  1498                     l2377:	
  7453                           ;incstack = 0
  7454                           ; Regs used in ___awdiv: [wreg+status,2+status,0+btemp+1]
  7455                           
  7456  1498  1283               	bcf	3,5	;RP0=0, select bank0
  7457  1499  1303               	bcf	3,6	;RP1=0, select bank0
  7458  149A  01B0               	clrf	___awdiv@sign
  7459  149B                     l2379:
  7460  149B  1FAC               	btfss	___awdiv@divisor+1,7
  7461  149C  2C9E               	goto	u2031
  7462  149D  2C9F               	goto	u2030
  7463  149E                     u2031:
  7464  149E  2CA6               	goto	l2385
  7465  149F                     u2030:
  7466  149F                     l2381:
  7467  149F  09AB               	comf	___awdiv@divisor,f
  7468  14A0  09AC               	comf	___awdiv@divisor+1,f
  7469  14A1  0AAB               	incf	___awdiv@divisor,f
  7470  14A2  1903               	skipnz
  7471  14A3  0AAC               	incf	___awdiv@divisor+1,f
  7472  14A4                     l2383:
  7473  14A4  01B0               	clrf	___awdiv@sign
  7474  14A5  0AB0               	incf	___awdiv@sign,f
  7475  14A6                     l2385:
  7476  14A6  1FAE               	btfss	___awdiv@dividend+1,7
  7477  14A7  2CA9               	goto	u2041
  7478  14A8  2CAA               	goto	u2040
  7479  14A9                     u2041:
  7480  14A9  2CB3               	goto	l2391
  7481  14AA                     u2040:
  7482  14AA                     l2387:
  7483  14AA  09AD               	comf	___awdiv@dividend,f
  7484  14AB  09AE               	comf	___awdiv@dividend+1,f
  7485  14AC  0AAD               	incf	___awdiv@dividend,f
  7486  14AD  1903               	skipnz
  7487  14AE  0AAE               	incf	___awdiv@dividend+1,f
  7488  14AF                     l2389:
  7489  14AF  3001               	movlw	1
  7490  14B0  00FF               	movwf	btemp+1
  7491  14B1  087F               	movf	btemp+1,w
  7492  14B2  06B0               	xorwf	___awdiv@sign,f
  7493  14B3                     l2391:
  7494  14B3  01B1               	clrf	___awdiv@quotient
  7495  14B4  01B2               	clrf	___awdiv@quotient+1
  7496  14B5                     l2393:
  7497  14B5  082B               	movf	___awdiv@divisor,w
  7498  14B6  042C               	iorwf	___awdiv@divisor+1,w
  7499  14B7  1903               	btfsc	3,2
  7500  14B8  2CBA               	goto	u2051
  7501  14B9  2CBB               	goto	u2050
  7502  14BA                     u2051:
  7503  14BA  2CF2               	goto	l2413
  7504  14BB                     u2050:
  7505  14BB                     l2395:
  7506  14BB  01AF               	clrf	___awdiv@counter
  7507  14BC  0AAF               	incf	___awdiv@counter,f
  7508  14BD  2CC9               	goto	l2401
  7509  14BE                     l2397:
  7510  14BE  3001               	movlw	1
  7511  14BF                     u2065:
  7512  14BF  1003               	clrc
  7513  14C0  0DAB               	rlf	___awdiv@divisor,f
  7514  14C1  0DAC               	rlf	___awdiv@divisor+1,f
  7515  14C2  3EFF               	addlw	-1
  7516  14C3  1D03               	skipz
  7517  14C4  2CBF               	goto	u2065
  7518  14C5                     l2399:
  7519  14C5  3001               	movlw	1
  7520  14C6  00FF               	movwf	btemp+1
  7521  14C7  087F               	movf	btemp+1,w
  7522  14C8  07AF               	addwf	___awdiv@counter,f
  7523  14C9                     l2401:
  7524  14C9  1FAC               	btfss	___awdiv@divisor+1,7
  7525  14CA  2CCC               	goto	u2071
  7526  14CB  2CCD               	goto	u2070
  7527  14CC                     u2071:
  7528  14CC  2CBE               	goto	l2397
  7529  14CD                     u2070:
  7530  14CD                     l2403:
  7531  14CD  3001               	movlw	1
  7532  14CE                     u2085:
  7533  14CE  1003               	clrc
  7534  14CF  0DB1               	rlf	___awdiv@quotient,f
  7535  14D0  0DB2               	rlf	___awdiv@quotient+1,f
  7536  14D1  3EFF               	addlw	-1
  7537  14D2  1D03               	skipz
  7538  14D3  2CCE               	goto	u2085
  7539  14D4  082C               	movf	___awdiv@divisor+1,w
  7540  14D5  022E               	subwf	___awdiv@dividend+1,w
  7541  14D6  1D03               	skipz
  7542  14D7  2CDA               	goto	u2095
  7543  14D8  082B               	movf	___awdiv@divisor,w
  7544  14D9  022D               	subwf	___awdiv@dividend,w
  7545  14DA                     u2095:
  7546  14DA  1C03               	skipc
  7547  14DB  2CDD               	goto	u2091
  7548  14DC  2CDE               	goto	u2090
  7549  14DD                     u2091:
  7550  14DD  2CE5               	goto	l2409
  7551  14DE                     u2090:
  7552  14DE                     l2405:
  7553  14DE  082B               	movf	___awdiv@divisor,w
  7554  14DF  02AD               	subwf	___awdiv@dividend,f
  7555  14E0  082C               	movf	___awdiv@divisor+1,w
  7556  14E1  1C03               	skipc
  7557  14E2  03AE               	decf	___awdiv@dividend+1,f
  7558  14E3  02AE               	subwf	___awdiv@dividend+1,f
  7559  14E4                     l2407:
  7560  14E4  1431               	bsf	___awdiv@quotient,0
  7561  14E5                     l2409:
  7562  14E5  3001               	movlw	1
  7563  14E6                     u2105:
  7564  14E6  1003               	clrc
  7565  14E7  0CAC               	rrf	___awdiv@divisor+1,f
  7566  14E8  0CAB               	rrf	___awdiv@divisor,f
  7567  14E9  3EFF               	addlw	-1
  7568  14EA  1D03               	skipz
  7569  14EB  2CE6               	goto	u2105
  7570  14EC                     l2411:
  7571  14EC  3001               	movlw	1
  7572  14ED  02AF               	subwf	___awdiv@counter,f
  7573  14EE  1D03               	btfss	3,2
  7574  14EF  2CF1               	goto	u2111
  7575  14F0  2CF2               	goto	u2110
  7576  14F1                     u2111:
  7577  14F1  2CCD               	goto	l2403
  7578  14F2                     u2110:
  7579  14F2                     l2413:
  7580  14F2  0830               	movf	___awdiv@sign,w
  7581  14F3  1903               	btfsc	3,2
  7582  14F4  2CF6               	goto	u2121
  7583  14F5  2CF7               	goto	u2120
  7584  14F6                     u2121:
  7585  14F6  2CFC               	goto	l2417
  7586  14F7                     u2120:
  7587  14F7                     l2415:
  7588  14F7  09B1               	comf	___awdiv@quotient,f
  7589  14F8  09B2               	comf	___awdiv@quotient+1,f
  7590  14F9  0AB1               	incf	___awdiv@quotient,f
  7591  14FA  1903               	skipnz
  7592  14FB  0AB2               	incf	___awdiv@quotient+1,f
  7593  14FC                     l2417:
  7594  14FC  0832               	movf	___awdiv@quotient+1,w
  7595  14FD  00AC               	movwf	?___awdiv+1
  7596  14FE  0831               	movf	___awdiv@quotient,w
  7597  14FF  00AB               	movwf	?___awdiv
  7598  1500                     l532:
  7599  1500  0008               	return
  7600  1501                     __end_of___awdiv:
  7601                           
  7602                           	psect	text19
  7603  1330                     __ptext19:	
  7604 ;; *************** function _envio_esclavos *****************
  7605 ;; Defined at:
  7606 ;;		line 184 in file "C:/MPlab_Digital2/Digital_2/Proyecto3Digital2.X/main.c"
  7607 ;; Parameters:    Size  Location     Type
  7608 ;;		None
  7609 ;; Auto vars:     Size  Location     Type
  7610 ;;		None
  7611 ;; Return value:  Size  Location     Type
  7612 ;;                  1    wreg      void 
  7613 ;; Registers used:
  7614 ;;		wreg, fsr0l, fsr0h, status,2, status,0, btemp+1, pclath, cstack
  7615 ;; Tracked objects:
  7616 ;;		On entry : 0/0
  7617 ;;		On exit  : 0/0
  7618 ;;		Unchanged: 0/0
  7619 ;; Data sizes:     COMMON   BANK0   BANK1   BANK3   BANK2
  7620 ;;      Params:         0       0       0       0       0
  7621 ;;      Locals:         0       0       0       0       0
  7622 ;;      Temps:          0       2       0       0       0
  7623 ;;      Totals:         0       2       0       0       0
  7624 ;;Total ram usage:        2 bytes
  7625 ;; Hardware stack levels used:    1
  7626 ;; Hardware stack levels required when called:    5
  7627 ;; This function calls:
  7628 ;;		_spiRead
  7629 ;; This function is called by:
  7630 ;;		_main
  7631 ;; This function uses a non-reentrant model
  7632 ;;
  7633                           
  7634                           
  7635                           ;psect for function _envio_esclavos
  7636  1330                     _envio_esclavos:
  7637  1330                     l3241:	
  7638                           ;incstack = 0
  7639                           ; Regs used in _envio_esclavos: [wreg-fsr0h+status,2+status,0+btemp+1+pclath+cstack]
  7640                           
  7641                           
  7642                           ;C:/MPlab_Digital2/Digital_2/Proyecto3Digital2.X/main.c: 185: 
  7643  1330  3033               	movlw	51
  7644  1331  1283               	bcf	3,5	;RP0=0, select bank0
  7645  1332  1303               	bcf	3,6	;RP1=0, select bank0
  7646  1333  0264               	subwf	_controles,w
  7647  1334  1C03               	skipc
  7648  1335  2B37               	goto	u3771
  7649  1336  2B38               	goto	u3770
  7650  1337                     u3771:
  7651  1337  2B7F               	goto	l191
  7652  1338                     u3770:
  7653  1338                     l3243:
  7654                           
  7655                           ;C:/MPlab_Digital2/Digital_2/Proyecto3Digital2.X/main.c: 186: 
  7656  1338  01E4               	clrf	_controles
  7657  1339                     l3245:
  7658                           
  7659                           ;C:/MPlab_Digital2/Digital_2/Proyecto3Digital2.X/main.c: 187:            var_envio++;
  7660  1339  1507               	bsf	7,2	;volatile
  7661  133A                     l3247:
  7662                           
  7663                           ;C:/MPlab_Digital2/Digital_2/Proyecto3Digital2.X/main.c: 188:            break;
  7664  133A  1487               	bsf	7,1	;volatile
  7665  133B                     l3249:
  7666                           
  7667                           ;C:/MPlab_Digital2/Digital_2/Proyecto3Digital2.X/main.c: 189:         case 2:
  7668  133B  1407               	bsf	7,0	;volatile
  7669                           
  7670                           ;C:/MPlab_Digital2/Digital_2/Proyecto3Digital2.X/main.c: 190:            TXREG = decenas
      +                          p1+48;
  7671  133C  2B6C               	goto	l3271
  7672  133D                     l187:	
  7673                           ;C:/MPlab_Digital2/Digital_2/Proyecto3Digital2.X/main.c: 191:            var_envio++;
  7674                           
  7675                           
  7676                           ;C:/MPlab_Digital2/Digital_2/Proyecto3Digital2.X/main.c: 192:            break;
  7677  133D  1007               	bcf	7,0	;volatile
  7678  133E                     l3251:
  7679                           
  7680                           ;C:/MPlab_Digital2/Digital_2/Proyecto3Digital2.X/main.c: 193:         case 3:
  7681  133E  0193               	clrf	19	;volatile
  7682  133F                     l3253:
  7683                           
  7684                           ;C:/MPlab_Digital2/Digital_2/Proyecto3Digital2.X/main.c: 194:            TXREG = unidade
      +                          sp1+48;
  7685  133F  160A  118A  2156  160A  118A  	fcall	_spiRead
  7686  1344  00FF               	movwf	btemp+1
  7687  1345  087F               	movf	btemp+1,w
  7688  1346  1283               	bcf	3,5	;RP0=0, select bank0
  7689  1347  1303               	bcf	3,6	;RP1=0, select bank0
  7690  1348  00E3               	movwf	_esclavo1
  7691  1349                     l3255:
  7692                           
  7693                           ;C:/MPlab_Digital2/Digital_2/Proyecto3Digital2.X/main.c: 195:            var_envio++;
  7694  1349  3001               	movlw	1
  7695  134A  00FF               	movwf	btemp+1
  7696  134B  087F               	movf	btemp+1,w
  7697  134C  1283               	bcf	3,5	;RP0=0, select bank0
  7698  134D  07E2               	addwf	_slave,f
  7699                           
  7700                           ;C:/MPlab_Digital2/Digital_2/Proyecto3Digital2.X/main.c: 196:            break;
  7701  134E  2B7F               	goto	l191
  7702  134F                     l189:	
  7703                           ;C:/MPlab_Digital2/Digital_2/Proyecto3Digital2.X/main.c: 197:         case 4:
  7704                           
  7705                           
  7706                           ;C:/MPlab_Digital2/Digital_2/Proyecto3Digital2.X/main.c: 198:            TXREG = 44;
  7707  134F  1087               	bcf	7,1	;volatile
  7708  1350                     l3257:
  7709                           
  7710                           ;C:/MPlab_Digital2/Digital_2/Proyecto3Digital2.X/main.c: 199:            var_envio++;
  7711  1350  0193               	clrf	19	;volatile
  7712  1351                     l3259:
  7713                           
  7714                           ;C:/MPlab_Digital2/Digital_2/Proyecto3Digital2.X/main.c: 200:            break;
  7715  1351  160A  118A  2156  160A  118A  	fcall	_spiRead
  7716  1356  00FF               	movwf	btemp+1
  7717  1357  087F               	movf	btemp+1,w
  7718  1358  1683               	bsf	3,5	;RP0=1, select bank1
  7719  1359  1303               	bcf	3,6	;RP1=0, select bank1
  7720  135A  00E6               	movwf	_esclavo2^(0+128)
  7721  135B  2B49               	goto	l3255
  7722  135C                     l190:	
  7723                           ;C:/MPlab_Digital2/Digital_2/Proyecto3Digital2.X/main.c: 203:             if (esclavo3< 
      +                          69){
  7724                           
  7725                           
  7726                           ;C:/MPlab_Digital2/Digital_2/Proyecto3Digital2.X/main.c: 204:                 TXREG = 45
      +                          ;
  7727  135C  1107               	bcf	7,2	;volatile
  7728  135D                     l3263:
  7729                           
  7730                           ;C:/MPlab_Digital2/Digital_2/Proyecto3Digital2.X/main.c: 205:             }else{
  7731  135D  0193               	clrf	19	;volatile
  7732  135E                     l3265:
  7733                           
  7734                           ;C:/MPlab_Digital2/Digital_2/Proyecto3Digital2.X/main.c: 206:                 TXREG = 32
      +                          ;
  7735  135E  160A  118A  2156  160A  118A  	fcall	_spiRead
  7736  1363  00FF               	movwf	btemp+1
  7737  1364  087F               	movf	btemp+1,w
  7738  1365  1683               	bsf	3,5	;RP0=1, select bank1
  7739  1366  1303               	bcf	3,6	;RP1=0, select bank1
  7740  1367  00E7               	movwf	_esclavo3^(0+128)
  7741  1368                     l3267:
  7742                           
  7743                           ;C:/MPlab_Digital2/Digital_2/Proyecto3Digital2.X/main.c: 207:             }
  7744  1368  1283               	bcf	3,5	;RP0=0, select bank0
  7745  1369  1303               	bcf	3,6	;RP1=0, select bank0
  7746  136A  01E2               	clrf	_slave
  7747                           
  7748                           ;C:/MPlab_Digital2/Digital_2/Proyecto3Digital2.X/main.c: 208:            break;
  7749  136B  2B7F               	goto	l191
  7750  136C                     l3271:
  7751  136C  0862               	movf	_slave,w
  7752  136D  00AB               	movwf	??_envio_esclavos
  7753  136E  01AC               	clrf	??_envio_esclavos+1
  7754                           
  7755                           ; Switch on 2 bytes has been partitioned into a top level switch of size 1, and 1 sub-sw
      +                          itches
  7756                           ; Switch size 1, requested type "simple"
  7757                           ; Number of cases is 1, Range of values is 0 to 0
  7758                           ; switch strategies available:
  7759                           ; Name         Instructions Cycles
  7760                           ; simple_byte            4     3 (average)
  7761                           ; direct_byte           11     8 (fixed)
  7762                           ; jumptable            260     6 (fixed)
  7763                           ;	Chosen strategy is simple_byte
  7764  136F  082C               	movf	??_envio_esclavos+1,w
  7765  1370  3A00               	xorlw	0	; case 0
  7766  1371  1903               	skipnz
  7767  1372  2B74               	goto	l4043
  7768  1373  2B7F               	goto	l191
  7769  1374                     l4043:
  7770                           
  7771                           ; Switch size 1, requested type "simple"
  7772                           ; Number of cases is 3, Range of values is 0 to 2
  7773                           ; switch strategies available:
  7774                           ; Name         Instructions Cycles
  7775                           ; simple_byte           10     6 (average)
  7776                           ; direct_byte           17     8 (fixed)
  7777                           ; jumptable            260     6 (fixed)
  7778                           ;	Chosen strategy is simple_byte
  7779  1374  082B               	movf	??_envio_esclavos,w
  7780  1375  3A00               	xorlw	0	; case 0
  7781  1376  1903               	skipnz
  7782  1377  2B3D               	goto	l187
  7783  1378  3A01               	xorlw	1	; case 1
  7784  1379  1903               	skipnz
  7785  137A  2B4F               	goto	l189
  7786  137B  3A03               	xorlw	3	; case 2
  7787  137C  1903               	skipnz
  7788  137D  2B5C               	goto	l190
  7789  137E  2B7F               	goto	l191
  7790  137F                     l191:
  7791  137F  0008               	return
  7792  1380                     __end_of_envio_esclavos:
  7793                           
  7794                           	psect	text20
  7795  1156                     __ptext20:	
  7796 ;; *************** function _spiRead *****************
  7797 ;; Defined at:
  7798 ;;		line 49 in file "C:/MPlab_Digital2/Digital_2/Proyecto3Digital2.X/SPI.c"
  7799 ;; Parameters:    Size  Location     Type
  7800 ;;		None
  7801 ;; Auto vars:     Size  Location     Type
  7802 ;;		None
  7803 ;; Return value:  Size  Location     Type
  7804 ;;                  1    wreg      unsigned char 
  7805 ;; Registers used:
  7806 ;;		wreg, status,2, status,0, pclath, cstack
  7807 ;; Tracked objects:
  7808 ;;		On entry : 0/0
  7809 ;;		On exit  : 0/0
  7810 ;;		Unchanged: 0/0
  7811 ;; Data sizes:     COMMON   BANK0   BANK1   BANK3   BANK2
  7812 ;;      Params:         0       0       0       0       0
  7813 ;;      Locals:         0       0       0       0       0
  7814 ;;      Temps:          0       0       0       0       0
  7815 ;;      Totals:         0       0       0       0       0
  7816 ;;Total ram usage:        0 bytes
  7817 ;; Hardware stack levels used:    1
  7818 ;; Hardware stack levels required when called:    4
  7819 ;; This function calls:
  7820 ;;		_spiReceiveWait
  7821 ;; This function is called by:
  7822 ;;		_envio_esclavos
  7823 ;; This function uses a non-reentrant model
  7824 ;;
  7825                           
  7826                           
  7827                           ;psect for function _spiRead
  7828  1156                     _spiRead:
  7829  1156                     l2297:	
  7830                           ;incstack = 0
  7831                           ; Regs used in _spiRead: [wreg+status,2+status,0+pclath+cstack]
  7832                           
  7833                           
  7834                           ;C:/MPlab_Digital2/Digital_2/Proyecto3Digital2.X/SPI.c: 51:     spiReceiveWait();
  7835  1156  160A  118A  214F  160A  118A  	fcall	_spiReceiveWait
  7836  115B                     l2299:
  7837                           
  7838                           ;C:/MPlab_Digital2/Digital_2/Proyecto3Digital2.X/SPI.c: 52:     return(SSPBUF);
  7839  115B  1283               	bcf	3,5	;RP0=0, select bank0
  7840  115C  1303               	bcf	3,6	;RP1=0, select bank0
  7841  115D  0813               	movf	19,w	;volatile
  7842  115E                     l293:
  7843  115E  0008               	return
  7844  115F                     __end_of_spiRead:
  7845                           
  7846                           	psect	text21
  7847  114F                     __ptext21:	
  7848 ;; *************** function _spiReceiveWait *****************
  7849 ;; Defined at:
  7850 ;;		line 29 in file "C:/MPlab_Digital2/Digital_2/Proyecto3Digital2.X/SPI.c"
  7851 ;; Parameters:    Size  Location     Type
  7852 ;;		None
  7853 ;; Auto vars:     Size  Location     Type
  7854 ;;		None
  7855 ;; Return value:  Size  Location     Type
  7856 ;;                  1    wreg      void 
  7857 ;; Registers used:
  7858 ;;		None
  7859 ;; Tracked objects:
  7860 ;;		On entry : 0/0
  7861 ;;		On exit  : 0/0
  7862 ;;		Unchanged: 0/0
  7863 ;; Data sizes:     COMMON   BANK0   BANK1   BANK3   BANK2
  7864 ;;      Params:         0       0       0       0       0
  7865 ;;      Locals:         0       0       0       0       0
  7866 ;;      Temps:          0       0       0       0       0
  7867 ;;      Totals:         0       0       0       0       0
  7868 ;;Total ram usage:        0 bytes
  7869 ;; Hardware stack levels used:    1
  7870 ;; Hardware stack levels required when called:    3
  7871 ;; This function calls:
  7872 ;;		Nothing
  7873 ;; This function is called by:
  7874 ;;		_spiRead
  7875 ;; This function uses a non-reentrant model
  7876 ;;
  7877                           
  7878                           
  7879                           ;psect for function _spiReceiveWait
  7880  114F                     _spiReceiveWait:
  7881  114F                     l2207:	
  7882                           ;incstack = 0
  7883                           ; Regs used in _spiReceiveWait: []
  7884                           
  7885  114F                     l279:	
  7886                           ;C:/MPlab_Digital2/Digital_2/Proyecto3Digital2.X/SPI.c: 31:     while ( !SSPSTATbits.BF 
      +                          );
  7887                           
  7888  114F  1683               	bsf	3,5	;RP0=1, select bank1
  7889  1150  1303               	bcf	3,6	;RP1=0, select bank1
  7890  1151  1C14               	btfss	20,0	;volatile
  7891  1152  2954               	goto	u1911
  7892  1153  2955               	goto	u1910
  7893  1154                     u1911:
  7894  1154  294F               	goto	l279
  7895  1155                     u1910:
  7896  1155                     l282:
  7897  1155  0008               	return
  7898  1156                     __end_of_spiReceiveWait:
  7899                           
  7900                           	psect	text22
  7901  115F                     __ptext22:	
  7902 ;; *************** function _TX_GO *****************
  7903 ;; Defined at:
  7904 ;;		line 179 in file "C:/MPlab_Digital2/Digital_2/Proyecto3Digital2.X/main.c"
  7905 ;; Parameters:    Size  Location     Type
  7906 ;;		None
  7907 ;; Auto vars:     Size  Location     Type
  7908 ;;		None
  7909 ;; Return value:  Size  Location     Type
  7910 ;;                  1    wreg      void 
  7911 ;; Registers used:
  7912 ;;		wreg, status,2, status,0
  7913 ;; Tracked objects:
  7914 ;;		On entry : 0/0
  7915 ;;		On exit  : 0/0
  7916 ;;		Unchanged: 0/0
  7917 ;; Data sizes:     COMMON   BANK0   BANK1   BANK3   BANK2
  7918 ;;      Params:         0       0       0       0       0
  7919 ;;      Locals:         0       0       0       0       0
  7920 ;;      Temps:          0       0       0       0       0
  7921 ;;      Totals:         0       0       0       0       0
  7922 ;;Total ram usage:        0 bytes
  7923 ;; Hardware stack levels used:    1
  7924 ;; Hardware stack levels required when called:    3
  7925 ;; This function calls:
  7926 ;;		Nothing
  7927 ;; This function is called by:
  7928 ;;		_main
  7929 ;; This function uses a non-reentrant model
  7930 ;;
  7931                           
  7932                           
  7933                           ;psect for function _TX_GO
  7934  115F                     _TX_GO:
  7935  115F                     l3237:	
  7936                           ;incstack = 0
  7937                           ; Regs used in _TX_GO: [wreg+status,2+status,0]
  7938                           
  7939                           
  7940                           ;C:/MPlab_Digital2/Digital_2/Proyecto3Digital2.X/main.c: 180: 
  7941  115F  300A               	movlw	10
  7942  1160  1283               	bcf	3,5	;RP0=0, select bank0
  7943  1161  1303               	bcf	3,6	;RP1=0, select bank0
  7944  1162  0664               	xorwf	_controles,w
  7945  1163  1D03               	btfss	3,2
  7946  1164  2966               	goto	u3761
  7947  1165  2967               	goto	u3760
  7948  1166                     u3761:
  7949  1166  296A               	goto	l182
  7950  1167                     u3760:
  7951  1167                     l3239:
  7952                           
  7953                           ;C:/MPlab_Digital2/Digital_2/Proyecto3Digital2.X/main.c: 181:            var_envio++;
  7954  1167  1683               	bsf	3,5	;RP0=1, select bank1
  7955  1168  1303               	bcf	3,6	;RP1=0, select bank1
  7956  1169  160C               	bsf	12,4	;volatile
  7957  116A                     l182:
  7958  116A  0008               	return
  7959  116B                     __end_of_TX_GO:
  7960                           
  7961                           	psect	text23
  7962  1272                     __ptext23:	
  7963 ;; *************** function _Lcd_Write_String *****************
  7964 ;; Defined at:
  7965 ;;		line 64 in file "C:/MPlab_Digital2/Digital_2/Proyecto3Digital2.X/Display8bits.c"
  7966 ;; Parameters:    Size  Location     Type
  7967 ;;  a               1    wreg     PTR unsigned char 
  7968 ;;		 -> STR_1(15), 
  7969 ;; Auto vars:     Size  Location     Type
  7970 ;;  a               1   15[BANK0 ] PTR unsigned char 
  7971 ;;		 -> STR_1(15), 
  7972 ;;  i               2   13[BANK0 ] int 
  7973 ;; Return value:  Size  Location     Type
  7974 ;;                  1    wreg      void 
  7975 ;; Registers used:
  7976 ;;		wreg, fsr0l, fsr0h, status,2, status,0, pclath, cstack
  7977 ;; Tracked objects:
  7978 ;;		On entry : 0/0
  7979 ;;		On exit  : 0/0
  7980 ;;		Unchanged: 0/0
  7981 ;; Data sizes:     COMMON   BANK0   BANK1   BANK3   BANK2
  7982 ;;      Params:         0       0       0       0       0
  7983 ;;      Locals:         0       3       0       0       0
  7984 ;;      Temps:          0       0       0       0       0
  7985 ;;      Totals:         0       3       0       0       0
  7986 ;;Total ram usage:        3 bytes
  7987 ;; Hardware stack levels used:    1
  7988 ;; Hardware stack levels required when called:    5
  7989 ;; This function calls:
  7990 ;;		_Lcd_Write_Char
  7991 ;; This function is called by:
  7992 ;;		_main
  7993 ;; This function uses a non-reentrant model
  7994 ;;
  7995                           
  7996                           
  7997                           ;psect for function _Lcd_Write_String
  7998  1272                     _Lcd_Write_String:
  7999                           
  8000                           ;incstack = 0
  8001                           ; Regs used in _Lcd_Write_String: [wreg-fsr0h+status,2+status,0+pclath+cstack]
  8002                           ;Lcd_Write_String@a stored from wreg
  8003  1272  1283               	bcf	3,5	;RP0=0, select bank0
  8004  1273  1303               	bcf	3,6	;RP1=0, select bank0
  8005  1274  00AF               	movwf	Lcd_Write_String@a
  8006  1275                     l3093:
  8007                           
  8008                           ;C:/MPlab_Digital2/Digital_2/Proyecto3Digital2.X/Display8bits.c: 65:  int i;;C:/MPlab_Di
      +                          gital2/Digital_2/Proyecto3Digital2.X/Display8bits.c: 66:  for(i=0;a[i]!='\0';i++)
  8009  1275  01AD               	clrf	Lcd_Write_String@i
  8010  1276  01AE               	clrf	Lcd_Write_String@i+1
  8011  1277  2A8D               	goto	l3099
  8012  1278                     l3095:
  8013                           
  8014                           ;C:/MPlab_Digital2/Digital_2/Proyecto3Digital2.X/Display8bits.c: 67:     Lcd_Write_Char(
      +                          a[i]);
  8015  1278  082D               	movf	Lcd_Write_String@i,w
  8016  1279  072F               	addwf	Lcd_Write_String@a,w
  8017  127A  0084               	movwf	4
  8018  127B  160A  118A  2000  160A  118A  	fcall	stringdir
  8019  1280  160A  118A  216B  160A  118A  	fcall	_Lcd_Write_Char
  8020  1285                     l3097:
  8021  1285  3001               	movlw	1
  8022  1286  1283               	bcf	3,5	;RP0=0, select bank0
  8023  1287  1303               	bcf	3,6	;RP1=0, select bank0
  8024  1288  07AD               	addwf	Lcd_Write_String@i,f
  8025  1289  1803               	skipnc
  8026  128A  0AAE               	incf	Lcd_Write_String@i+1,f
  8027  128B  3000               	movlw	0
  8028  128C  07AE               	addwf	Lcd_Write_String@i+1,f
  8029  128D                     l3099:
  8030  128D  082D               	movf	Lcd_Write_String@i,w
  8031  128E  072F               	addwf	Lcd_Write_String@a,w
  8032  128F  0084               	movwf	4
  8033  1290  160A  118A  2000  160A  118A  	fcall	stringdir
  8034  1295  3A00               	xorlw	0
  8035  1296  1D03               	skipz
  8036  1297  2A99               	goto	u3721
  8037  1298  2A9A               	goto	u3720
  8038  1299                     u3721:
  8039  1299  2A78               	goto	l3095
  8040  129A                     u3720:
  8041  129A                     l35:
  8042  129A  0008               	return
  8043  129B                     __end_of_Lcd_Write_String:
  8044                           
  8045                           	psect	text24
  8046  116B                     __ptext24:	
  8047 ;; *************** function _Lcd_Write_Char *****************
  8048 ;; Defined at:
  8049 ;;		line 57 in file "C:/MPlab_Digital2/Digital_2/Proyecto3Digital2.X/Display8bits.c"
  8050 ;; Parameters:    Size  Location     Type
  8051 ;;  a               1    wreg     unsigned char 
  8052 ;; Auto vars:     Size  Location     Type
  8053 ;;  a               1   12[BANK0 ] unsigned char 
  8054 ;; Return value:  Size  Location     Type
  8055 ;;                  1    wreg      void 
  8056 ;; Registers used:
  8057 ;;		wreg, status,2, status,0, pclath, cstack
  8058 ;; Tracked objects:
  8059 ;;		On entry : 0/0
  8060 ;;		On exit  : 0/0
  8061 ;;		Unchanged: 0/0
  8062 ;; Data sizes:     COMMON   BANK0   BANK1   BANK3   BANK2
  8063 ;;      Params:         0       0       0       0       0
  8064 ;;      Locals:         0       1       0       0       0
  8065 ;;      Temps:          0       0       0       0       0
  8066 ;;      Totals:         0       1       0       0       0
  8067 ;;Total ram usage:        1 bytes
  8068 ;; Hardware stack levels used:    1
  8069 ;; Hardware stack levels required when called:    4
  8070 ;; This function calls:
  8071 ;;		_Lcd_Port
  8072 ;; This function is called by:
  8073 ;;		_Lcd_Write_String
  8074 ;;		_main
  8075 ;; This function uses a non-reentrant model
  8076 ;;
  8077                           
  8078                           
  8079                           ;psect for function _Lcd_Write_Char
  8080  116B                     _Lcd_Write_Char:
  8081                           
  8082                           ;incstack = 0
  8083                           ; Regs used in _Lcd_Write_Char: [wreg+status,2+status,0+pclath+cstack]
  8084                           ;Lcd_Write_Char@a stored from wreg
  8085  116B  1283               	bcf	3,5	;RP0=0, select bank0
  8086  116C  1303               	bcf	3,6	;RP1=0, select bank0
  8087  116D  00AC               	movwf	Lcd_Write_Char@a
  8088  116E                     l2245:
  8089                           
  8090                           ;C:/MPlab_Digital2/Digital_2/Proyecto3Digital2.X/Display8bits.c: 58:    RE0 = 1;
  8091  116E  1409               	bsf	9,0	;volatile
  8092  116F                     l2247:
  8093                           
  8094                           ;C:/MPlab_Digital2/Digital_2/Proyecto3Digital2.X/Display8bits.c: 59:    Lcd_Port(a);
  8095  116F  082C               	movf	Lcd_Write_Char@a,w
  8096  1170  160A  118A  2142  160A  118A  	fcall	_Lcd_Port
  8097  1175                     l2249:
  8098                           
  8099                           ;C:/MPlab_Digital2/Digital_2/Proyecto3Digital2.X/Display8bits.c: 60:    RE2 = 1;
  8100  1175  1283               	bcf	3,5	;RP0=0, select bank0
  8101  1176  1303               	bcf	3,6	;RP1=0, select bank0
  8102  1177  1509               	bsf	9,2	;volatile
  8103  1178                     l2251:
  8104                           
  8105                           ;C:/MPlab_Digital2/Digital_2/Proyecto3Digital2.X/Display8bits.c: 61:    _delay((unsigned
      +                           long)((40)*(400000/4000000.0)));
  8106  1178  2979               	nop2	;2 cycle nop
  8107  1179  297A               	nop2	;2 cycle nop
  8108  117A                     l2253:
  8109                           
  8110                           ;C:/MPlab_Digital2/Digital_2/Proyecto3Digital2.X/Display8bits.c: 62:    RE2 = 0;;
  8111  117A  1283               	bcf	3,5	;RP0=0, select bank0
  8112  117B  1303               	bcf	3,6	;RP1=0, select bank0
  8113  117C  1109               	bcf	9,2	;volatile
  8114  117D                     l29:
  8115  117D  0008               	return
  8116  117E                     __end_of_Lcd_Write_Char:
  8117                           
  8118                           	psect	text25
  8119  1225                     __ptext25:	
  8120 ;; *************** function _Lcd_Set_Cursor *****************
  8121 ;; Defined at:
  8122 ;;		line 27 in file "C:/MPlab_Digital2/Digital_2/Proyecto3Digital2.X/Display8bits.c"
  8123 ;; Parameters:    Size  Location     Type
  8124 ;;  a               1    wreg     unsigned char 
  8125 ;;  b               1   14[BANK0 ] unsigned char 
  8126 ;; Auto vars:     Size  Location     Type
  8127 ;;  a               1   15[BANK0 ] unsigned char 
  8128 ;;  temp            1   16[BANK0 ] unsigned char 
  8129 ;; Return value:  Size  Location     Type
  8130 ;;                  1    wreg      void 
  8131 ;; Registers used:
  8132 ;;		wreg, status,2, status,0, btemp+1, pclath, cstack
  8133 ;; Tracked objects:
  8134 ;;		On entry : 0/0
  8135 ;;		On exit  : 0/0
  8136 ;;		Unchanged: 0/0
  8137 ;; Data sizes:     COMMON   BANK0   BANK1   BANK3   BANK2
  8138 ;;      Params:         0       1       0       0       0
  8139 ;;      Locals:         0       2       0       0       0
  8140 ;;      Temps:          0       0       0       0       0
  8141 ;;      Totals:         0       3       0       0       0
  8142 ;;Total ram usage:        3 bytes
  8143 ;; Hardware stack levels used:    1
  8144 ;; Hardware stack levels required when called:    5
  8145 ;; This function calls:
  8146 ;;		_Lcd_Cmd
  8147 ;; This function is called by:
  8148 ;;		_main
  8149 ;; This function uses a non-reentrant model
  8150 ;;
  8151                           
  8152                           
  8153                           ;psect for function _Lcd_Set_Cursor
  8154  1225                     _Lcd_Set_Cursor:
  8155                           
  8156                           ;incstack = 0
  8157                           ; Regs used in _Lcd_Set_Cursor: [wreg+status,2+status,0+btemp+1+pclath+cstack]
  8158                           ;Lcd_Set_Cursor@a stored from wreg
  8159  1225  1283               	bcf	3,5	;RP0=0, select bank0
  8160  1226  1303               	bcf	3,6	;RP1=0, select bank0
  8161  1227  00AF               	movwf	Lcd_Set_Cursor@a
  8162  1228                     l3081:
  8163                           
  8164                           ;C:/MPlab_Digital2/Digital_2/Proyecto3Digital2.X/Display8bits.c: 28:  char temp;;C:/MPla
      +                          b_Digital2/Digital_2/Proyecto3Digital2.X/Display8bits.c: 29:  if(a == 1)
  8165  1228  032F               	decf	Lcd_Set_Cursor@a,w
  8166  1229  1D03               	btfss	3,2
  8167  122A  2A2C               	goto	u3701
  8168  122B  2A2D               	goto	u3700
  8169  122C                     u3701:
  8170  122C  2A39               	goto	l3087
  8171  122D                     u3700:
  8172  122D                     l3083:
  8173                           
  8174                           ;C:/MPlab_Digital2/Digital_2/Proyecto3Digital2.X/Display8bits.c: 30:  {;C:/MPlab_Digital
      +                          2/Digital_2/Proyecto3Digital2.X/Display8bits.c: 31:    temp = 0x80 + b - 1;
  8175  122D  082E               	movf	Lcd_Set_Cursor@b,w
  8176  122E  3E7F               	addlw	127
  8177  122F  00FF               	movwf	btemp+1
  8178  1230  087F               	movf	btemp+1,w
  8179  1231  00B0               	movwf	Lcd_Set_Cursor@temp
  8180  1232                     l3085:
  8181                           
  8182                           ;C:/MPlab_Digital2/Digital_2/Proyecto3Digital2.X/Display8bits.c: 32:       Lcd_Cmd(temp)
      +                          ;
  8183  1232  0830               	movf	Lcd_Set_Cursor@temp,w
  8184  1233  120A  118A  27E7  160A  118A  	fcall	_Lcd_Cmd
  8185                           
  8186                           ;C:/MPlab_Digital2/Digital_2/Proyecto3Digital2.X/Display8bits.c: 33:  }
  8187  1238  2A4A               	goto	l23
  8188  1239                     l3087:
  8189  1239  3002               	movlw	2
  8190  123A  062F               	xorwf	Lcd_Set_Cursor@a,w
  8191  123B  1D03               	btfss	3,2
  8192  123C  2A3E               	goto	u3711
  8193  123D  2A3F               	goto	u3710
  8194  123E                     u3711:
  8195  123E  2A4A               	goto	l23
  8196  123F                     u3710:
  8197  123F                     l3089:
  8198                           
  8199                           ;C:/MPlab_Digital2/Digital_2/Proyecto3Digital2.X/Display8bits.c: 35:  {;C:/MPlab_Digital
      +                          2/Digital_2/Proyecto3Digital2.X/Display8bits.c: 36:   temp = 0xC0 + b - 1;
  8200  123F  082E               	movf	Lcd_Set_Cursor@b,w
  8201  1240  3EBF               	addlw	191
  8202  1241  00FF               	movwf	btemp+1
  8203  1242  087F               	movf	btemp+1,w
  8204  1243  00B0               	movwf	Lcd_Set_Cursor@temp
  8205  1244                     l3091:
  8206                           
  8207                           ;C:/MPlab_Digital2/Digital_2/Proyecto3Digital2.X/Display8bits.c: 37:         Lcd_Cmd(tem
      +                          p);
  8208  1244  0830               	movf	Lcd_Set_Cursor@temp,w
  8209  1245  120A  118A  27E7  160A  118A  	fcall	_Lcd_Cmd
  8210  124A                     l23:
  8211  124A  0008               	return
  8212  124B                     __end_of_Lcd_Set_Cursor:
  8213                           
  8214                           	psect	text26
  8215  1148                     __ptext26:	
  8216 ;; *************** function _Lcd_Clear *****************
  8217 ;; Defined at:
  8218 ;;		line 24 in file "C:/MPlab_Digital2/Digital_2/Proyecto3Digital2.X/Display8bits.c"
  8219 ;; Parameters:    Size  Location     Type
  8220 ;;		None
  8221 ;; Auto vars:     Size  Location     Type
  8222 ;;		None
  8223 ;; Return value:  Size  Location     Type
  8224 ;;                  1    wreg      void 
  8225 ;; Registers used:
  8226 ;;		wreg, status,2, status,0, pclath, cstack
  8227 ;; Tracked objects:
  8228 ;;		On entry : 0/0
  8229 ;;		On exit  : 0/0
  8230 ;;		Unchanged: 0/0
  8231 ;; Data sizes:     COMMON   BANK0   BANK1   BANK3   BANK2
  8232 ;;      Params:         0       0       0       0       0
  8233 ;;      Locals:         0       0       0       0       0
  8234 ;;      Temps:          0       0       0       0       0
  8235 ;;      Totals:         0       0       0       0       0
  8236 ;;Total ram usage:        0 bytes
  8237 ;; Hardware stack levels used:    1
  8238 ;; Hardware stack levels required when called:    5
  8239 ;; This function calls:
  8240 ;;		_Lcd_Cmd
  8241 ;; This function is called by:
  8242 ;;		_main
  8243 ;; This function uses a non-reentrant model
  8244 ;;
  8245                           
  8246                           
  8247                           ;psect for function _Lcd_Clear
  8248  1148                     _Lcd_Clear:
  8249  1148                     l3079:	
  8250                           ;incstack = 0
  8251                           ; Regs used in _Lcd_Clear: [wreg+status,2+status,0+pclath+cstack]
  8252                           
  8253                           
  8254                           ;C:/MPlab_Digital2/Digital_2/Proyecto3Digital2.X/Display8bits.c: 25:  Lcd_Cmd(1);
  8255  1148  3001               	movlw	1
  8256  1149  120A  118A  27E7  160A  118A  	fcall	_Lcd_Cmd
  8257  114E                     l17:
  8258  114E  0008               	return
  8259  114F                     __end_of_Lcd_Clear:
  8260                           
  8261                           	psect	text27
  8262  07E7                     __ptext27:	
  8263 ;; *************** function _Lcd_Cmd *****************
  8264 ;; Defined at:
  8265 ;;		line 17 in file "C:/MPlab_Digital2/Digital_2/Proyecto3Digital2.X/Display8bits.c"
  8266 ;; Parameters:    Size  Location     Type
  8267 ;;  a               1    wreg     unsigned char 
  8268 ;; Auto vars:     Size  Location     Type
  8269 ;;  a               1   13[BANK0 ] unsigned char 
  8270 ;; Return value:  Size  Location     Type
  8271 ;;                  1    wreg      void 
  8272 ;; Registers used:
  8273 ;;		wreg, status,2, status,0, pclath, cstack
  8274 ;; Tracked objects:
  8275 ;;		On entry : 0/0
  8276 ;;		On exit  : 0/0
  8277 ;;		Unchanged: 0/0
  8278 ;; Data sizes:     COMMON   BANK0   BANK1   BANK3   BANK2
  8279 ;;      Params:         0       0       0       0       0
  8280 ;;      Locals:         0       1       0       0       0
  8281 ;;      Temps:          0       1       0       0       0
  8282 ;;      Totals:         0       2       0       0       0
  8283 ;;Total ram usage:        2 bytes
  8284 ;; Hardware stack levels used:    1
  8285 ;; Hardware stack levels required when called:    4
  8286 ;; This function calls:
  8287 ;;		_Lcd_Port
  8288 ;; This function is called by:
  8289 ;;		_Lcd_Clear
  8290 ;;		_Lcd_Set_Cursor
  8291 ;;		_Lcd_Init
  8292 ;;		_Lcd_Shift_Right
  8293 ;;		_Lcd_Shift_Left
  8294 ;; This function uses a non-reentrant model
  8295 ;;
  8296                           
  8297                           
  8298                           ;psect for function _Lcd_Cmd
  8299  07E7                     _Lcd_Cmd:
  8300                           
  8301                           ;incstack = 0
  8302                           ; Regs used in _Lcd_Cmd: [wreg+status,2+status,0+pclath+cstack]
  8303                           ;Lcd_Cmd@a stored from wreg
  8304  07E7  1283               	bcf	3,5	;RP0=0, select bank0
  8305  07E8  1303               	bcf	3,6	;RP1=0, select bank0
  8306  07E9  00AD               	movwf	Lcd_Cmd@a
  8307  07EA                     l2197:
  8308                           
  8309                           ;C:/MPlab_Digital2/Digital_2/Proyecto3Digital2.X/Display8bits.c: 18:  RE0 = 0;
  8310  07EA  1009               	bcf	9,0	;volatile
  8311  07EB                     l2199:
  8312                           
  8313                           ;C:/MPlab_Digital2/Digital_2/Proyecto3Digital2.X/Display8bits.c: 19:  Lcd_Port(a);
  8314  07EB  082D               	movf	Lcd_Cmd@a,w
  8315  07EC  160A  118A  2142  120A  118A  	fcall	_Lcd_Port
  8316  07F1                     l2201:
  8317                           
  8318                           ;C:/MPlab_Digital2/Digital_2/Proyecto3Digital2.X/Display8bits.c: 20:  RE2 = 1;
  8319  07F1  1283               	bcf	3,5	;RP0=0, select bank0
  8320  07F2  1303               	bcf	3,6	;RP1=0, select bank0
  8321  07F3  1509               	bsf	9,2	;volatile
  8322  07F4                     l2203:
  8323                           
  8324                           ;C:/MPlab_Digital2/Digital_2/Proyecto3Digital2.X/Display8bits.c: 21:     _delay((unsigne
      +                          d long)((10)*(400000/4000.0)));
  8325  07F4  30C7               	movlw	199
  8326  07F5  1283               	bcf	3,5	;RP0=0, select bank0
  8327  07F6  1303               	bcf	3,6	;RP1=0, select bank0
  8328  07F7  00AC               	movwf	??_Lcd_Cmd
  8329  07F8                     u4647:
  8330  07F8  2FF9               	nop2
  8331  07F9  0BAC               	decfsz	??_Lcd_Cmd,f
  8332  07FA  2FF8               	goto	u4647
  8333  07FB  2FFC               	nop2
  8334  07FC                     l2205:
  8335                           
  8336                           ;C:/MPlab_Digital2/Digital_2/Proyecto3Digital2.X/Display8bits.c: 22:     RE2 = 0;
  8337  07FC  1283               	bcf	3,5	;RP0=0, select bank0
  8338  07FD  1303               	bcf	3,6	;RP1=0, select bank0
  8339  07FE  1109               	bcf	9,2	;volatile
  8340  07FF                     l14:
  8341  07FF  0008               	return
  8342  0800                     __end_of_Lcd_Cmd:
  8343                           
  8344                           	psect	text28
  8345  1142                     __ptext28:	
  8346 ;; *************** function _Lcd_Port *****************
  8347 ;; Defined at:
  8348 ;;		line 14 in file "C:/MPlab_Digital2/Digital_2/Proyecto3Digital2.X/Display8bits.c"
  8349 ;; Parameters:    Size  Location     Type
  8350 ;;  a               1    wreg     unsigned char 
  8351 ;; Auto vars:     Size  Location     Type
  8352 ;;  a               1   11[BANK0 ] unsigned char 
  8353 ;; Return value:  Size  Location     Type
  8354 ;;                  1    wreg      void 
  8355 ;; Registers used:
  8356 ;;		wreg
  8357 ;; Tracked objects:
  8358 ;;		On entry : 0/0
  8359 ;;		On exit  : 0/0
  8360 ;;		Unchanged: 0/0
  8361 ;; Data sizes:     COMMON   BANK0   BANK1   BANK3   BANK2
  8362 ;;      Params:         0       0       0       0       0
  8363 ;;      Locals:         0       1       0       0       0
  8364 ;;      Temps:          0       0       0       0       0
  8365 ;;      Totals:         0       1       0       0       0
  8366 ;;Total ram usage:        1 bytes
  8367 ;; Hardware stack levels used:    1
  8368 ;; Hardware stack levels required when called:    3
  8369 ;; This function calls:
  8370 ;;		Nothing
  8371 ;; This function is called by:
  8372 ;;		_Lcd_Cmd
  8373 ;;		_Lcd_Init
  8374 ;;		_Lcd_Write_Char
  8375 ;; This function uses a non-reentrant model
  8376 ;;
  8377                           
  8378                           
  8379                           ;psect for function _Lcd_Port
  8380  1142                     _Lcd_Port:
  8381                           
  8382                           ;incstack = 0
  8383                           ; Regs used in _Lcd_Port: [wreg]
  8384                           ;Lcd_Port@a stored from wreg
  8385  1142  1283               	bcf	3,5	;RP0=0, select bank0
  8386  1143  1303               	bcf	3,6	;RP1=0, select bank0
  8387  1144  00AB               	movwf	Lcd_Port@a
  8388  1145                     l2195:
  8389                           
  8390                           ;C:/MPlab_Digital2/Digital_2/Proyecto3Digital2.X/Display8bits.c: 15:     PORTA = a;
  8391  1145  082B               	movf	Lcd_Port@a,w
  8392  1146  0085               	movwf	5	;volatile
  8393  1147                     l11:
  8394  1147  0008               	return
  8395  1148                     __end_of_Lcd_Port:
  8396                           
  8397                           	psect	text29
  8398  11DD                     __ptext29:	
  8399 ;; *************** function _isr *****************
  8400 ;; Defined at:
  8401 ;;		line 67 in file "C:/MPlab_Digital2/Digital_2/Proyecto3Digital2.X/main.c"
  8402 ;; Parameters:    Size  Location     Type
  8403 ;;		None
  8404 ;; Auto vars:     Size  Location     Type
  8405 ;;		None
  8406 ;; Return value:  Size  Location     Type
  8407 ;;                  1    wreg      void 
  8408 ;; Registers used:
  8409 ;;		wreg, fsr0l, fsr0h, status,2, status,0, btemp+1, pclath, cstack
  8410 ;; Tracked objects:
  8411 ;;		On entry : 0/0
  8412 ;;		On exit  : 0/0
  8413 ;;		Unchanged: 0/0
  8414 ;; Data sizes:     COMMON   BANK0   BANK1   BANK3   BANK2
  8415 ;;      Params:         0       0       0       0       0
  8416 ;;      Locals:         0       0       0       0       0
  8417 ;;      Temps:          0       4       0       0       0
  8418 ;;      Totals:         0       4       0       0       0
  8419 ;;Total ram usage:        4 bytes
  8420 ;; Hardware stack levels used:    1
  8421 ;; Hardware stack levels required when called:    2
  8422 ;; This function calls:
  8423 ;;		_envio
  8424 ;; This function is called by:
  8425 ;;		Interrupt level 1
  8426 ;; This function uses a non-reentrant model
  8427 ;;
  8428                           
  8429                           
  8430                           ;psect for function _isr
  8431  11DD                     _isr:
  8432  11DD                     i1l3291:
  8433                           
  8434                           ;C:/MPlab_Digital2/Digital_2/Proyecto3Digital2.X/main.c: 68:         Lcd_Write_Char(unid
      +                          adesp1+48);
  8435  11DD  1D0B               	btfss	11,2	;volatile
  8436  11DE  29E0               	goto	u378_21
  8437  11DF  29E1               	goto	u378_20
  8438  11E0                     u378_21:
  8439  11E0  29E8               	goto	i1l3299
  8440  11E1                     u378_20:
  8441  11E1                     i1l3293:
  8442                           
  8443                           ;C:/MPlab_Digital2/Digital_2/Proyecto3Digital2.X/main.c: 69: 
  8444  11E1  30EC               	movlw	236
  8445  11E2  0081               	movwf	1	;volatile
  8446  11E3                     i1l3295:
  8447                           
  8448                           ;C:/MPlab_Digital2/Digital_2/Proyecto3Digital2.X/main.c: 70:         if (esclavo3< 69){
  8449  11E3  3001               	movlw	1
  8450  11E4  00FF               	movwf	btemp+1
  8451  11E5  087F               	movf	btemp+1,w
  8452  11E6  07E4               	addwf	_controles,f
  8453  11E7                     i1l3297:
  8454                           
  8455                           ;C:/MPlab_Digital2/Digital_2/Proyecto3Digital2.X/main.c: 71:             PORTD = 3;
  8456  11E7  110B               	bcf	11,2	;volatile
  8457  11E8                     i1l3299:
  8458                           
  8459                           ;C:/MPlab_Digital2/Digital_2/Proyecto3Digital2.X/main.c: 73:             Lcd_Write_Char(
      +                          32);
  8460  11E8  1E0C               	btfss	12,4	;volatile
  8461  11E9  29EB               	goto	u379_21
  8462  11EA  29EC               	goto	u379_20
  8463  11EB                     u379_21:
  8464  11EB  29F4               	goto	i1l165
  8465  11EC                     u379_20:
  8466  11EC                     i1l3301:
  8467                           
  8468                           ;C:/MPlab_Digital2/Digital_2/Proyecto3Digital2.X/main.c: 74:             Lcd_Set_Cursor(
      +                          2,6);
  8469  11EC  160A  118A  269A  160A  118A  	fcall	_envio
  8470  11F1                     i1l3303:
  8471                           
  8472                           ;C:/MPlab_Digital2/Digital_2/Proyecto3Digital2.X/main.c: 75:             Lcd_Write_Char(
      +                          45);
  8473  11F1  1683               	bsf	3,5	;RP0=1, select bank1
  8474  11F2  1303               	bcf	3,6	;RP1=0, select bank1
  8475  11F3  120C               	bcf	12,4	;volatile
  8476  11F4                     i1l165:
  8477  11F4  1283               	bcf	3,5	;RP0=0, select bank0
  8478  11F5  082A               	movf	??_isr+3,w
  8479  11F6  00FF               	movwf	btemp+1
  8480  11F7  0829               	movf	??_isr+2,w
  8481  11F8  008A               	movwf	10
  8482  11F9  0828               	movf	??_isr+1,w
  8483  11FA  0084               	movwf	4
  8484  11FB  0E27               	swapf	??_isr^0,w
  8485  11FC  0083               	movwf	3
  8486  11FD  0EFE               	swapf	btemp,f
  8487  11FE  0E7E               	swapf	btemp,w
  8488  11FF  0009               	retfie
  8489  1200                     __end_of_isr:
  8490                           
  8491                           	psect	intentry
  8492  0004                     __pintentry:	
  8493                           ;incstack = 0
  8494                           ; Regs used in _isr: [wreg-fsr0h+status,2+status,0+btemp+1+pclath+cstack]
  8495                           
  8496  0004                     interrupt_function:
  8497  007E                     saved_w	set	btemp
  8498  0004  00FE               	movwf	btemp
  8499  0005  0E03               	swapf	3,w
  8500  0006  1283               	bcf	3,5	;RP0=0, select bank0
  8501  0007  1303               	bcf	3,6	;RP1=0, select bank0
  8502  0008  00A7               	movwf	??_isr
  8503  0009  0804               	movf	4,w
  8504  000A  00A8               	movwf	??_isr+1
  8505  000B  080A               	movf	10,w
  8506  000C  00A9               	movwf	??_isr+2
  8507  000D  087F               	movf	btemp+1,w
  8508  000E  00AA               	movwf	??_isr+3
  8509  000F  160A  118A  29DD   	ljmp	_isr
  8510                           
  8511                           	psect	text30
  8512  169A                     __ptext30:	
  8513 ;; *************** function _envio *****************
  8514 ;; Defined at:
  8515 ;;		line 212 in file "C:/MPlab_Digital2/Digital_2/Proyecto3Digital2.X/main.c"
  8516 ;; Parameters:    Size  Location     Type
  8517 ;;		None
  8518 ;; Auto vars:     Size  Location     Type
  8519 ;;		None
  8520 ;; Return value:  Size  Location     Type
  8521 ;;                  1    wreg      void 
  8522 ;; Registers used:
  8523 ;;		wreg, fsr0l, fsr0h, status,2, status,0, btemp+1, pclath, cstack
  8524 ;; Tracked objects:
  8525 ;;		On entry : 0/0
  8526 ;;		On exit  : 0/0
  8527 ;;		Unchanged: 0/0
  8528 ;; Data sizes:     COMMON   BANK0   BANK1   BANK3   BANK2
  8529 ;;      Params:         0       0       0       0       0
  8530 ;;      Locals:         0       2       0       0       0
  8531 ;;      Temps:          0       5       0       0       0
  8532 ;;      Totals:         0       7       0       0       0
  8533 ;;Total ram usage:        7 bytes
  8534 ;; Hardware stack levels used:    1
  8535 ;; Hardware stack levels required when called:    1
  8536 ;; This function calls:
  8537 ;;		_tabla_hex
  8538 ;;		i1___awdiv
  8539 ;;		i1___wmul
  8540 ;; This function is called by:
  8541 ;;		_isr
  8542 ;; This function uses a non-reentrant model
  8543 ;;
  8544                           
  8545                           
  8546                           ;psect for function _envio
  8547  169A                     _envio:
  8548  169A                     i1l3101:	
  8549                           ;incstack = 0
  8550                           ; Regs used in _envio: [wreg-fsr0h+status,2+status,0+btemp+1+pclath+cstack]
  8551                           
  8552                           
  8553                           ;C:/MPlab_Digital2/Digital_2/Proyecto3Digital2.X/main.c: 213:         case 7:
  8554  169A  2FC9               	goto	i1l3165
  8555  169B                     i1l3103:
  8556                           
  8557                           ;C:/MPlab_Digital2/Digital_2/Proyecto3Digital2.X/main.c: 215:             var_envio++;
  8558  169B  3019               	movlw	25
  8559  169C  00F0               	movwf	tabla_hex@port
  8560  169D  3000               	movlw	0
  8561  169E  00F1               	movwf	tabla_hex@port+1
  8562  169F  1683               	bsf	3,5	;RP0=1, select bank1
  8563  16A0  1303               	bcf	3,6	;RP1=0, select bank1
  8564  16A1  0867               	movf	_esclavo3^(0+128),w
  8565  16A2  1283               	bcf	3,5	;RP0=0, select bank0
  8566  16A3  1303               	bcf	3,6	;RP1=0, select bank0
  8567  16A4  00A0               	movwf	??_envio
  8568  16A5  3004               	movlw	4
  8569  16A6                     u373_25:
  8570  16A6  1003               	clrc
  8571  16A7  0CA0               	rrf	??_envio,f
  8572  16A8  3EFF               	addlw	-1
  8573  16A9  1D03               	skipz
  8574  16AA  2EA6               	goto	u373_25
  8575  16AB  0820               	movf	??_envio,w
  8576  16AC  390F               	andlw	15
  8577  16AD  160A  118A  25BD  160A  118A  	fcall	_tabla_hex
  8578  16B2                     i1l3105:
  8579                           
  8580                           ;C:/MPlab_Digital2/Digital_2/Proyecto3Digital2.X/main.c: 217:         case 8:
  8581  16B2  3001               	movlw	1
  8582  16B3  00FF               	movwf	btemp+1
  8583  16B4  087F               	movf	btemp+1,w
  8584  16B5  1283               	bcf	3,5	;RP0=0, select bank0
  8585  16B6  1303               	bcf	3,6	;RP1=0, select bank0
  8586  16B7  07E1               	addwf	_var_envio,f
  8587                           
  8588                           ;C:/MPlab_Digital2/Digital_2/Proyecto3Digital2.X/main.c: 218:            TXREG = unidade
      +                          sp2+48;
  8589  16B8  2FFF               	goto	i1l212
  8590  16B9                     i1l3107:
  8591                           
  8592                           ;C:/MPlab_Digital2/Digital_2/Proyecto3Digital2.X/main.c: 220:            break;
  8593  16B9  3019               	movlw	25
  8594  16BA  00F0               	movwf	tabla_hex@port
  8595  16BB  3000               	movlw	0
  8596  16BC  00F1               	movwf	tabla_hex@port+1
  8597  16BD  1683               	bsf	3,5	;RP0=1, select bank1
  8598  16BE  1303               	bcf	3,6	;RP1=0, select bank1
  8599  16BF  0867               	movf	_esclavo3^(0+128),w
  8600  16C0  390F               	andlw	15
  8601  16C1  160A  118A  25BD  160A  118A  	fcall	_tabla_hex
  8602  16C6  2EB2               	goto	i1l3105
  8603  16C7                     i1l3111:
  8604                           
  8605                           ;C:/MPlab_Digital2/Digital_2/Proyecto3Digital2.X/main.c: 226:            TXREG = ((escla
      +                          vo2/100)+48);
  8606  16C7  1683               	bsf	3,5	;RP0=1, select bank1
  8607  16C8  1303               	bcf	3,6	;RP1=0, select bank1
  8608  16C9  0864               	movf	_decenasp1^(0+128),w
  8609  16CA  3E30               	addlw	48
  8610  16CB  1283               	bcf	3,5	;RP0=0, select bank0
  8611  16CC  1303               	bcf	3,6	;RP1=0, select bank0
  8612  16CD  0099               	movwf	25	;volatile
  8613  16CE  2EB2               	goto	i1l3105
  8614  16CF                     i1l3115:
  8615                           
  8616                           ;C:/MPlab_Digital2/Digital_2/Proyecto3Digital2.X/main.c: 230:            TXREG = ((escla
      +                          vo2-((esclavo2/100)*100))/10)+48;
  8617  16CF  1683               	bsf	3,5	;RP0=1, select bank1
  8618  16D0  1303               	bcf	3,6	;RP1=0, select bank1
  8619  16D1  0865               	movf	_unidadesp1^(0+128),w
  8620  16D2  3E30               	addlw	48
  8621  16D3  1283               	bcf	3,5	;RP0=0, select bank0
  8622  16D4  1303               	bcf	3,6	;RP1=0, select bank0
  8623  16D5  0099               	movwf	25	;volatile
  8624  16D6  2EB2               	goto	i1l3105
  8625  16D7                     i1l3119:
  8626                           
  8627                           ;C:/MPlab_Digital2/Digital_2/Proyecto3Digital2.X/main.c: 234:            TXREG = ((escla
      +                          vo2-((esclavo2/100)+((esclavo2-((esclavo2/100)*100))/10)))+48);
  8628  16D7  302C               	movlw	44
  8629  16D8  0099               	movwf	25	;volatile
  8630  16D9  2EB2               	goto	i1l3105
  8631  16DA                     i1l3123:
  8632                           
  8633                           ;C:/MPlab_Digital2/Digital_2/Proyecto3Digital2.X/main.c: 238:            TXREG = 13;
  8634  16DA  3001               	movlw	1
  8635  16DB  00FF               	movwf	btemp+1
  8636  16DC  087F               	movf	btemp+1,w
  8637  16DD  07E1               	addwf	_var_envio,f
  8638  16DE                     i1l3125:
  8639                           
  8640                           ;C:/MPlab_Digital2/Digital_2/Proyecto3Digital2.X/main.c: 239:            var_envio = 0;
  8641  16DE  3045               	movlw	69
  8642  16DF  1683               	bsf	3,5	;RP0=1, select bank1
  8643  16E0  1303               	bcf	3,6	;RP1=0, select bank1
  8644  16E1  0267               	subwf	_esclavo3^(0+128),w
  8645  16E2  1803               	skipnc
  8646  16E3  2EE5               	goto	u374_21
  8647  16E4  2EE6               	goto	u374_20
  8648  16E5                     u374_21:
  8649  16E5  2EEB               	goto	i1l3129
  8650  16E6                     u374_20:
  8651  16E6                     i1l3127:
  8652                           
  8653                           ;C:/MPlab_Digital2/Digital_2/Proyecto3Digital2.X/main.c: 240:            break;
  8654  16E6  302D               	movlw	45
  8655  16E7  1283               	bcf	3,5	;RP0=0, select bank0
  8656  16E8  1303               	bcf	3,6	;RP1=0, select bank0
  8657  16E9  0099               	movwf	25	;volatile
  8658                           
  8659                           ;C:/MPlab_Digital2/Digital_2/Proyecto3Digital2.X/main.c: 241:     }
  8660  16EA  2FFF               	goto	i1l212
  8661  16EB                     i1l3129:
  8662                           
  8663                           ;C:/MPlab_Digital2/Digital_2/Proyecto3Digital2.X/main.c: 242: }
  8664  16EB  3020               	movlw	32
  8665  16EC  1283               	bcf	3,5	;RP0=0, select bank0
  8666  16ED  1303               	bcf	3,6	;RP1=0, select bank0
  8667  16EE  0099               	movwf	25	;volatile
  8668  16EF  2FFF               	goto	i1l212
  8669  16F0                     i1l3131:
  8670                           
  8671                           ;C:/MPlab_Digital2/Digital_2/Proyecto3Digital2.X/main.c: 246:     centenasp1 = TEMP1/100
      +                          ;
  8672  16F0  1683               	bsf	3,5	;RP0=1, select bank1
  8673  16F1  1303               	bcf	3,6	;RP1=0, select bank1
  8674  16F2  0860               	movf	_centenasp2^(0+128),w
  8675  16F3  3E30               	addlw	48
  8676  16F4  1283               	bcf	3,5	;RP0=0, select bank0
  8677  16F5  1303               	bcf	3,6	;RP1=0, select bank0
  8678  16F6  0099               	movwf	25	;volatile
  8679  16F7  2EB2               	goto	i1l3105
  8680  16F8                     i1l3135:
  8681                           
  8682                           ;C:/MPlab_Digital2/Digital_2/Proyecto3Digital2.X/main.c: 250: void temp_pos (void){
  8683  16F8  1683               	bsf	3,5	;RP0=1, select bank1
  8684  16F9  1303               	bcf	3,6	;RP1=0, select bank1
  8685  16FA  0861               	movf	_decenasp2^(0+128),w
  8686  16FB  3E30               	addlw	48
  8687  16FC  1283               	bcf	3,5	;RP0=0, select bank0
  8688  16FD  1303               	bcf	3,6	;RP1=0, select bank0
  8689  16FE  0099               	movwf	25	;volatile
  8690  16FF  2EB2               	goto	i1l3105
  8691  1700                     i1l3139:
  8692                           
  8693                           ;C:/MPlab_Digital2/Digital_2/Proyecto3Digital2.X/main.c: 254:         decenasp2 = (((gra
      +                          dospos-(centenasp2*100)))/10);
  8694  1700  1683               	bsf	3,5	;RP0=1, select bank1
  8695  1701  1303               	bcf	3,6	;RP1=0, select bank1
  8696  1702  0862               	movf	_unidadesp2^(0+128),w
  8697  1703  3E30               	addlw	48
  8698  1704  1283               	bcf	3,5	;RP0=0, select bank0
  8699  1705  1303               	bcf	3,6	;RP1=0, select bank0
  8700  1706  0099               	movwf	25	;volatile
  8701  1707  2EB2               	goto	i1l3105
  8702  1708                     i1l3147:
  8703                           
  8704                           ;C:/MPlab_Digital2/Digital_2/Proyecto3Digital2.X/main.c: 262:         correccion();
  8705  1708  3064               	movlw	100
  8706  1709  00F0               	movwf	i1___awdiv@divisor
  8707  170A  3000               	movlw	0
  8708  170B  00F1               	movwf	i1___awdiv@divisor+1
  8709  170C  1683               	bsf	3,5	;RP0=1, select bank1
  8710  170D  1303               	bcf	3,6	;RP1=0, select bank1
  8711  170E  0866               	movf	_esclavo2^(0+128),w
  8712  170F  1283               	bcf	3,5	;RP0=0, select bank0
  8713  1710  1303               	bcf	3,6	;RP1=0, select bank0
  8714  1711  00A0               	movwf	??_envio
  8715  1712  01A1               	clrf	??_envio+1
  8716  1713  0820               	movf	??_envio,w
  8717  1714  00F2               	movwf	i1___awdiv@dividend
  8718  1715  0821               	movf	??_envio+1,w
  8719  1716  00F3               	movwf	i1___awdiv@dividend+1
  8720  1717  160A  118A  2431  160A  118A  	fcall	i1___awdiv
  8721  171C  0870               	movf	?i1___awdiv,w
  8722  171D  3E30               	addlw	48
  8723  171E  1283               	bcf	3,5	;RP0=0, select bank0
  8724  171F  1303               	bcf	3,6	;RP1=0, select bank0
  8725  1720  0099               	movwf	25	;volatile
  8726  1721  2EB2               	goto	i1l3105
  8727  1722                     i1l3151:
  8728                           
  8729                           ;C:/MPlab_Digital2/Digital_2/Proyecto3Digital2.X/main.c: 266: void correccion(void){
  8730  1722  3064               	movlw	100
  8731  1723  00F0               	movwf	i1___awdiv@divisor
  8732  1724  3000               	movlw	0
  8733  1725  00F1               	movwf	i1___awdiv@divisor+1
  8734  1726  1683               	bsf	3,5	;RP0=1, select bank1
  8735  1727  1303               	bcf	3,6	;RP1=0, select bank1
  8736  1728  0866               	movf	_esclavo2^(0+128),w
  8737  1729  1283               	bcf	3,5	;RP0=0, select bank0
  8738  172A  1303               	bcf	3,6	;RP1=0, select bank0
  8739  172B  00A0               	movwf	??_envio
  8740  172C  01A1               	clrf	??_envio+1
  8741  172D  0820               	movf	??_envio,w
  8742  172E  00F2               	movwf	i1___awdiv@dividend
  8743  172F  0821               	movf	??_envio+1,w
  8744  1730  00F3               	movwf	i1___awdiv@dividend+1
  8745  1731  160A  118A  2431  160A  118A  	fcall	i1___awdiv
  8746  1736  0871               	movf	?i1___awdiv+1,w
  8747  1737  00F9               	movwf	i1___wmul@multiplier+1
  8748  1738  0870               	movf	?i1___awdiv,w
  8749  1739  00F8               	movwf	i1___wmul@multiplier
  8750  173A  309C               	movlw	156
  8751  173B  00FA               	movwf	i1___wmul@multiplicand
  8752  173C  30FF               	movlw	255
  8753  173D  00FB               	movwf	i1___wmul@multiplicand+1
  8754  173E  160A  118A  2200  160A  118A  	fcall	i1___wmul
  8755  1743  1683               	bsf	3,5	;RP0=1, select bank1
  8756  1744  1303               	bcf	3,6	;RP1=0, select bank1
  8757  1745  0866               	movf	_esclavo2^(0+128),w
  8758  1746  0778               	addwf	?i1___wmul,w
  8759  1747  1283               	bcf	3,5	;RP0=0, select bank0
  8760  1748  1303               	bcf	3,6	;RP1=0, select bank0
  8761  1749  00A5               	movwf	_envio$1254
  8762  174A  0879               	movf	?i1___wmul+1,w
  8763  174B  1803               	skipnc
  8764  174C  0A79               	incf	?i1___wmul+1,w
  8765  174D  00A6               	movwf	_envio$1254+1
  8766                           
  8767                           ;C:/MPlab_Digital2/Digital_2/Proyecto3Digital2.X/main.c: 266: void correccion(void){
  8768  174E  300A               	movlw	10
  8769  174F  00F0               	movwf	i1___awdiv@divisor
  8770  1750  3000               	movlw	0
  8771  1751  00F1               	movwf	i1___awdiv@divisor+1
  8772  1752  0826               	movf	_envio$1254+1,w
  8773  1753  00F3               	movwf	i1___awdiv@dividend+1
  8774  1754  0825               	movf	_envio$1254,w
  8775  1755  00F2               	movwf	i1___awdiv@dividend
  8776  1756  160A  118A  2431  160A  118A  	fcall	i1___awdiv
  8777  175B  0870               	movf	?i1___awdiv,w
  8778  175C  3E30               	addlw	48
  8779  175D  1283               	bcf	3,5	;RP0=0, select bank0
  8780  175E  1303               	bcf	3,6	;RP1=0, select bank0
  8781  175F  0099               	movwf	25	;volatile
  8782  1760  2EB2               	goto	i1l3105
  8783  1761                     i1l3155:
  8784                           
  8785                           ;C:/MPlab_Digital2/Digital_2/Proyecto3Digital2.X/main.c: 270:     }
  8786  1761  3064               	movlw	100
  8787  1762  00F0               	movwf	i1___awdiv@divisor
  8788  1763  3000               	movlw	0
  8789  1764  00F1               	movwf	i1___awdiv@divisor+1
  8790  1765  1683               	bsf	3,5	;RP0=1, select bank1
  8791  1766  1303               	bcf	3,6	;RP1=0, select bank1
  8792  1767  0866               	movf	_esclavo2^(0+128),w
  8793  1768  1283               	bcf	3,5	;RP0=0, select bank0
  8794  1769  1303               	bcf	3,6	;RP1=0, select bank0
  8795  176A  00A0               	movwf	??_envio
  8796  176B  01A1               	clrf	??_envio+1
  8797  176C  0820               	movf	??_envio,w
  8798  176D  00F2               	movwf	i1___awdiv@dividend
  8799  176E  0821               	movf	??_envio+1,w
  8800  176F  00F3               	movwf	i1___awdiv@dividend+1
  8801  1770  160A  118A  2431  160A  118A  	fcall	i1___awdiv
  8802  1775  0871               	movf	?i1___awdiv+1,w
  8803  1776  00F9               	movwf	i1___wmul@multiplier+1
  8804  1777  0870               	movf	?i1___awdiv,w
  8805  1778  00F8               	movwf	i1___wmul@multiplier
  8806  1779  309C               	movlw	156
  8807  177A  00FA               	movwf	i1___wmul@multiplicand
  8808  177B  30FF               	movlw	255
  8809  177C  00FB               	movwf	i1___wmul@multiplicand+1
  8810  177D  160A  118A  2200  160A  118A  	fcall	i1___wmul
  8811  1782  1683               	bsf	3,5	;RP0=1, select bank1
  8812  1783  1303               	bcf	3,6	;RP1=0, select bank1
  8813  1784  0866               	movf	_esclavo2^(0+128),w
  8814  1785  0778               	addwf	?i1___wmul,w
  8815  1786  1283               	bcf	3,5	;RP0=0, select bank0
  8816  1787  1303               	bcf	3,6	;RP1=0, select bank0
  8817  1788  00A5               	movwf	_envio$1254
  8818  1789  0879               	movf	?i1___wmul+1,w
  8819  178A  1803               	skipnc
  8820  178B  0A79               	incf	?i1___wmul+1,w
  8821  178C  00A6               	movwf	_envio$1254+1
  8822                           
  8823                           ;C:/MPlab_Digital2/Digital_2/Proyecto3Digital2.X/main.c: 270:     }
  8824  178D  300A               	movlw	10
  8825  178E  00F0               	movwf	i1___awdiv@divisor
  8826  178F  3000               	movlw	0
  8827  1790  00F1               	movwf	i1___awdiv@divisor+1
  8828  1791  0826               	movf	_envio$1254+1,w
  8829  1792  00F3               	movwf	i1___awdiv@dividend+1
  8830  1793  0825               	movf	_envio$1254,w
  8831  1794  00F2               	movwf	i1___awdiv@dividend
  8832  1795  160A  118A  2431  160A  118A  	fcall	i1___awdiv
  8833  179A  0870               	movf	?i1___awdiv,w
  8834  179B  1283               	bcf	3,5	;RP0=0, select bank0
  8835  179C  1303               	bcf	3,6	;RP1=0, select bank0
  8836  179D  00A0               	movwf	??_envio
  8837  179E  0871               	movf	?i1___awdiv+1,w
  8838  179F  00A1               	movwf	??_envio+1
  8839  17A0  3064               	movlw	100
  8840  17A1  00F0               	movwf	i1___awdiv@divisor
  8841  17A2  3000               	movlw	0
  8842  17A3  00F1               	movwf	i1___awdiv@divisor+1
  8843  17A4  1683               	bsf	3,5	;RP0=1, select bank1
  8844  17A5  1303               	bcf	3,6	;RP1=0, select bank1
  8845  17A6  0866               	movf	_esclavo2^(0+128),w
  8846  17A7  1283               	bcf	3,5	;RP0=0, select bank0
  8847  17A8  1303               	bcf	3,6	;RP1=0, select bank0
  8848  17A9  00A2               	movwf	??_envio+2
  8849  17AA  01A3               	clrf	??_envio+3
  8850  17AB  0822               	movf	??_envio+2,w
  8851  17AC  00F2               	movwf	i1___awdiv@dividend
  8852  17AD  0823               	movf	??_envio+3,w
  8853  17AE  00F3               	movwf	i1___awdiv@dividend+1
  8854  17AF  160A  118A  2431  160A  118A  	fcall	i1___awdiv
  8855  17B4  0870               	movf	?i1___awdiv,w
  8856  17B5  3AFF               	xorlw	255
  8857  17B6  3E01               	addlw	1
  8858  17B7  1283               	bcf	3,5	;RP0=0, select bank0
  8859  17B8  1303               	bcf	3,6	;RP1=0, select bank0
  8860  17B9  00A4               	movwf	??_envio+4
  8861  17BA  0820               	movf	??_envio,w
  8862  17BB  02A4               	subwf	??_envio+4,f
  8863  17BC  1683               	bsf	3,5	;RP0=1, select bank1
  8864  17BD  1303               	bcf	3,6	;RP1=0, select bank1
  8865  17BE  0866               	movf	_esclavo2^(0+128),w
  8866  17BF  1283               	bcf	3,5	;RP0=0, select bank0
  8867  17C0  1303               	bcf	3,6	;RP1=0, select bank0
  8868  17C1  0724               	addwf	??_envio+4,w
  8869  17C2  3E30               	addlw	48
  8870  17C3  0099               	movwf	25	;volatile
  8871  17C4  2EB2               	goto	i1l3105
  8872  17C5                     i1l3159:
  8873  17C5  300D               	movlw	13
  8874  17C6  0099               	movwf	25	;volatile
  8875  17C7                     i1l3161:
  8876  17C7  01E1               	clrf	_var_envio
  8877  17C8  2FFF               	goto	i1l212
  8878  17C9                     i1l3165:
  8879  17C9  1283               	bcf	3,5	;RP0=0, select bank0
  8880  17CA  1303               	bcf	3,6	;RP1=0, select bank0
  8881  17CB  0861               	movf	_var_envio,w
  8882  17CC  00A0               	movwf	??_envio
  8883  17CD  01A1               	clrf	??_envio+1
  8884                           
  8885                           ; Switch on 2 bytes has been partitioned into a top level switch of size 1, and 1 sub-sw
      +                          itches
  8886                           ; Switch size 1, requested type "simple"
  8887                           ; Number of cases is 1, Range of values is 0 to 0
  8888                           ; switch strategies available:
  8889                           ; Name         Instructions Cycles
  8890                           ; simple_byte            4     3 (average)
  8891                           ; direct_byte           11     8 (fixed)
  8892                           ; jumptable            260     6 (fixed)
  8893                           ;	Chosen strategy is simple_byte
  8894  17CE  0821               	movf	??_envio+1,w
  8895  17CF  3A00               	xorlw	0	; case 0
  8896  17D0  1903               	skipnz
  8897  17D1  2FD3               	goto	i1l4045
  8898  17D2  2FFF               	goto	i1l212
  8899  17D3                     i1l4045:
  8900                           
  8901                           ; Switch size 1, requested type "simple"
  8902                           ; Number of cases is 14, Range of values is 0 to 13
  8903                           ; switch strategies available:
  8904                           ; Name         Instructions Cycles
  8905                           ; simple_byte           43    22 (average)
  8906                           ; direct_byte           50     8 (fixed)
  8907                           ; jumptable            260     6 (fixed)
  8908                           ;	Chosen strategy is simple_byte
  8909  17D3  0820               	movf	??_envio,w
  8910  17D4  3A00               	xorlw	0	; case 0
  8911  17D5  1903               	skipnz
  8912  17D6  2E9B               	goto	i1l3103
  8913  17D7  3A01               	xorlw	1	; case 1
  8914  17D8  1903               	skipnz
  8915  17D9  2EB9               	goto	i1l3107
  8916  17DA  3A03               	xorlw	3	; case 2
  8917  17DB  1903               	skipnz
  8918  17DC  2EC7               	goto	i1l3111
  8919  17DD  3A01               	xorlw	1	; case 3
  8920  17DE  1903               	skipnz
  8921  17DF  2ECF               	goto	i1l3115
  8922  17E0  3A07               	xorlw	7	; case 4
  8923  17E1  1903               	skipnz
  8924  17E2  2ED7               	goto	i1l3119
  8925  17E3  3A01               	xorlw	1	; case 5
  8926  17E4  1903               	skipnz
  8927  17E5  2EDA               	goto	i1l3123
  8928  17E6  3A03               	xorlw	3	; case 6
  8929  17E7  1903               	skipnz
  8930  17E8  2EF0               	goto	i1l3131
  8931  17E9  3A01               	xorlw	1	; case 7
  8932  17EA  1903               	skipnz
  8933  17EB  2EF8               	goto	i1l3135
  8934  17EC  3A0F               	xorlw	15	; case 8
  8935  17ED  1903               	skipnz
  8936  17EE  2F00               	goto	i1l3139
  8937  17EF  3A01               	xorlw	1	; case 9
  8938  17F0  1903               	skipnz
  8939  17F1  2ED7               	goto	i1l3119
  8940  17F2  3A03               	xorlw	3	; case 10
  8941  17F3  1903               	skipnz
  8942  17F4  2F08               	goto	i1l3147
  8943  17F5  3A01               	xorlw	1	; case 11
  8944  17F6  1903               	skipnz
  8945  17F7  2F22               	goto	i1l3151
  8946  17F8  3A07               	xorlw	7	; case 12
  8947  17F9  1903               	skipnz
  8948  17FA  2F61               	goto	i1l3155
  8949  17FB  3A01               	xorlw	1	; case 13
  8950  17FC  1903               	skipnz
  8951  17FD  2FC5               	goto	i1l3159
  8952  17FE  2FFF               	goto	i1l212
  8953  17FF                     i1l212:
  8954  17FF  0008               	return
  8955  1800                     __end_of_envio:
  8956                           
  8957                           	psect	text31
  8958  1200                     __ptext31:	
  8959 ;; *************** function i1___wmul *****************
  8960 ;; Defined at:
  8961 ;;		line 15 in file "C:\Program Files\Microchip\xc8\v2.20\pic\sources\c90\common\Umul16.c"
  8962 ;; Parameters:    Size  Location     Type
  8963 ;;  multiplier      2    8[COMMON] unsigned int 
  8964 ;;  multiplicand    2   10[COMMON] unsigned int 
  8965 ;; Auto vars:     Size  Location     Type
  8966 ;;  product         2   12[COMMON] unsigned int 
  8967 ;; Return value:  Size  Location     Type
  8968 ;;                  2    8[COMMON] unsigned int 
  8969 ;; Registers used:
  8970 ;;		wreg, status,2, status,0
  8971 ;; Tracked objects:
  8972 ;;		On entry : 0/0
  8973 ;;		On exit  : 0/0
  8974 ;;		Unchanged: 0/0
  8975 ;; Data sizes:     COMMON   BANK0   BANK1   BANK3   BANK2
  8976 ;;      Params:         4       0       0       0       0
  8977 ;;      Locals:         2       0       0       0       0
  8978 ;;      Temps:          0       0       0       0       0
  8979 ;;      Totals:         6       0       0       0       0
  8980 ;;Total ram usage:        6 bytes
  8981 ;; Hardware stack levels used:    1
  8982 ;; This function calls:
  8983 ;;		Nothing
  8984 ;; This function is called by:
  8985 ;;		_envio
  8986 ;; This function uses a non-reentrant model
  8987 ;;
  8988                           
  8989                           
  8990                           ;psect for function i1___wmul
  8991  1200                     i1___wmul:
  8992  1200                     i1l3021:	
  8993                           ;incstack = 0
  8994                           ; Regs used in i1___wmul: [wreg+status,2+status,0]
  8995                           
  8996  1200  01FC               	clrf	i1___wmul@product
  8997  1201  01FD               	clrf	i1___wmul@product+1
  8998  1202                     i1l3023:
  8999  1202  1C78               	btfss	i1___wmul@multiplier,0
  9000  1203  2A05               	goto	u356_21
  9001  1204  2A06               	goto	u356_20
  9002  1205                     u356_21:
  9003  1205  2A0C               	goto	i1l379
  9004  1206                     u356_20:
  9005  1206                     i1l3025:
  9006  1206  087A               	movf	i1___wmul@multiplicand,w
  9007  1207  07FC               	addwf	i1___wmul@product,f
  9008  1208  1803               	skipnc
  9009  1209  0AFD               	incf	i1___wmul@product+1,f
  9010  120A  087B               	movf	i1___wmul@multiplicand+1,w
  9011  120B  07FD               	addwf	i1___wmul@product+1,f
  9012  120C                     i1l379:
  9013  120C  3001               	movlw	1
  9014  120D                     u357_25:
  9015  120D  1003               	clrc
  9016  120E  0DFA               	rlf	i1___wmul@multiplicand,f
  9017  120F  0DFB               	rlf	i1___wmul@multiplicand+1,f
  9018  1210  3EFF               	addlw	-1
  9019  1211  1D03               	skipz
  9020  1212  2A0D               	goto	u357_25
  9021  1213                     i1l3027:
  9022  1213  3001               	movlw	1
  9023  1214                     u358_25:
  9024  1214  1003               	clrc
  9025  1215  0CF9               	rrf	i1___wmul@multiplier+1,f
  9026  1216  0CF8               	rrf	i1___wmul@multiplier,f
  9027  1217  3EFF               	addlw	-1
  9028  1218  1D03               	skipz
  9029  1219  2A14               	goto	u358_25
  9030  121A                     i1l3029:
  9031  121A  0878               	movf	i1___wmul@multiplier,w
  9032  121B  0479               	iorwf	i1___wmul@multiplier+1,w
  9033  121C  1D03               	btfss	3,2
  9034  121D  2A1F               	goto	u359_21
  9035  121E  2A20               	goto	u359_20
  9036  121F                     u359_21:
  9037  121F  2A02               	goto	i1l3023
  9038  1220                     u359_20:
  9039  1220                     i1l3031:
  9040  1220  087D               	movf	i1___wmul@product+1,w
  9041  1221  00F9               	movwf	?i1___wmul+1
  9042  1222  087C               	movf	i1___wmul@product,w
  9043  1223  00F8               	movwf	?i1___wmul
  9044  1224                     i1l381:
  9045  1224  0008               	return
  9046  1225                     __end_ofi1___wmul:
  9047                           
  9048                           	psect	text32
  9049  1431                     __ptext32:	
  9050 ;; *************** function i1___awdiv *****************
  9051 ;; Defined at:
  9052 ;;		line 5 in file "C:\Program Files\Microchip\xc8\v2.20\pic\sources\c90\common\awdiv.c"
  9053 ;; Parameters:    Size  Location     Type
  9054 ;;  divisor         2    0[COMMON] int 
  9055 ;;  dividend        2    2[COMMON] int 
  9056 ;; Auto vars:     Size  Location     Type
  9057 ;;  quotient        2    6[COMMON] int 
  9058 ;;  sign            1    5[COMMON] unsigned char 
  9059 ;;  counter         1    4[COMMON] unsigned char 
  9060 ;; Return value:  Size  Location     Type
  9061 ;;                  2    0[COMMON] int 
  9062 ;; Registers used:
  9063 ;;		wreg, status,2, status,0, btemp+1
  9064 ;; Tracked objects:
  9065 ;;		On entry : 0/0
  9066 ;;		On exit  : 0/0
  9067 ;;		Unchanged: 0/0
  9068 ;; Data sizes:     COMMON   BANK0   BANK1   BANK3   BANK2
  9069 ;;      Params:         4       0       0       0       0
  9070 ;;      Locals:         4       0       0       0       0
  9071 ;;      Temps:          0       0       0       0       0
  9072 ;;      Totals:         8       0       0       0       0
  9073 ;;Total ram usage:        8 bytes
  9074 ;; Hardware stack levels used:    1
  9075 ;; This function calls:
  9076 ;;		Nothing
  9077 ;; This function is called by:
  9078 ;;		_envio
  9079 ;; This function uses a non-reentrant model
  9080 ;;
  9081                           
  9082                           
  9083                           ;psect for function i1___awdiv
  9084  1431                     i1___awdiv:
  9085  1431                     i1l3035:	
  9086                           ;incstack = 0
  9087                           ; Regs used in i1___awdiv: [wreg+status,2+status,0+btemp+1]
  9088                           
  9089  1431  01F5               	clrf	i1___awdiv@sign
  9090  1432                     i1l3037:
  9091  1432  1FF1               	btfss	i1___awdiv@divisor+1,7
  9092  1433  2C35               	goto	u360_21
  9093  1434  2C36               	goto	u360_20
  9094  1435                     u360_21:
  9095  1435  2C3D               	goto	i1l3043
  9096  1436                     u360_20:
  9097  1436                     i1l3039:
  9098  1436  09F0               	comf	i1___awdiv@divisor,f
  9099  1437  09F1               	comf	i1___awdiv@divisor+1,f
  9100  1438  0AF0               	incf	i1___awdiv@divisor,f
  9101  1439  1903               	skipnz
  9102  143A  0AF1               	incf	i1___awdiv@divisor+1,f
  9103  143B                     i1l3041:
  9104  143B  01F5               	clrf	i1___awdiv@sign
  9105  143C  0AF5               	incf	i1___awdiv@sign,f
  9106  143D                     i1l3043:
  9107  143D  1FF3               	btfss	i1___awdiv@dividend+1,7
  9108  143E  2C40               	goto	u361_21
  9109  143F  2C41               	goto	u361_20
  9110  1440                     u361_21:
  9111  1440  2C4A               	goto	i1l3049
  9112  1441                     u361_20:
  9113  1441                     i1l3045:
  9114  1441  09F2               	comf	i1___awdiv@dividend,f
  9115  1442  09F3               	comf	i1___awdiv@dividend+1,f
  9116  1443  0AF2               	incf	i1___awdiv@dividend,f
  9117  1444  1903               	skipnz
  9118  1445  0AF3               	incf	i1___awdiv@dividend+1,f
  9119  1446                     i1l3047:
  9120  1446  3001               	movlw	1
  9121  1447  00FF               	movwf	btemp+1
  9122  1448  087F               	movf	btemp+1,w
  9123  1449  06F5               	xorwf	i1___awdiv@sign,f
  9124  144A                     i1l3049:
  9125  144A  01F6               	clrf	i1___awdiv@quotient
  9126  144B  01F7               	clrf	i1___awdiv@quotient+1
  9127  144C                     i1l3051:
  9128  144C  0870               	movf	i1___awdiv@divisor,w
  9129  144D  0471               	iorwf	i1___awdiv@divisor+1,w
  9130  144E  1903               	btfsc	3,2
  9131  144F  2C51               	goto	u362_21
  9132  1450  2C52               	goto	u362_20
  9133  1451                     u362_21:
  9134  1451  2C89               	goto	i1l3071
  9135  1452                     u362_20:
  9136  1452                     i1l3053:
  9137  1452  01F4               	clrf	i1___awdiv@counter
  9138  1453  0AF4               	incf	i1___awdiv@counter,f
  9139  1454  2C60               	goto	i1l3059
  9140  1455                     i1l3055:
  9141  1455  3001               	movlw	1
  9142  1456                     u363_25:
  9143  1456  1003               	clrc
  9144  1457  0DF0               	rlf	i1___awdiv@divisor,f
  9145  1458  0DF1               	rlf	i1___awdiv@divisor+1,f
  9146  1459  3EFF               	addlw	-1
  9147  145A  1D03               	skipz
  9148  145B  2C56               	goto	u363_25
  9149  145C                     i1l3057:
  9150  145C  3001               	movlw	1
  9151  145D  00FF               	movwf	btemp+1
  9152  145E  087F               	movf	btemp+1,w
  9153  145F  07F4               	addwf	i1___awdiv@counter,f
  9154  1460                     i1l3059:
  9155  1460  1FF1               	btfss	i1___awdiv@divisor+1,7
  9156  1461  2C63               	goto	u364_21
  9157  1462  2C64               	goto	u364_20
  9158  1463                     u364_21:
  9159  1463  2C55               	goto	i1l3055
  9160  1464                     u364_20:
  9161  1464                     i1l3061:
  9162  1464  3001               	movlw	1
  9163  1465                     u365_25:
  9164  1465  1003               	clrc
  9165  1466  0DF6               	rlf	i1___awdiv@quotient,f
  9166  1467  0DF7               	rlf	i1___awdiv@quotient+1,f
  9167  1468  3EFF               	addlw	-1
  9168  1469  1D03               	skipz
  9169  146A  2C65               	goto	u365_25
  9170  146B  0871               	movf	i1___awdiv@divisor+1,w
  9171  146C  0273               	subwf	i1___awdiv@dividend+1,w
  9172  146D  1D03               	skipz
  9173  146E  2C71               	goto	u366_25
  9174  146F  0870               	movf	i1___awdiv@divisor,w
  9175  1470  0272               	subwf	i1___awdiv@dividend,w
  9176  1471                     u366_25:
  9177  1471  1C03               	skipc
  9178  1472  2C74               	goto	u366_21
  9179  1473  2C75               	goto	u366_20
  9180  1474                     u366_21:
  9181  1474  2C7C               	goto	i1l3067
  9182  1475                     u366_20:
  9183  1475                     i1l3063:
  9184  1475  0870               	movf	i1___awdiv@divisor,w
  9185  1476  02F2               	subwf	i1___awdiv@dividend,f
  9186  1477  0871               	movf	i1___awdiv@divisor+1,w
  9187  1478  1C03               	skipc
  9188  1479  03F3               	decf	i1___awdiv@dividend+1,f
  9189  147A  02F3               	subwf	i1___awdiv@dividend+1,f
  9190  147B                     i1l3065:
  9191  147B  1476               	bsf	i1___awdiv@quotient,0
  9192  147C                     i1l3067:
  9193  147C  3001               	movlw	1
  9194  147D                     u367_25:
  9195  147D  1003               	clrc
  9196  147E  0CF1               	rrf	i1___awdiv@divisor+1,f
  9197  147F  0CF0               	rrf	i1___awdiv@divisor,f
  9198  1480  3EFF               	addlw	-1
  9199  1481  1D03               	skipz
  9200  1482  2C7D               	goto	u367_25
  9201  1483                     i1l3069:
  9202  1483  3001               	movlw	1
  9203  1484  02F4               	subwf	i1___awdiv@counter,f
  9204  1485  1D03               	btfss	3,2
  9205  1486  2C88               	goto	u368_21
  9206  1487  2C89               	goto	u368_20
  9207  1488                     u368_21:
  9208  1488  2C64               	goto	i1l3061
  9209  1489                     u368_20:
  9210  1489                     i1l3071:
  9211  1489  0875               	movf	i1___awdiv@sign,w
  9212  148A  1903               	btfsc	3,2
  9213  148B  2C8D               	goto	u369_21
  9214  148C  2C8E               	goto	u369_20
  9215  148D                     u369_21:
  9216  148D  2C93               	goto	i1l3075
  9217  148E                     u369_20:
  9218  148E                     i1l3073:
  9219  148E  09F6               	comf	i1___awdiv@quotient,f
  9220  148F  09F7               	comf	i1___awdiv@quotient+1,f
  9221  1490  0AF6               	incf	i1___awdiv@quotient,f
  9222  1491  1903               	skipnz
  9223  1492  0AF7               	incf	i1___awdiv@quotient+1,f
  9224  1493                     i1l3075:
  9225  1493  0877               	movf	i1___awdiv@quotient+1,w
  9226  1494  00F1               	movwf	?i1___awdiv+1
  9227  1495  0876               	movf	i1___awdiv@quotient,w
  9228  1496  00F0               	movwf	?i1___awdiv
  9229  1497                     i1l532:
  9230  1497  0008               	return
  9231  1498                     __end_ofi1___awdiv:
  9232                           
  9233                           	psect	text33
  9234  15BD                     __ptext33:	
  9235 ;; *************** function _tabla_hex *****************
  9236 ;; Defined at:
  9237 ;;		line 11 in file "C:/MPlab_Digital2/Digital_2/Proyecto3Digital2.X/TablaACSII_HEX.c"
  9238 ;; Parameters:    Size  Location     Type
  9239 ;;  selector        1    wreg     unsigned char 
  9240 ;;  port            2    0[COMMON] PTR volatile unsigned ch
  9241 ;;		 -> TXREG(1), 
  9242 ;; Auto vars:     Size  Location     Type
  9243 ;;  selector        1    4[COMMON] unsigned char 
  9244 ;; Return value:  Size  Location     Type
  9245 ;;                  1    wreg      void 
  9246 ;; Registers used:
  9247 ;;		wreg, fsr0l, fsr0h, status,2, status,0, btemp+1
  9248 ;; Tracked objects:
  9249 ;;		On entry : 0/0
  9250 ;;		On exit  : 0/0
  9251 ;;		Unchanged: 0/0
  9252 ;; Data sizes:     COMMON   BANK0   BANK1   BANK3   BANK2
  9253 ;;      Params:         2       0       0       0       0
  9254 ;;      Locals:         1       0       0       0       0
  9255 ;;      Temps:          2       0       0       0       0
  9256 ;;      Totals:         5       0       0       0       0
  9257 ;;Total ram usage:        5 bytes
  9258 ;; Hardware stack levels used:    1
  9259 ;; This function calls:
  9260 ;;		Nothing
  9261 ;; This function is called by:
  9262 ;;		_envio
  9263 ;; This function uses a non-reentrant model
  9264 ;;
  9265                           
  9266                           
  9267                           ;psect for function _tabla_hex
  9268  15BD                     _tabla_hex:
  9269                           
  9270                           ;incstack = 0
  9271                           ; Regs used in _tabla_hex: [wreg-fsr0h+status,2+status,0+btemp+1]
  9272                           ;tabla_hex@selector stored from wreg
  9273  15BD  00F4               	movwf	tabla_hex@selector
  9274  15BE                     i1l2303:
  9275                           
  9276                           ;C:/MPlab_Digital2/Digital_2/Proyecto3Digital2.X/TablaACSII_HEX.c: 12: switch (selector)
      +                          {
  9277  15BE  2E5F               	goto	i1l2341
  9278  15BF                     i1l2305:
  9279                           
  9280                           ;C:/MPlab_Digital2/Digital_2/Proyecto3Digital2.X/TablaACSII_HEX.c: 14:             *port
      +                           = 48;
  9281  15BF  3030               	movlw	48
  9282  15C0  00FF               	movwf	btemp+1
  9283  15C1  0870               	movf	tabla_hex@port,w
  9284  15C2  0084               	movwf	4
  9285  15C3  1783               	bsf	3,7
  9286  15C4  1C71               	btfss	tabla_hex@port+1,0
  9287  15C5  1383               	bcf	3,7
  9288  15C6  087F               	movf	btemp+1,w
  9289  15C7  0080               	movwf	0
  9290                           
  9291                           ;C:/MPlab_Digital2/Digital_2/Proyecto3Digital2.X/TablaACSII_HEX.c: 15:             break
      +                          ;
  9292  15C8  2E99               	goto	i1l246
  9293  15C9                     i1l2307:
  9294                           
  9295                           ;C:/MPlab_Digital2/Digital_2/Proyecto3Digital2.X/TablaACSII_HEX.c: 17:             *port
      +                           = 49;
  9296  15C9  3031               	movlw	49
  9297  15CA  00FF               	movwf	btemp+1
  9298  15CB  0870               	movf	tabla_hex@port,w
  9299  15CC  0084               	movwf	4
  9300  15CD  1783               	bsf	3,7
  9301  15CE  1C71               	btfss	tabla_hex@port+1,0
  9302  15CF  1383               	bcf	3,7
  9303  15D0  087F               	movf	btemp+1,w
  9304  15D1  0080               	movwf	0
  9305                           
  9306                           ;C:/MPlab_Digital2/Digital_2/Proyecto3Digital2.X/TablaACSII_HEX.c: 18:             break
      +                          ;
  9307  15D2  2E99               	goto	i1l246
  9308  15D3                     i1l2309:
  9309                           
  9310                           ;C:/MPlab_Digital2/Digital_2/Proyecto3Digital2.X/TablaACSII_HEX.c: 20:             *port
      +                           = 50;
  9311  15D3  3032               	movlw	50
  9312  15D4  00FF               	movwf	btemp+1
  9313  15D5  0870               	movf	tabla_hex@port,w
  9314  15D6  0084               	movwf	4
  9315  15D7  1783               	bsf	3,7
  9316  15D8  1C71               	btfss	tabla_hex@port+1,0
  9317  15D9  1383               	bcf	3,7
  9318  15DA  087F               	movf	btemp+1,w
  9319  15DB  0080               	movwf	0
  9320                           
  9321                           ;C:/MPlab_Digital2/Digital_2/Proyecto3Digital2.X/TablaACSII_HEX.c: 21:             break
      +                          ;
  9322  15DC  2E99               	goto	i1l246
  9323  15DD                     i1l2311:
  9324                           
  9325                           ;C:/MPlab_Digital2/Digital_2/Proyecto3Digital2.X/TablaACSII_HEX.c: 23:             *port
      +                           = 51;
  9326  15DD  3033               	movlw	51
  9327  15DE  00FF               	movwf	btemp+1
  9328  15DF  0870               	movf	tabla_hex@port,w
  9329  15E0  0084               	movwf	4
  9330  15E1  1783               	bsf	3,7
  9331  15E2  1C71               	btfss	tabla_hex@port+1,0
  9332  15E3  1383               	bcf	3,7
  9333  15E4  087F               	movf	btemp+1,w
  9334  15E5  0080               	movwf	0
  9335                           
  9336                           ;C:/MPlab_Digital2/Digital_2/Proyecto3Digital2.X/TablaACSII_HEX.c: 24:             break
      +                          ;
  9337  15E6  2E99               	goto	i1l246
  9338  15E7                     i1l2313:
  9339                           
  9340                           ;C:/MPlab_Digital2/Digital_2/Proyecto3Digital2.X/TablaACSII_HEX.c: 26:            *port 
      +                          = 52;
  9341  15E7  3034               	movlw	52
  9342  15E8  00FF               	movwf	btemp+1
  9343  15E9  0870               	movf	tabla_hex@port,w
  9344  15EA  0084               	movwf	4
  9345  15EB  1783               	bsf	3,7
  9346  15EC  1C71               	btfss	tabla_hex@port+1,0
  9347  15ED  1383               	bcf	3,7
  9348  15EE  087F               	movf	btemp+1,w
  9349  15EF  0080               	movwf	0
  9350                           
  9351                           ;C:/MPlab_Digital2/Digital_2/Proyecto3Digital2.X/TablaACSII_HEX.c: 27:             break
      +                          ;
  9352  15F0  2E99               	goto	i1l246
  9353  15F1                     i1l2315:
  9354                           
  9355                           ;C:/MPlab_Digital2/Digital_2/Proyecto3Digital2.X/TablaACSII_HEX.c: 29:             *port
      +                           = 53;
  9356  15F1  3035               	movlw	53
  9357  15F2  00FF               	movwf	btemp+1
  9358  15F3  0870               	movf	tabla_hex@port,w
  9359  15F4  0084               	movwf	4
  9360  15F5  1783               	bsf	3,7
  9361  15F6  1C71               	btfss	tabla_hex@port+1,0
  9362  15F7  1383               	bcf	3,7
  9363  15F8  087F               	movf	btemp+1,w
  9364  15F9  0080               	movwf	0
  9365                           
  9366                           ;C:/MPlab_Digital2/Digital_2/Proyecto3Digital2.X/TablaACSII_HEX.c: 30:             break
      +                          ;
  9367  15FA  2E99               	goto	i1l246
  9368  15FB                     i1l2317:
  9369                           
  9370                           ;C:/MPlab_Digital2/Digital_2/Proyecto3Digital2.X/TablaACSII_HEX.c: 32:             *port
      +                           = 54;
  9371  15FB  3036               	movlw	54
  9372  15FC  00FF               	movwf	btemp+1
  9373  15FD  0870               	movf	tabla_hex@port,w
  9374  15FE  0084               	movwf	4
  9375  15FF  1783               	bsf	3,7
  9376  1600  1C71               	btfss	tabla_hex@port+1,0
  9377  1601  1383               	bcf	3,7
  9378  1602  087F               	movf	btemp+1,w
  9379  1603  0080               	movwf	0
  9380                           
  9381                           ;C:/MPlab_Digital2/Digital_2/Proyecto3Digital2.X/TablaACSII_HEX.c: 33:             break
      +                          ;
  9382  1604  2E99               	goto	i1l246
  9383  1605                     i1l2319:
  9384                           
  9385                           ;C:/MPlab_Digital2/Digital_2/Proyecto3Digital2.X/TablaACSII_HEX.c: 35:             *port
      +                           = 55;
  9386  1605  3037               	movlw	55
  9387  1606  00FF               	movwf	btemp+1
  9388  1607  0870               	movf	tabla_hex@port,w
  9389  1608  0084               	movwf	4
  9390  1609  1783               	bsf	3,7
  9391  160A  1C71               	btfss	tabla_hex@port+1,0
  9392  160B  1383               	bcf	3,7
  9393  160C  087F               	movf	btemp+1,w
  9394  160D  0080               	movwf	0
  9395                           
  9396                           ;C:/MPlab_Digital2/Digital_2/Proyecto3Digital2.X/TablaACSII_HEX.c: 36:             break
      +                          ;
  9397  160E  2E99               	goto	i1l246
  9398  160F                     i1l2321:
  9399                           
  9400                           ;C:/MPlab_Digital2/Digital_2/Proyecto3Digital2.X/TablaACSII_HEX.c: 38:             *port
      +                           = 56;
  9401  160F  3038               	movlw	56
  9402  1610  00FF               	movwf	btemp+1
  9403  1611  0870               	movf	tabla_hex@port,w
  9404  1612  0084               	movwf	4
  9405  1613  1783               	bsf	3,7
  9406  1614  1C71               	btfss	tabla_hex@port+1,0
  9407  1615  1383               	bcf	3,7
  9408  1616  087F               	movf	btemp+1,w
  9409  1617  0080               	movwf	0
  9410                           
  9411                           ;C:/MPlab_Digital2/Digital_2/Proyecto3Digital2.X/TablaACSII_HEX.c: 39:             break
      +                          ;
  9412  1618  2E99               	goto	i1l246
  9413  1619                     i1l2323:
  9414                           
  9415                           ;C:/MPlab_Digital2/Digital_2/Proyecto3Digital2.X/TablaACSII_HEX.c: 41:             *port
      +                           = 57;
  9416  1619  3039               	movlw	57
  9417  161A  00FF               	movwf	btemp+1
  9418  161B  0870               	movf	tabla_hex@port,w
  9419  161C  0084               	movwf	4
  9420  161D  1783               	bsf	3,7
  9421  161E  1C71               	btfss	tabla_hex@port+1,0
  9422  161F  1383               	bcf	3,7
  9423  1620  087F               	movf	btemp+1,w
  9424  1621  0080               	movwf	0
  9425                           
  9426                           ;C:/MPlab_Digital2/Digital_2/Proyecto3Digital2.X/TablaACSII_HEX.c: 42:             break
      +                          ;
  9427  1622  2E99               	goto	i1l246
  9428  1623                     i1l2325:
  9429                           
  9430                           ;C:/MPlab_Digital2/Digital_2/Proyecto3Digital2.X/TablaACSII_HEX.c: 44:             *port
      +                           = 65;
  9431  1623  3041               	movlw	65
  9432  1624  00FF               	movwf	btemp+1
  9433  1625  0870               	movf	tabla_hex@port,w
  9434  1626  0084               	movwf	4
  9435  1627  1783               	bsf	3,7
  9436  1628  1C71               	btfss	tabla_hex@port+1,0
  9437  1629  1383               	bcf	3,7
  9438  162A  087F               	movf	btemp+1,w
  9439  162B  0080               	movwf	0
  9440                           
  9441                           ;C:/MPlab_Digital2/Digital_2/Proyecto3Digital2.X/TablaACSII_HEX.c: 45:             break
      +                          ;
  9442  162C  2E99               	goto	i1l246
  9443  162D                     i1l2327:
  9444                           
  9445                           ;C:/MPlab_Digital2/Digital_2/Proyecto3Digital2.X/TablaACSII_HEX.c: 47:             *port
      +                           = 66;
  9446  162D  3042               	movlw	66
  9447  162E  00FF               	movwf	btemp+1
  9448  162F  0870               	movf	tabla_hex@port,w
  9449  1630  0084               	movwf	4
  9450  1631  1783               	bsf	3,7
  9451  1632  1C71               	btfss	tabla_hex@port+1,0
  9452  1633  1383               	bcf	3,7
  9453  1634  087F               	movf	btemp+1,w
  9454  1635  0080               	movwf	0
  9455                           
  9456                           ;C:/MPlab_Digital2/Digital_2/Proyecto3Digital2.X/TablaACSII_HEX.c: 48:             break
      +                          ;
  9457  1636  2E99               	goto	i1l246
  9458  1637                     i1l2329:
  9459                           
  9460                           ;C:/MPlab_Digital2/Digital_2/Proyecto3Digital2.X/TablaACSII_HEX.c: 50:             *port
      +                           = 67;
  9461  1637  3043               	movlw	67
  9462  1638  00FF               	movwf	btemp+1
  9463  1639  0870               	movf	tabla_hex@port,w
  9464  163A  0084               	movwf	4
  9465  163B  1783               	bsf	3,7
  9466  163C  1C71               	btfss	tabla_hex@port+1,0
  9467  163D  1383               	bcf	3,7
  9468  163E  087F               	movf	btemp+1,w
  9469  163F  0080               	movwf	0
  9470                           
  9471                           ;C:/MPlab_Digital2/Digital_2/Proyecto3Digital2.X/TablaACSII_HEX.c: 51:             break
      +                          ;
  9472  1640  2E99               	goto	i1l246
  9473  1641                     i1l2331:
  9474                           
  9475                           ;C:/MPlab_Digital2/Digital_2/Proyecto3Digital2.X/TablaACSII_HEX.c: 53:             *port
      +                           = 68;
  9476  1641  3044               	movlw	68
  9477  1642  00FF               	movwf	btemp+1
  9478  1643  0870               	movf	tabla_hex@port,w
  9479  1644  0084               	movwf	4
  9480  1645  1783               	bsf	3,7
  9481  1646  1C71               	btfss	tabla_hex@port+1,0
  9482  1647  1383               	bcf	3,7
  9483  1648  087F               	movf	btemp+1,w
  9484  1649  0080               	movwf	0
  9485                           
  9486                           ;C:/MPlab_Digital2/Digital_2/Proyecto3Digital2.X/TablaACSII_HEX.c: 54:             break
      +                          ;
  9487  164A  2E99               	goto	i1l246
  9488  164B                     i1l2333:
  9489                           
  9490                           ;C:/MPlab_Digital2/Digital_2/Proyecto3Digital2.X/TablaACSII_HEX.c: 56:             *port
      +                           = 69;
  9491  164B  3045               	movlw	69
  9492  164C  00FF               	movwf	btemp+1
  9493  164D  0870               	movf	tabla_hex@port,w
  9494  164E  0084               	movwf	4
  9495  164F  1783               	bsf	3,7
  9496  1650  1C71               	btfss	tabla_hex@port+1,0
  9497  1651  1383               	bcf	3,7
  9498  1652  087F               	movf	btemp+1,w
  9499  1653  0080               	movwf	0
  9500                           
  9501                           ;C:/MPlab_Digital2/Digital_2/Proyecto3Digital2.X/TablaACSII_HEX.c: 57:             break
      +                          ;
  9502  1654  2E99               	goto	i1l246
  9503  1655                     i1l2335:
  9504                           
  9505                           ;C:/MPlab_Digital2/Digital_2/Proyecto3Digital2.X/TablaACSII_HEX.c: 59:             *port
      +                           = 70;
  9506  1655  3046               	movlw	70
  9507  1656  00FF               	movwf	btemp+1
  9508  1657  0870               	movf	tabla_hex@port,w
  9509  1658  0084               	movwf	4
  9510  1659  1783               	bsf	3,7
  9511  165A  1C71               	btfss	tabla_hex@port+1,0
  9512  165B  1383               	bcf	3,7
  9513  165C  087F               	movf	btemp+1,w
  9514  165D  0080               	movwf	0
  9515                           
  9516                           ;C:/MPlab_Digital2/Digital_2/Proyecto3Digital2.X/TablaACSII_HEX.c: 60:             break
      +                          ;
  9517  165E  2E99               	goto	i1l246
  9518  165F                     i1l2341:
  9519  165F  0874               	movf	tabla_hex@selector,w
  9520  1660  00F2               	movwf	??_tabla_hex
  9521  1661  01F3               	clrf	??_tabla_hex+1
  9522                           
  9523                           ; Switch on 2 bytes has been partitioned into a top level switch of size 1, and 1 sub-sw
      +                          itches
  9524                           ; Switch size 1, requested type "simple"
  9525                           ; Number of cases is 1, Range of values is 0 to 0
  9526                           ; switch strategies available:
  9527                           ; Name         Instructions Cycles
  9528                           ; simple_byte            4     3 (average)
  9529                           ; direct_byte           11     8 (fixed)
  9530                           ; jumptable            260     6 (fixed)
  9531                           ;	Chosen strategy is simple_byte
  9532  1662  0873               	movf	??_tabla_hex+1,w
  9533  1663  3A00               	xorlw	0	; case 0
  9534  1664  1903               	skipnz
  9535  1665  2E67               	goto	i1l4047
  9536  1666  2DBF               	goto	i1l2305
  9537  1667                     i1l4047:
  9538                           
  9539                           ; Switch size 1, requested type "simple"
  9540                           ; Number of cases is 16, Range of values is 0 to 15
  9541                           ; switch strategies available:
  9542                           ; Name         Instructions Cycles
  9543                           ; simple_byte           49    25 (average)
  9544                           ; direct_byte           56     8 (fixed)
  9545                           ; jumptable            260     6 (fixed)
  9546                           ;	Chosen strategy is simple_byte
  9547  1667  0872               	movf	??_tabla_hex,w
  9548  1668  3A00               	xorlw	0	; case 0
  9549  1669  1903               	skipnz
  9550  166A  2DBF               	goto	i1l2305
  9551  166B  3A01               	xorlw	1	; case 1
  9552  166C  1903               	skipnz
  9553  166D  2DC9               	goto	i1l2307
  9554  166E  3A03               	xorlw	3	; case 2
  9555  166F  1903               	skipnz
  9556  1670  2DD3               	goto	i1l2309
  9557  1671  3A01               	xorlw	1	; case 3
  9558  1672  1903               	skipnz
  9559  1673  2DDD               	goto	i1l2311
  9560  1674  3A07               	xorlw	7	; case 4
  9561  1675  1903               	skipnz
  9562  1676  2DE7               	goto	i1l2313
  9563  1677  3A01               	xorlw	1	; case 5
  9564  1678  1903               	skipnz
  9565  1679  2DF1               	goto	i1l2315
  9566  167A  3A03               	xorlw	3	; case 6
  9567  167B  1903               	skipnz
  9568  167C  2DFB               	goto	i1l2317
  9569  167D  3A01               	xorlw	1	; case 7
  9570  167E  1903               	skipnz
  9571  167F  2E05               	goto	i1l2319
  9572  1680  3A0F               	xorlw	15	; case 8
  9573  1681  1903               	skipnz
  9574  1682  2E0F               	goto	i1l2321
  9575  1683  3A01               	xorlw	1	; case 9
  9576  1684  1903               	skipnz
  9577  1685  2E19               	goto	i1l2323
  9578  1686  3A03               	xorlw	3	; case 10
  9579  1687  1903               	skipnz
  9580  1688  2E23               	goto	i1l2325
  9581  1689  3A01               	xorlw	1	; case 11
  9582  168A  1903               	skipnz
  9583  168B  2E2D               	goto	i1l2327
  9584  168C  3A07               	xorlw	7	; case 12
  9585  168D  1903               	skipnz
  9586  168E  2E37               	goto	i1l2329
  9587  168F  3A01               	xorlw	1	; case 13
  9588  1690  1903               	skipnz
  9589  1691  2E41               	goto	i1l2331
  9590  1692  3A03               	xorlw	3	; case 14
  9591  1693  1903               	skipnz
  9592  1694  2E4B               	goto	i1l2333
  9593  1695  3A01               	xorlw	1	; case 15
  9594  1696  1903               	skipnz
  9595  1697  2E55               	goto	i1l2335
  9596  1698  2DBF               	goto	i1l2305
  9597  1699                     i1l246:
  9598  1699  0008               	return
  9599  169A                     __end_of_tabla_hex:
  9600  007E                     btemp	set	126	;btemp
  9601  007E                     wtemp0	set	126
  9602                           
  9603                           	psect	config
  9604                           
  9605                           ;Config register CONFIG1 @ 0x2007
  9606                           ;	Oscillator Selection bits
  9607                           ;	FOSC = INTRC_NOCLKOUT, INTOSCIO oscillator: I/O function on RA6/OSC2/CLKOUT pin, I/O f
      +                          unction on RA7/OSC1/CLKIN
  9608                           ;	Watchdog Timer Enable bit
  9609                           ;	WDTE = OFF, WDT disabled and can be enabled by SWDTEN bit of the WDTCON register
  9610                           ;	Power-up Timer Enable bit
  9611                           ;	PWRTE = OFF, PWRT disabled
  9612                           ;	RE3/MCLR pin function select bit
  9613                           ;	MCLRE = OFF, RE3/MCLR pin function is digital input, MCLR internally tied to VDD
  9614                           ;	Code Protection bit
  9615                           ;	CP = OFF, Program memory code protection is disabled
  9616                           ;	Data Code Protection bit
  9617                           ;	CPD = OFF, Data memory code protection is disabled
  9618                           ;	Brown Out Reset Selection bits
  9619                           ;	BOREN = OFF, BOR disabled
  9620                           ;	Internal External Switchover bit
  9621                           ;	IESO = OFF, Internal/External Switchover mode is disabled
  9622                           ;	Fail-Safe Clock Monitor Enabled bit
  9623                           ;	FCMEN = OFF, Fail-Safe Clock Monitor is disabled
  9624                           ;	Low Voltage Programming Enable bit
  9625                           ;	LVP = OFF, RB3 pin has digital I/O, HV on MCLR must be used for programming
  9626                           ;	In-Circuit Debugger Mode bit
  9627                           ;	DEBUG = 0x1, unprogrammed default
  9628  2007                     	org	8199
  9629  2007  20D4               	dw	8404
  9630                           
  9631                           ;Config register CONFIG2 @ 0x2008
  9632                           ;	Brown-out Reset Selection bit
  9633                           ;	BOR4V = BOR40V, Brown-out Reset set to 4.0V
  9634                           ;	Flash Program Memory Self Write Enable bits
  9635                           ;	WRT = OFF, Write protection off
  9636  2008                     	org	8200
  9637  2008  3FFF               	dw	16383

Data Sizes:
    Strings     15
    Constant    0
    Data        0
    BSS         13
    Persistent  0
    Stack       0

Auto Spaces:
    Space          Size  Autos    Used
    COMMON           14     14      14
    BANK0            80     64      69
    BANK1            80     64      72
    BANK3            96      0       0
    BANK2            96      0       0

Pointer List with Targets:

    tabla_hex@port	PTR volatile unsigned char  size(2) Largest target is 1
		 -> TXREG(SFR0[1]), 

    Lcd_Write_String@a	PTR unsigned char  size(1) Largest target is 15
		 -> STR_1(CODE[15]), 


Critical Paths under _main in COMMON

    None.

Critical Paths under _isr in COMMON

    _envio->i1___wmul
    i1___wmul->i1___awdiv

Critical Paths under _main in BANK0

    _temp_pos->___fladd
    ___xxtofl->___wmul
    ___fltol->___fladd
    ___flmul->___fladd
    ___fldiv->___xxtofl
    ___fladd->___fldiv
    _setup->_Lcd_Init
    _Lcd_Init->_Lcd_Cmd
    _mapeo->___lwdiv
    ___wmul->___awdiv
    ___lwdiv->___wmul
    ___bmul->___wmul
    _Lcd_Write_String->_Lcd_Write_Char
    _Lcd_Write_Char->_Lcd_Port
    _Lcd_Set_Cursor->_Lcd_Cmd
    _Lcd_Clear->_Lcd_Cmd
    _Lcd_Cmd->_Lcd_Port

Critical Paths under _isr in BANK0

    _isr->_envio

Critical Paths under _main in BANK1

    _main->_temp_pos
    _temp_pos->___fltol
    ___fltol->___flmul
    ___flmul->___fladd
    ___fladd->___fldiv

Critical Paths under _isr in BANK1

    None.

Critical Paths under _main in BANK3

    None.

Critical Paths under _isr in BANK3

    None.

Critical Paths under _main in BANK2

    None.

Critical Paths under _isr in BANK2

    None.

Call Graph Tables:

 ---------------------------------------------------------------------------------
 (Depth) Function   	        Calls       Base Space   Used Autos Params    Refs
 ---------------------------------------------------------------------------------
 (0) _main                                                 5     5      0   26024
                                             59 BANK1      5     5      0
                          _Lcd_Clear
                     _Lcd_Set_Cursor
                     _Lcd_Write_Char
                   _Lcd_Write_String
                              _TX_GO
                            ___awdiv
                             ___bmul
                             ___wmul
                         _correccion
                     _envio_esclavos
                              _mapeo
                              _setup
                           _temp_pos
 ---------------------------------------------------------------------------------
 (1) _temp_pos                                             2     2      0   13537
                                             57 BANK1      2     2      0
                            ___awdiv
                             ___bmul
                            ___fladd
                            ___fldiv
                            ___flmul
                            ___fltol
                             ___wmul
                           ___xxtofl
                         _correccion
 ---------------------------------------------------------------------------------
 (2) _correccion                                           0     0      0       0
 ---------------------------------------------------------------------------------
 (2) ___xxtofl                                            14    10      4     474
                                             25 BANK0     14    10      4
                             ___wmul (ARG)
 ---------------------------------------------------------------------------------
 (2) ___fltol                                             10     6      4     381
                                             47 BANK1     10     6      4
                            ___fladd (ARG)
                            ___fldiv (ARG)
                            ___flmul (ARG)
                             ___wmul (ARG)
                           ___xxtofl (ARG)
 ---------------------------------------------------------------------------------
 (2) ___flmul                                             26    18      8    2417
                                             21 BANK1     26    18      8
                          __Umul8_16
                            ___fladd (ARG)
                            ___fldiv (ARG)
                             ___wmul (ARG)
                           ___xxtofl (ARG)
 ---------------------------------------------------------------------------------
 (3) __Umul8_16                                            9     7      2     799
                                             11 BANK0      9     7      2
 ---------------------------------------------------------------------------------
 (2) ___fldiv                                             26    18      8    2043
                                             39 BANK0     13     5      8
                                              0 BANK1     13    13      0
                             ___wmul (ARG)
                           ___xxtofl (ARG)
 ---------------------------------------------------------------------------------
 (2) ___fladd                                             20    12      8    3442
                                             52 BANK0     12    12      0
                                             13 BANK1      8     0      8
                            ___fldiv (ARG)
                             ___wmul (ARG)
                           ___xxtofl (ARG)
 ---------------------------------------------------------------------------------
 (1) _setup                                                0     0      0     448
                           _Lcd_Init
                            _initOsc
                          _initUSART
                            _spiInit
 ---------------------------------------------------------------------------------
 (2) _spiInit                                              4     1      3     360
                                             11 BANK0      4     1      3
 ---------------------------------------------------------------------------------
 (2) _initUSART                                            0     0      0       0
 ---------------------------------------------------------------------------------
 (2) _initOsc                                              3     3      0      22
                                             11 BANK0      3     3      0
 ---------------------------------------------------------------------------------
 (2) _Lcd_Init                                             2     2      0      66
                                             14 BANK0      2     2      0
                            _Lcd_Cmd
                           _Lcd_Port
 ---------------------------------------------------------------------------------
 (1) _mapeo                                                4     4      0    5314
                                             32 BANK0      4     4      0
                            ___awdiv
                             ___bmul
                            ___lwdiv
                             ___wmul
 ---------------------------------------------------------------------------------
 (2) ___wmul                                               6     2      4    1508
                                             19 BANK0      6     2      4
                            ___awdiv (ARG)
 ---------------------------------------------------------------------------------
 (2) ___lwdiv                                              7     3      4     466
                                             25 BANK0      7     3      4
                             ___wmul (ARG)
 ---------------------------------------------------------------------------------
 (2) ___bmul                                               3     2      1     700
                                             25 BANK0      3     2      1
                            ___awdiv (ARG)
                             ___wmul (ARG)
 ---------------------------------------------------------------------------------
 (2) ___awdiv                                              8     4      4    2572
                                             11 BANK0      8     4      4
 ---------------------------------------------------------------------------------
 (1) _envio_esclavos                                       2     2      0       0
                                             11 BANK0      2     2      0
                            _spiRead
 ---------------------------------------------------------------------------------
 (2) _spiRead                                              0     0      0       0
                     _spiReceiveWait
 ---------------------------------------------------------------------------------
 (3) _spiReceiveWait                                       0     0      0       0
 ---------------------------------------------------------------------------------
 (1) _TX_GO                                                0     0      0       0
 ---------------------------------------------------------------------------------
 (1) _Lcd_Write_String                                     3     3      0     167
                                             13 BANK0      3     3      0
                     _Lcd_Write_Char
 ---------------------------------------------------------------------------------
 (2) _Lcd_Write_Char                                       1     1      0      44
                                             12 BANK0      1     1      0
                           _Lcd_Port
 ---------------------------------------------------------------------------------
 (1) _Lcd_Set_Cursor                                       3     2      1    1622
                                             14 BANK0      3     2      1
                            _Lcd_Cmd
 ---------------------------------------------------------------------------------
 (1) _Lcd_Clear                                            0     0      0      44
                            _Lcd_Cmd
 ---------------------------------------------------------------------------------
 (3) _Lcd_Cmd                                              2     2      0      44
                                             12 BANK0      2     2      0
                           _Lcd_Port
 ---------------------------------------------------------------------------------
 (3) _Lcd_Port                                             1     1      0      22
                                             11 BANK0      1     1      0
 ---------------------------------------------------------------------------------
 Estimated maximum stack depth 3
 ---------------------------------------------------------------------------------
 (Depth) Function   	        Calls       Base Space   Used Autos Params    Refs
 ---------------------------------------------------------------------------------
 (5) _isr                                                  4     4      0    1402
                                              7 BANK0      4     4      0
                              _envio
 ---------------------------------------------------------------------------------
 (6) _envio                                                7     7      0    1402
                                              0 BANK0      7     7      0
                          _tabla_hex
                          i1___awdiv
                           i1___wmul
 ---------------------------------------------------------------------------------
 (7) i1___wmul                                             6     2      4     196
                                              8 COMMON     6     2      4
                          i1___awdiv (ARG)
 ---------------------------------------------------------------------------------
 (7) i1___awdiv                                            8     4      4     612
                                              0 COMMON     8     4      4
 ---------------------------------------------------------------------------------
 (7) _tabla_hex                                            5     3      2     548
                                              0 COMMON     5     3      2
 ---------------------------------------------------------------------------------
 Estimated maximum stack depth 7
 ---------------------------------------------------------------------------------

 Call Graph Graphs:

 _main (ROOT)
   _Lcd_Clear
     _Lcd_Cmd
       _Lcd_Port
   _Lcd_Set_Cursor
     _Lcd_Cmd
       _Lcd_Port
   _Lcd_Write_Char
     _Lcd_Port
   _Lcd_Write_String
     _Lcd_Write_Char
       _Lcd_Port
   _TX_GO
   ___awdiv
   ___bmul
     ___awdiv (ARG)
     ___wmul (ARG)
       ___awdiv (ARG)
   ___wmul
     ___awdiv (ARG)
   _correccion
   _envio_esclavos
     _spiRead
       _spiReceiveWait
   _mapeo
     ___awdiv
     ___bmul
       ___awdiv (ARG)
       ___wmul (ARG)
         ___awdiv (ARG)
     ___lwdiv
       ___wmul (ARG)
         ___awdiv (ARG)
     ___wmul
       ___awdiv (ARG)
   _setup
     _Lcd_Init
       _Lcd_Cmd
         _Lcd_Port
       _Lcd_Port
     _initOsc
     _initUSART
     _spiInit
   _temp_pos
     ___awdiv
     ___bmul
       ___awdiv (ARG)
       ___wmul (ARG)
         ___awdiv (ARG)
     ___fladd
       ___fldiv (ARG)
         ___wmul (ARG)
           ___awdiv (ARG)
         ___xxtofl (ARG)
           ___wmul (ARG)
             ___awdiv (ARG)
       ___wmul (ARG)
         ___awdiv (ARG)
       ___xxtofl (ARG)
         ___wmul (ARG)
           ___awdiv (ARG)
     ___fldiv
       ___wmul (ARG)
         ___awdiv (ARG)
       ___xxtofl (ARG)
         ___wmul (ARG)
           ___awdiv (ARG)
     ___flmul
       __Umul8_16
       ___fladd (ARG)
         ___fldiv (ARG)
           ___wmul (ARG)
             ___awdiv (ARG)
           ___xxtofl (ARG)
             ___wmul (ARG)
               ___awdiv (ARG)
         ___wmul (ARG)
           ___awdiv (ARG)
         ___xxtofl (ARG)
           ___wmul (ARG)
             ___awdiv (ARG)
       ___fldiv (ARG)
         ___wmul (ARG)
           ___awdiv (ARG)
         ___xxtofl (ARG)
           ___wmul (ARG)
             ___awdiv (ARG)
       ___wmul (ARG)
         ___awdiv (ARG)
       ___xxtofl (ARG)
         ___wmul (ARG)
           ___awdiv (ARG)
     ___fltol
       ___fladd (ARG)
         ___fldiv (ARG)
           ___wmul (ARG)
             ___awdiv (ARG)
           ___xxtofl (ARG)
             ___wmul (ARG)
               ___awdiv (ARG)
         ___wmul (ARG)
           ___awdiv (ARG)
         ___xxtofl (ARG)
           ___wmul (ARG)
             ___awdiv (ARG)
       ___fldiv (ARG)
         ___wmul (ARG)
           ___awdiv (ARG)
         ___xxtofl (ARG)
           ___wmul (ARG)
             ___awdiv (ARG)
       ___flmul (ARG)
         __Umul8_16
         ___fladd (ARG)
           ___fldiv (ARG)
             ___wmul (ARG)
               ___awdiv (ARG)
             ___xxtofl (ARG)
               ___wmul (ARG)
                 ___awdiv (ARG)
           ___wmul (ARG)
             ___awdiv (ARG)
           ___xxtofl (ARG)
             ___wmul (ARG)
               ___awdiv (ARG)
         ___fldiv (ARG)
           ___wmul (ARG)
             ___awdiv (ARG)
           ___xxtofl (ARG)
             ___wmul (ARG)
               ___awdiv (ARG)
         ___wmul (ARG)
           ___awdiv (ARG)
         ___xxtofl (ARG)
           ___wmul (ARG)
             ___awdiv (ARG)
       ___wmul (ARG)
         ___awdiv (ARG)
       ___xxtofl (ARG)
         ___wmul (ARG)
           ___awdiv (ARG)
     ___wmul
       ___awdiv (ARG)
     ___xxtofl
       ___wmul (ARG)
         ___awdiv (ARG)
     _correccion

 _isr (ROOT)
   _envio
     _tabla_hex
     i1___awdiv
     i1___wmul
       i1___awdiv (ARG)

 Address spaces:
Name               Size   Autos  Total    Cost      Usage
BITCOMMON            E      0       0       0        0.0%
EEDATA             100      0       0       0        0.0%
NULL                 0      0       0       0        0.0%
CODE                 0      0       0       0        0.0%
COMMON               E      E       E       1      100.0%
BITSFR0              0      0       0       1        0.0%
SFR0                 0      0       0       1        0.0%
BITSFR1              0      0       0       2        0.0%
SFR1                 0      0       0       2        0.0%
STACK                0      0       0       2        0.0%
ABS                  0      0      9B       3        0.0%
BITBANK0            50      0       0       4        0.0%
BITSFR3              0      0       0       4        0.0%
SFR3                 0      0       0       4        0.0%
BANK0               50     40      45       5       86.2%
BITSFR2              0      0       0       5        0.0%
SFR2                 0      0       0       5        0.0%
BITBANK1            50      0       0       6        0.0%
BANK1               50     40      48       7       90.0%
BITBANK3            60      0       0       8        0.0%
BANK3               60      0       0       9        0.0%
BITBANK2            60      0       0      10        0.0%
BANK2               60      0       0      11        0.0%
DATA                 0      0      9B      12        0.0%


Microchip Technology PIC Macro Assembler V2.20 build 20200408173844 
Symbol Table                                                                                   Tue Feb 16 22:25:02 2021

             ___fldiv@aexp 00AC               ___fldiv@bexp 00AB                          pc 0002  
             ___fldiv@sign 00A4             ___bmul@product 003A                _SSPSTATbits 0094  
                       l11 1147                         l14 07FF                         l23 124A  
                       l17 114E                         l26 1430                         l50 1390  
                       l35 129A                         l51 1396                         l52 139C  
                       l29 117D                         l53 13A2                         l54 13A8  
                       l55 13AE                         l47 1384                         l56 13D6  
                       l49 138A               ___awdiv@sign 0030                         fsr 0004  
      ___wmul@multiplicand 0035           i1___wmul@product 007C        __Umul8_16@word_mpld 0031  
                      l220 0AC6                        l215 07E6                        l224 11A7  
                      l405 11BE                        l182 116A                        l190 135C  
                      l191 137F                        l282 1155                        l178 132F  
                      l187 133D                        l259 1191                        l275 11D7  
                      l532 1500                        l276 11DC                        l293 115E  
                      l189 134F                        l381 1271                        l279 114F  
                      l703 06B2                        l714 073E                        l730 0D5E  
                      l651 12E0                        l379 1259                        l715 0752  
                      l572 0893                        l812 1525                        l565 08A8  
                      l814 15BC                        l575 08A8                        l672 046A  
                      l752 0D4A                        l744 0CB6                        l728 0B45  
                      l825 1586                        l826 1592                        l676 0545  
                      l780 03D8                        l693 0659                        l685 0752  
                      l678 0513                        l774 0350                        l768 03E4  
                      l697 068B                        l787 081A                        l789 082C  
                      _RE0 0048                        _RE2 004A                        _isr 11DD  
                      fsr0 0004                        indf 0000               ___flmul@aexp 00C7  
             ___flmul@bexp 00C8               ___flmul@sign 00C2               ___flmul@temp 00CD  
             ___flmul@prod 00C9               ___fltol@exp1 00D8                       l2201 07F1  
                     l3001 1571                       l2203 07F4                       l2211 0809  
                     l3011 15AA                       l3003 157C                       l2205 07FC  
                     l2213 0810                       l3013 15AF                       l3005 1580  
                     l2207 114F                       l2231 13FF                       l2223 13D7  
                     l2215 0814                       l3015 15B3                       l3007 158A  
                     l2401 14C9                       l2241 1424                       l2233 140C  
                     l2225 13E2                       l3201 130C                       l2217 0823  
                     l2209 0807                       l3017 15B4                       l3009 1594  
                     l2251 1178                       l2411 14EC                       l2403 14CD  
                     l2243 142A                       l2235 1412                       l2227 13E8  
                     l3211 1317                       l3203 130D                       l2219 0828  
                     l2253 117A                       l2245 116E                       l2405 14DE  
                     l2413 14F2                       l2237 1418                       l2229 13F8  
                     l3221 1326                       l3213 1318                       l3205 130E  
                     l2421 082D                       l2247 116F                       l2415 14F7  
                     l2407 14E4                       l2351 1253                       l2239 141E  
                     l2255 1383                       l3223 1327                       l3215 1319  
                     l3207 1313                       l2431 0859                       l2423 083A  
                     l2271 11A1                       l3081 1228                       l2249 1175  
                     l3241 1330                       l2417 14FC                       l2409 14E5  
                     l2361 11AB                       l2353 1260                       l4041 13BC  
                     l2281 118C                       l2273 117E                       l3225 1328  
                     l3217 131A                       l3209 1316                       l2433 0861  
                     l2195 1145                       l3091 1244                       l3083 122D  
                     l4043 1374                       l3251 133E                       l3243 1338  
                     l2371 11B8                       l2363 11AC                       l2355 1267  
                     l2347 124B                       l2259 13B4                       l2283 118F  
                     l2275 1186                       l2291 11CF                       l3227 1329  
                     l3219 1325                       l3171 12E1                       l2443 086F  
                     l2435 0863                       l2427 0843                       l2267 1192  
                     l2197 07EA                       l3085 1232                       l3093 1275  
                     l3237 115F                       l3253 133F                       l3245 1339  
                     l2381 149F                       l2373 11BD                       l2365 11B0  
                     l2461 129F                       l2357 126D                       l2349 124F  
                     l2285 1190                       l2277 118A                       l2293 11D1  
                     l3229 132C                       l3181 12F4                       l3173 12E6  
                     l3501 03F8                       l2453 0888                       l2445 0878  
                     l2437 0867                       l2429 0858                       l2269 119A  
                     l2199 07EB                       l3079 1148                       l3087 1239  
                     l3095 1278                       l3239 1167                       l3263 135D  
                     l3255 1349                       l3271 136C                       l3247 133A  
                     l2391 14B3                       l2383 14A4                       l2367 11B4  
                     l2471 12B7                       l2463 12A5                       l2279 118B  
                     l2295 11D6                       l2287 11C2                       l3191 1301  
                     l3183 12F7                       l3175 12EC                       l3511 0416  
                     l3503 03FE                       l2455 0898                       l2447 0881  
                     l3089 123F                       l3097 1285                       l2297 1156  
                     l3265 135E                       l3257 1350                       l3249 133B  
                     l2393 14B5                       l2385 14A6                       l2377 1498  
                     l2369 11B6                       l2473 12C8                       l2465 12A8  
                     l2481 12DC                       l3281 077A                       l2289 11CB  
                     l3193 1304                       l3185 12F8                       l3177 12F0  
                     l3601 054E                       l3521 0432                       l3513 0419  
                     l3505 0401                       l2457 089D                       l3099 128D  
                     l2299 115B                       l3267 1368                       l3259 1351  
                     l2395 14BB                       l2387 14AA                       l2379 149B  
                     l2475 12CE                       l2467 12AF                       l2459 129B  
                     l3283 078F                       l3195 1305                       l3187 12FB  
                     l3179 12F3                       l3611 057C                       l3531 044C  
                     l3523 0433                       l3507 0407                       l3515 041B  
                     l2397 14BE                       l2389 14AF                       l2477 12CF  
                     l2469 12B3                       l3285 07C0                       l3277 0753  
                     l3197 1308                       l3189 12FE                       l3621 059E  
                     l3613 0585                       l3605 0559                       l3541 0472  
                     l3533 0451                       l3525 043D                       l3517 0425  
                     l3509 040C                       l3701 0AD0                       l2901 0209  
                     l2399 14C5                       l2479 12D6                       l3279 0753  
                     l3199 1309                       l3631 0635                       l3615 0587  
                     l3607 0572                       l3623 05A3                       l3551 0486  
                     l3543 0476                       l3535 045B                       l3527 0443  
                     l3519 042C                       l3711 0AEF                       l3703 0ADA  
                     l2911 02D4                       l2903 0226                       l2831 002A  
                     l3633 063A                       l3625 05BB                       l3617 058D  
                     l3609 0576                       l3561 04A8                       l3553 048E  
                     l3545 047A                       l3537 045E                       l3529 0446  
                     l3801 0C8B                       l3721 0B0E                       l3713 0AF9  
                     l3705 0AE0                       l2921 0320                       l2913 02FC  
                     l2905 025D                       l2841 0041                       l2833 0031  
                     l3651 0693                       l3643 0675                       l3627 062D  
                     l3635 064B                       l3619 0590                       l3571 04CA  
                     l3563 04B0                       l3555 0494                       l3547 047E  
                     l3539 0460                       l3811 0CC2                       l3803 0C8F  
                     l3731 0B2D                       l3723 0B18                       l3715 0AFB  
                     l3707 0AE3                       l2931 0335                       l2923 0321  
                     l2915 0305                       l2907 0277                       l2851 005D  
                     l2843 0046                       l2835 0037                       l3661 06A4  
                     l3653 0695                       l3645 0684                       l3637 0663  
                     l3629 0633                       l3581 0502                       l3573 04D0  
                     l3565 04B6                       l3557 049C                       l3549 0482  
                     l3821 0D06                       l3813 0CD2                       l3805 0CB1  
                     l3741 0B59                       l3733 0B37                       l3725 0B1E  
                     l3709 0AEA                       l3717 0AFD                       l2941 035A  
                     l2933 0339                       l2925 032A                       l2917 0313  
                     l2909 02AE                       l2861 0072                       l2853 0063  
                     l2845 004E                       l2837 003B                       l3901 0E29  
                     l3671 06BF                       l3663 06A8                       l3655 069A  
                     l3647 0688                       l3639 066A                       l3591 0528  
                     l3583 050C                       l3567 04BC                       l3559 04A2  
                     l3575 04D8                       l3831 0D36                       l3823 0D16  
                     l3815 0CD6                       l3743 0B61                       l3735 0B39  
                     l3727 0B21                       l3719 0B07                       l2951 0398  
                     l2943 0368                       l2935 034D                       l2919 031C  
                     l2927 0330                       l2871 008E                       l2863 007A  
                     l2855 0067                       l2847 0050                       l2839 003C  
                     l3911 0E58                       l3903 0E35                       l3681 0719  
                     l3673 06CF                       l3665 06AE                       l3649 0690  
                     l3657 069C                       l3593 052B                       l3585 0517  
                     l3577 04DA                       l3569 04C4                       l3497 03E5  
                     l3833 0D3C                       l3825 0D25                       l3817 0CEF  
                     l3809 0CBB                       l3761 0BC6                       l3753 0B7C  
                     l3729 0B28                       l3737 0B3B                       l2961 03C4  
                     l2953 03A3                       l2945 036C                       l2929 0334  
                     l2881 00E5                       l2865 007C                       l2857 0068  
                     l2849 0058                       l3921 0E86                       l3913 0E62  
                     l3905 0E3E                       l3691 0734                       l3683 071E  
                     l3675 06D3                       l3659 06A2                       l3595 0539  
                     l3587 0520                       l3579 04F1                       l3499 03EE  
                     l3835 0D40                       l3827 0D29                       l3819 0CF7  
                     l3771 0BEE                       l3763 0BC8                       l3755 0B9A  
                     l3739 0B4D                       l3747 0B6A                       l2963 03CC  
                     l2955 03B2                       l2947 0385                       l2939 0355  
                     l2891 0178                       l2883 0101                       l2875 0097  
                     l2867 0084                       l2859 006D                       l3843 08A9  
                     l3923 0E8F                       l3915 0E68                       l3931 0EB9  
                     l3907 0E4A                       l3851 0D64                       l3693 0738  
                     l3685 0728                       l3677 070F                       l3669 06B9  
                     l3589 0522                       l3597 053D                       l3837 0D44  
                     l3829 0D33                       l3765 0BCD                       l3773 0BFC  
                     l3781 0C4A                       l3757 0BB2                       l3749 0B71  
                     l2965 03D0                       l2957 03BC                       l2949 038B  
                     l2893 0192                       l2885 0137                       l2877 00B1  
                     l2869 0089                       l2981 152D                       l2973 1504  
                     l3845 08B1                       l3941 0F06                       l3933 0EC5  
                     l3925 0E9B                       l3917 0E74                       l3909 0E54  
                     l3861 0D86                       l3853 0D69                       l3695 0749  
                     l3687 072F                       l3679 0713                       l3599 0549  
                     l3791 0C69                       l3783 0C50                       l3775 0C1D  
                     l3767 0BE5                       l3759 0BBC                       l2967 03D1  
                     l2959 03BE                       l2895 01AF                       l2887 0153  
                     l2879 00BE                       l2991 1548                       l2975 1509  
                     l3847 09C5                       l3943 0F40                       l3935 0ECB  
                     l3927 0EA4                       l3919 0E7A                       l3871 0DA4  
                     l3863 0D8B                       l3855 0D71                       l3697 074F  
                     l3689 0730                       l3793 0C6C                       l3785 0C58  
                     l3777 0C1E                       l3769 0BEB                       l2969 03DC  
                     l2897 01C9                       l2889 016F                       l2993 154F  
                     l2985 1536                       l2977 150D                       l3945 0F60  
                     l3937 0ED7                       l3929 0EB0                       l3881 0DD4  
                     l3873 0DAD                       l3865 0D90                       l3857 0D7B  
                     l3849 0D5F                       l3795 0C7A                       l3787 0C5A  
                     l3779 0C46                       l3699 0AC7                       l2899 01E6  
                     l2995 1553                       l2987 153B                       l2979 151D  
                     l3947 0F6C                       l3939 0EFA                       l3891 0DFF  
                     l3883 0DE0                       l3875 0DB9                       l3867 0D95  
                     l3859 0D81                       l3789 0C63                       l3797 0C82  
                     l2997 1561                       l2989 153F                       l3949 0FA6  
                     l3893 0E05                       l3885 0DE9                       l3877 0DBF  
                     l3869 0D9A                       l3799 0C88                       l2999 156A  
                     l3895 0E11                       l3887 0DF1                       l3879 0DCB  
                     l3897 0E17                       l3889 0DF5                       l3899 0E23  
                     ?_isr 0070                       STR_1 1006                       u2000 126D  
                     u2001 126C                       u2010 11B0                       u2011 11AF  
                     u2020 11BD                       u2021 11BC                       u2110 14F2  
                     u2030 149F                       u2111 14F1                       u2031 149E  
                     u2120 14F7                       u2040 14AA                       u2121 14F6  
                     u2105 14E6                       u2041 14A9                       u2050 14BB  
                     u2210 0898                       u2130 083A                       u2051 14BA  
                     u2211 0897                       u2131 0839                       u3100 0072  
                     u2220 089D                       u2140 0851                       u3101 0071  
                     u2221 089C                       u2205 088A                       u2070 14CD  
                     u2230 12A5                       u3110 0089                       u2150 0867  
                     u2071 14CC                       u2231 12A4                       u3111 0088  
                     u2151 0866                       u4000 0576                       u3120 008E  
                     u2160 086E                       u2065 14BF                       u4001 0575  
                     u3121 008D                       u2161 086D                       u2145 084C  
                     u2090 14DE                       u2250 12B7                       u4010 057C  
                     u3050 003B                       u2091 14DD                       u2251 12B6  
                     u4011 057B                       u3211 0218                       u3131 00F3  
                     u3051 003A                       u4020 058D                       u3300 0320  
                     u3212 021F                       u3132 00FA                       u3060 0041  
                     u2180 0880                       u2085 14CE                       u2245 12A9  
                     u4021 058C                       u3301 031F                       u3221 024F  
                     u3213 0226                       u3205 01E8                       u3141 010F  
                     u3133 0101                       u3061 0040                       u2181 087F  
                     u2270 12C8                       u4110 0688                       u3222 0256  
                     u3142 0116                       u3070 0046                       u2190 0887  
                     u2095 14DA                       u2271 12C7                       u4111 0687  
                     u3231 0286                       u3223 025D                       u3151 0145  
                     u3143 011D                       u3071 0045                       u2191 0886  
                     u2175 0870                       u4200 06F0                       u4120 0690  
                     u4040 05BB                       u3400 03B2                       u3320 0334  
                     u3240 02BA                       u3232 028D                       u3152 014C  
                     u3080 0067                       u2265 12B8                       u4121 068F  
                     u4105 0679                       u4041 05BA                       u3401 03B1  
                     u3321 0333                       u3233 0294                       u3161 0161  
                     u3153 0153                       u3081 0066                       u2290 12DC  
                     u4210 070F                       u4130 069A                       u3410 03D0  
                     u3330 0339                       u3162 0168                       u3090 006D  
                     u2291 12DB                       u2275 12C4                       u4211 070E  
                     u4131 0699                       u4051 05EA                       u4043 05B7  
                     u4035 0593                       u3411 03CF                       u3331 0338  
                     u3315 0323                       u3251 02C6                       u3163 016F  
                     u3091 006C                       u4220 0719                       u4140 06A2  
                     u4060 060C                       u4052 05ED                       u4300 0B1E  
                     u3340 034D                       u3260 02E2                       u3252 02CD  
                     u3500 1580                       u3420 1509                       u2285 12D0  
                     u4221 0718                       u4205 06EB                       u4141 06A1  
                     u4061 060D                       u4053 05F4                       u4301 0B1D  
                     u3405 03AE                       u3341 034C                       u3253 02D4  
                     u3245 02B5                       u3181 01A1                       u3501 157F  
                     u3421 1508                       u1910 1155                       u4230 071E  
                     u4150 06A8                       u4070 063A                       u4062 0612  
                     u4054 05F7                       u4310 0B28                       u3350 0354  
                     u3182 01A8                       u3510 1586                       u3430 150D  
                     u1911 1154                       u4231 071D                       u4151 06A7  
                     u4071 0639                       u4063 0613                       u4055 05FE  
                     u4311 0B27                       u3351 0353                       u3271 02EE  
                     u3191 01D8                       u3183 01AF                       u3175 0171  
                     u3511 1585                       u3431 150C                       u4240 072F  
                     u4160 06AE                       u4080 0663                       u4056 0601  
                     u4400 0C1D                       u4320 0B2D                       u1920 0814  
                     u3360 035A                       u3272 02F5                       u3192 01DF  
                     u3520 158A                       u3440 152D                       u4241 072E  
                     u4161 06AD                       u4081 0662                       u4401 0C1C  
                     u4321 0B2C                       u1921 0813                       u3361 0359  
                     u3273 02FC                       u3265 02DD                       u3193 01E6  
                     u3521 1589                       u3441 152C                       u4250 0734  
                     u4170 06B8                       u4090 066A                       u4410 0C42  
                     u4330 0B4D                       u3370 036C                       u3530 159F  
                     u4251 0733                       u4171 06B7                       u4091 0669  
                     u4331 0B4C                       u3371 036B                       u3700 122D  
                     u4260 074F                       u4180 06BF                       u4500 0CBA  
                     u4420 0C50                       u4340 0B71                       u1940 0828  
                     u3380 037B                       u3540 15AF                       u3460 154E  
                     u3701 122C                       u4261 074E                       u4181 06BE  
                     u4501 0CB9                       u4421 0C4F                       u4405 0C19  
                     u4341 0B70                       u1941 0827                       u3285 02FE  
                     u3541 15AE                       u3461 154D                       u3710 123F  
                     u4190 06D3                       u4510 0CC2                       u4430 0C58  
                     u4350 0BCD                       u4270 0AE0                       u3390 0398  
                     u3550 15B3                       u1950 119A                       u3711 123E  
                     u4191 06D2                       u4511 0CC1                       u4431 0C57  
                     u4415 0C2B                       u4351 0BCC                       u4271 0ADF  
                     u1935 081B                       u3391 0397                       u3295 0315  
                     u3551 15B2                       u3535 159A                       u3455 1540  
                     u1951 1199                       u3720 129A                       u1960 11CB  
                     u4520 0CD6                       u4416 0C2E                       u4280 0AEA  
                     u3480 1570                       u3721 1299                       u1961 11CA  
                     u4521 0CD5                       u4417 0C35                       u4281 0AE9  
                     u3385 0376                       u3481 156F                       u1970 1253  
                     u3810 03FE                       u4530 0CE5                       u4450 0C69  
                     u4418 0C38                       u4290 0AEF                       u1971 1252  
                     u3811 03FD                       u4451 0C68                       u4419 0C3F  
                     u4291 0AEE                       u3395 0394                       u3475 1562  
                     u3900 04F1                       u3820 0407                       u4540 0D06  
                     u4380 0BEB                       u3901 04F0                       u3821 0406  
                     u4541 0D05                       u4445 0C5C                       u4381 0BEA  
                     u4365 0BD1                       u3910 04FC                       u3830 040C  
                     u4550 0D25                       u4470 0C88                       u4607 13DB  
                     u3911 04FA                       u3831 040B                       u4551 0D24  
                     u4535 0CE0                       u4471 0C87                       u4375 0BDE  
                     u3495 1575                       u3760 1167                       u3920 04FD  
                     u3840 0432                       u4560 0D40                       u4480 0C8F  
                     u3761 1166                       u1985 125A                       u4617 13EE  
                     u3905 04ED                       u3841 0431                       u4561 0D3F  
                     u4545 0D02                       u4481 0C8E                       u4465 0C6F  
                     u3770 1338                       u3930 0517                       u3850 0443  
                     u4490 0CB1                       u4570 08B1                       u3771 1337  
                     u1995 1261                       u4627 13FC                       u3931 0516  
                     u3851 0442                       u4555 0D21                       u4491 0CB0  
                     u4395 0BF1                       u4571 08B0                       u3940 0528  
                     u3860 044C                       u4580 0DF1                       u4637 1409  
                     u3941 0527                       u3861 044B                       u4581 0DF0  
                     u3870 0451                       u4647 07F8                       u3871 0450  
                     u3960 0545                       u3880 0472                       u3961 0544  
                     u3881 0471                       u3970 0549                       u3890 0476  
                     u3971 0548                       u3955 052E                       u3891 0475  
                     u3980 054E                       u3981 054D                       u4597 0D6D  
                     u3991 0564                       u3992 056B                       u3993 0572  
                     _TMR0 0001          ?_Lcd_Write_String 0070                       _main 0D5F  
                     btemp 007E                       start 0012         ??_Lcd_Write_String 002D  
          ___fldiv@new_exp 00A5            __end_of_Lcd_Cmd 0800          ___bmul@multiplier 003B  
                    ??_isr 0027              tabla_hex@port 0070              ___fltol@sign1 00D7  
          __end_of___fladd 0753                      ?_main 0070             i1___awdiv@sign 0075  
          __end_of___fldiv 0D5F            __end_of___awdiv 1501            __end_of___flmul 03E5  
          __end_of___fltol 08A9                      _ANSEL 0188            ___awdiv@divisor 002B  
          __end_of___lwdiv 12E1                      i1l212 17FF                      i1l165 11F4  
                    i1l246 1699                      i1l532 1497                      i1l381 1224  
                    i1l379 120C            ___awdiv@counter 002F                      _SPBRG 0099  
                    _PORTA 0005                      _PORTB 0006                      _PORTC 0007  
                    _PORTD 0008                      _PORTE 0009    __size_of_Lcd_Set_Cursor 0026  
                    _TRISA 0085                      _TRISB 0086                      _TRISD 0088  
                    _TRISE 0089                      _TXREG 0019                      _TX_GO 115F  
          __end_of_initOsc 13D7                      _mapeo 0753                      _envio 169A  
                    _slave 0062                      _setup 12E1                      pclath 000A  
          __end_of_spiInit 11DD            __end_of_spiRead 115F           __end_ofi1___wmul 1225  
                    status 0003        i1___wmul@multiplier 0078                      wtemp0 007E  
       __size_ofi1___awdiv 0067           __end_of_Lcd_Init 1431           __end_of_Lcd_Port 1148  
          __initialization 0015               __end_of_main 1000                     ??_main 00DB  
       __size_of_Lcd_Clear 0007                     ?_TX_GO 0070                     ?_mapeo 0070  
                   ?_envio 0070           ___awdiv@dividend 002D                     ?_setup 0070  
                   _ANSELH 0189                     i1l3021 1200                     i1l3101 169A  
                   i1l2311 15DD                     i1l2303 15BE                     i1l3031 1220  
                   i1l3023 1202                     i1l3111 16C7                     i1l3103 169B  
                   i1l2321 160F                     i1l2313 15E7                     i1l2305 15BF  
                   i1l3041 143B                     i1l3025 1206                     i1l3105 16B2  
                   i1l2331 1641                     i1l2323 1619                     i1l2315 15F1  
                   i1l2307 15C9                     i1l3051 144C                     i1l3043 143D  
                   i1l3035 1431                     i1l3027 1213                     i1l3131 16F0  
                   i1l3123 16DA                     i1l3115 16CF                     i1l3107 16B9  
                   i1l2333 164B                     i1l2325 1623                     i1l2317 15FB  
                   i1l2309 15D3                     i1l2341 165F                     i1l3061 1464  
                   i1l3053 1452                     i1l3045 1441                     i1l3037 1432  
                   i1l3029 121A                     i1l3125 16DE                     i1l3301 11EC  
                   i1l2335 1655                     i1l2327 162D                     i1l2319 1605  
                   i1l3063 1475                     i1l3055 1455                     i1l3071 1489  
                   i1l3047 1446                     i1l3039 1436                     i1l3151 1722  
                   i1l3135 16F8                     i1l3127 16E6                     i1l3119 16D7  
                   i1l3303 11F1                     i1l2329 1637                     i1l3073 148E  
                   i1l3065 147B                     i1l3057 145C                     i1l3049 144A  
                   i1l3161 17C7                     i1l3129 16EB                     i1l3075 1493  
                   i1l3067 147C                     i1l3059 1460                     i1l3155 1761  
                   i1l3147 1708                     i1l3139 1700                     i1l3069 1483  
                   i1l4045 17D3                     i1l3165 17C9                     i1l4047 1667  
                   i1l3159 17C5                     i1l3291 11DD                     i1l3293 11E1  
                   i1l3295 11E3                     i1l3297 11E7                     i1l3299 11E8  
                   u360_20 1436                     u360_21 1435                     u361_20 1441  
                   u361_21 1440                     u362_20 1452                     u362_21 1451  
                   u363_25 1456                     u364_20 1464                     u356_20 1206  
                   u364_21 1463                     u356_21 1205                     u365_25 1465  
                   u357_25 120D                     u373_25 16A6                     u366_20 1475  
                   u374_20 16E6                     u366_21 1474                     u374_21 16E5  
                   u366_25 1471                     u358_25 1214                     u359_20 1220  
                   u359_21 121F                     u367_25 147D                     u368_20 1489  
                   u368_21 1488                     u369_20 148E                     u369_21 148D  
                   u378_20 11E1                     u378_21 11E0                     u379_20 11EC  
                   u379_21 11EB                  ??_Lcd_Cmd 002C                     _SPBRGH 009A  
  __size_of_Lcd_Write_Char 0013                     _TRISC3 043B                     _TRISC5 043D  
                   _SSPBUF 0013                     _SSPCON 0014           __end_of___xxtofl 15BD  
                   ___bmul 11A8                  ??___fladd 0054                     ___wmul 124B  
                ??___fldiv 004F                  ??___awdiv 002F                  ??___flmul 00BD  
                ??___fltol 00D3                  ??___lwdiv 003D           ___awdiv@quotient 0031  
  __size_of_envio_esclavos 0050          __end_ofi1___awdiv 1498                  ??_initOsc 002B  
       __size_of__Umul8_16 0029           __end_of_temp_pos 0AC7                     saved_w 007E  
                ??_spiInit 002E                  ??_spiRead 002B            Lcd_Set_Cursor@a 002F  
          Lcd_Set_Cursor@b 002E               ___xxtofl@arg 0043               ___xxtofl@exp 0042  
             ___xxtofl@val 0039    __end_of__initialization 0026          __end_of_Lcd_Clear 114F  
               ___fltol@f1 00CF        ___bmul@multiplicand 0039              __end_of_TX_GO 116B  
           __pcstackCOMMON 0070              __end_of_mapeo 07E7              __end_of_envio 1800  
            __end_of_setup 1330                  ?i1___wmul 0078             _Lcd_Set_Cursor 1225  
                  ??_TX_GO 002B                  ?_Lcd_Init 0070                  ?_Lcd_Port 0070  
                  ??_mapeo 0040                    ??_envio 0020                    ??_setup 0030  
        tabla_hex@selector 0074                 __pbssBANK0 0060                 __pbssBANK1 00E0  
       __size_of_initUSART 0014          __end_of__Umul8_16 082D         __size_of_tabla_hex 00DD  
               __pmaintext 0D5F                    ?___bmul 0039                 _centenasp1 00E3  
               _centenasp2 00E0                    ?___wmul 0033                 __pintentry 0004  
  __size_of_spiReceiveWait 0007  __size_of_Lcd_Write_String 0029     __end_of_Lcd_Set_Cursor 124B  
               ??i1___wmul 007C         i1___awdiv@dividend 0072                  ?___xxtofl 0039  
               ??_Lcd_Init 002E                 ??_Lcd_Port 002B                 _envio$1254 0025  
                  _SSPSTAT 0094                 __stringtab 1000             _Lcd_Write_Char 116B  
                  _Lcd_Cmd 07E7                 _correccion 1192         i1___awdiv@quotient 0076  
                ?_temp_pos 0070            __size_of___bmul 0017                    ___fladd 03E5  
                  ___fldiv 0AC7                    ___awdiv 1498                    ___flmul 002A  
                  ___fltol 082D            __size_of___wmul 0027                    ___lwdiv 129B  
           _envio_esclavos 1330            ?_Lcd_Set_Cursor 002E          __end_of_initUSART 1192  
                  __ptext1 08A9                    __ptext2 1192                    __ptext3 1501  
                  __ptext4 082D                    __ptext5 002A                    __ptext6 0804  
                  __ptext7 0AC7                    __ptext8 03E5                    __ptext9 12E1  
                  _initOsc 1380               __size_of_isr 0023                 ??___xxtofl 003D  
        __end_of_tabla_hex 169A                    _spiInit 11BF                    _spiRead 1156  
   __end_of_Lcd_Write_Char 117E       end_of_initialization 0026                 ??_temp_pos 00D9  
                _RCSTAbits 0018     __end_of_envio_esclavos 1380                  Lcd_Port@a 002B  
    i1___wmul@multiplicand 007A                  _PORTCbits 0007                ___fladd@grs 005F  
               _unidadesp1 00E5                 _unidadesp2 00E2              ___xxtofl@sign 0041  
                _TRISCbits 0087                  i1___awdiv 1431                ___fldiv@grs 00A7  
              ___fldiv@rem 00A0            ?_Lcd_Write_Char 0070          Lcd_Write_String@a 002F  
        Lcd_Write_String@i 002D                ___flmul@grs 00C3                ?_correccion 0070  
                _TXSTAbits 0098                  _Lcd_Clear 1148            ?_envio_esclavos 0070  
           _spiReceiveWait 114F             __end_of___bmul 11BF             __end_of___wmul 1272  
               mapeo@TEMP1 0042           _Lcd_Write_String 1272                _BAUDCTLbits 0187  
      start_initialization 0015          __size_ofi1___wmul 0025                __end_of_isr 1200  
               ?i1___awdiv 0070          __size_of_Lcd_Init 005A          __size_of_Lcd_Port 0006  
   __end_of_spiReceiveWait 1156                 ?_Lcd_Clear 0070                   ??___bmul 003A  
                 ??___wmul 0037                  __Umul8_16 0804            Lcd_Write_Char@a 002C  
      __size_of_correccion 0016                  ___fladd@a 00B1                  ___fladd@b 00AD  
                ___fldiv@a 0047                  ___fldiv@b 004B                  ___flmul@a 00B9  
                ___flmul@b 00B5                  ___latbits 0002              __pcstackBANK0 0020  
            __pcstackBANK1 00A0          __size_of___xxtofl 00BC                   ?_Lcd_Cmd 0070  
                _decenasp1 00E4                  _decenasp2 00E1                  _main$1235 00DE  
         ___lwdiv@dividend 003B            ?_spiReceiveWait 0070           ??_Lcd_Set_Cursor 002F  
                 ?___fladd 00AD                   ?___fldiv 0047                   ?___awdiv 002B  
                 ?___flmul 00B5                   ?___fltol 00CF                 ?__Umul8_16 002B  
                 ?___lwdiv 0039          __size_of_temp_pos 021E          i1___awdiv@divisor 0070  
        i1___awdiv@counter 0074                  __pstrings 1000                   ?_initOsc 0070  
                _controles 0064                  _gradospos 0060             __size_of_TX_GO 000C  
                _initUSART 117E                   ?_spiInit 002B                   ?_spiRead 0070  
              ??i1___awdiv 0074           ___lwdiv@quotient 003D             __size_of_mapeo 0094  
           __size_of_envio 0166             __size_of_setup 004F                  _tabla_hex 15BD  
     spiInit@sTransmitEdge 002D          interrupt_function 0004             ___wmul@product 0037  
                 _PIE1bits 008C         spiInit@sDataSample 002B                   Lcd_Cmd@a 002D  
                 _PIR1bits 000C                  _var_envio 0061                ??_Lcd_Clear 002E  
            initOsc@option 002D                __stringbase 1005          ___wmul@multiplier 0033  
                 i1___wmul 1200           ??_Lcd_Write_Char 002C                 ?_initUSART 0070  
                 _Lcd_Init 13D7                   _Lcd_Port 1142                 ?_tabla_hex 0070  
 __end_of_Lcd_Write_String 129B               ??_correccion 002B           __size_of_Lcd_Cmd 0019  
         ??_envio_esclavos 002B                ??__Umul8_16 002D           __size_of___fladd 036E  
         __size_of___fldiv 0298           __size_of___awdiv 0069           __size_of___flmul 03BB  
         __size_of___fltol 007C           __size_of___lwdiv 0046         __end_of__stringtab 1006  
       __end_of_correccion 11A8                   ___xxtofl 1501           __size_of_initOsc 0057  
          ___lwdiv@divisor 0039            ___lwdiv@counter 003F                   __ptext10 11BF  
                 __ptext11 117E                   __ptext20 1156                   __ptext12 1380  
                 __ptext21 114F                   __ptext13 13D7                   __ptext30 169A  
                 __ptext22 115F                   __ptext14 0753                   __ptext31 1200  
                 __ptext23 1272                   __ptext15 124B                   __ptext32 1431  
                 __ptext24 116B                   __ptext16 129B                   __ptext33 15BD  
                 __ptext25 1225                   __ptext17 11A8                   __ptext26 1148  
                 __ptext18 1498                   __ptext27 07E7                   __ptext19 1330  
                 __ptext28 1142                   __ptext29 11DD           __size_of_spiInit 001E  
         __size_of_spiRead 0009                   _esclavo1 0063                   _esclavo2 00E6  
                 _esclavo3 00E7              __size_of_main 02A1                   _temp_pos 08A9  
             spiInit@sType 002E          spiInit@sClockIdle 002C                 _INTCONbits 000B  
              ??_initUSART 002B                   intlevel1 0000                ??_tabla_hex 0072  
         ??_spiReceiveWait 002B                  stringcode 1000                 _OSCCONbits 008F  
       Lcd_Set_Cursor@temp 0030     __Umul8_16@multiplicand 002B                 _OPTION_REG 0081  
                 stringdir 1000                   stringtab 1000              ___fladd@signs 005C  
             ___fladd@aexp 005D               ___fladd@bexp 005E       __Umul8_16@multiplier 0033  
        __Umul8_16@product 002F  
