

Microchip MPLAB XC8 Assembler V2.20 build 20200408173844 
                                                                                               Tue Feb 16 00:15:58 2021

Microchip MPLAB XC8 C Compiler v2.20 (Free license) build 20200408173844 Og1 
     1                           	processor	16F887
     2                           	pagewidth 120
     3                           	opt	flic
     4                           	psect	cinit,global,class=CODE,merge=1,delta=2
     5                           	psect	bssCOMMON,global,class=COMMON,space=1,delta=1,noexec
     6                           	psect	cstackCOMMON,global,class=COMMON,space=1,delta=1,noexec
     7                           	psect	maintext,global,class=CODE,split=1,delta=2
     8                           	psect	text1,local,class=CODE,merge=1,delta=2
     9                           	psect	text2,local,class=CODE,merge=1,delta=2
    10                           	psect	text3,local,class=CODE,merge=1,delta=2
    11                           	psect	text4,local,class=CODE,merge=1,delta=2
    12                           	psect	text5,local,class=CODE,merge=1,delta=2
    13                           	psect	text6,local,class=CODE,merge=1,delta=2
    14                           	psect	text7,local,class=CODE,merge=1,delta=2
    15                           	psect	intentry,global,class=CODE,delta=2
    16                           	psect	config,global,abs,ovrld,class=CONFIG,space=4,delta=2,noexec
    17                           	dabs	1,0x7E,2
    18  0000                     
    19                           ; Version 2.20
    20                           ; Generated 09/04/2020 GMT
    21                           ; 
    22                           ; Copyright © 2020, Microchip Technology Inc. and its subsidiaries ("Microchip")
    23                           ; All rights reserved.
    24                           ; 
    25                           ; This software is developed by Microchip Technology Inc. and its subsidiaries ("Microch
      +                          ip").
    26                           ; 
    27                           ; Redistribution and use in source and binary forms, with or without modification, are
    28                           ; permitted provided that the following conditions are met:
    29                           ; 
    30                           ;     1. Redistributions of source code must retain the above copyright notice, this lis
      +                          t of
    31                           ;        conditions and the following disclaimer.
    32                           ; 
    33                           ;     2. Redistributions in binary form must reproduce the above copyright notice, this 
      +                          list
    34                           ;        of conditions and the following disclaimer in the documentation and/or other
    35                           ;        materials provided with the distribution.
    36                           ; 
    37                           ;     3. Microchip's name may not be used to endorse or promote products derived from th
      +                          is
    38                           ;        software without specific prior written permission.
    39                           ; 
    40                           ; THIS SOFTWARE IS PROVIDED BY MICROCHIP "AS IS" AND ANY EXPRESS OR IMPLIED WARRANTIES,
    41                           ; INCLUDING, BUT NOT LIMITED TO, THE IMPLIED WARRANTIES OF MERCHANTABILITY AND FITNESS F
      +                          OR
    42                           ; PURPOSE ARE DISCLAIMED.  IN NO EVENT SHALL MICROCHIP BE LIABLE FOR ANY DIRECT, INDIREC
      +                          T,
    43                           ; INCIDENTAL, SPECIAL, EXEMPLARY, OR CONSEQUENTIAL DAMAGES (INCLUDING BUT NOT LIMITED TO
    44                           ; PROCUREMENT OF SUBSTITUTE GOODS OR SERVICES; LOSS OF USE, DATA OR PROFITS; OR BUSINESS
    45                           ; INTERRUPTION) HOWSOEVER CAUSED AND ON ANY THEORY OF LIABILITY, WHETHER IN CONTRACT, ST
      +                          RICT
    46                           ; LIABILITY, OR TORT (INCLUDING NEGLIGENCE OR OTHERWISE) ARISING IN ANY WAY OUT OF THE U
      +                          SE OF
    47                           ; THIS SOFTWARE, EVEN IF ADVISED OF THE POSSIBILITY OF SUCH DAMAGE.
    48                           ; 
    49                           ; 
    50                           ; Code-generator required, PIC16F887 Definitions
    51                           ; 
    52                           ; SFR Addresses
    53  0000                     	;# 
    54  0001                     	;# 
    55  0002                     	;# 
    56  0003                     	;# 
    57  0004                     	;# 
    58  0005                     	;# 
    59  0006                     	;# 
    60  0007                     	;# 
    61  0008                     	;# 
    62  0009                     	;# 
    63  000A                     	;# 
    64  000B                     	;# 
    65  000C                     	;# 
    66  000D                     	;# 
    67  000E                     	;# 
    68  000E                     	;# 
    69  000F                     	;# 
    70  0010                     	;# 
    71  0011                     	;# 
    72  0012                     	;# 
    73  0013                     	;# 
    74  0014                     	;# 
    75  0015                     	;# 
    76  0015                     	;# 
    77  0016                     	;# 
    78  0017                     	;# 
    79  0018                     	;# 
    80  0019                     	;# 
    81  001A                     	;# 
    82  001B                     	;# 
    83  001B                     	;# 
    84  001C                     	;# 
    85  001D                     	;# 
    86  001E                     	;# 
    87  001F                     	;# 
    88  0081                     	;# 
    89  0085                     	;# 
    90  0086                     	;# 
    91  0087                     	;# 
    92  0088                     	;# 
    93  0089                     	;# 
    94  008C                     	;# 
    95  008D                     	;# 
    96  008E                     	;# 
    97  008F                     	;# 
    98  0090                     	;# 
    99  0091                     	;# 
   100  0092                     	;# 
   101  0093                     	;# 
   102  0093                     	;# 
   103  0093                     	;# 
   104  0094                     	;# 
   105  0095                     	;# 
   106  0096                     	;# 
   107  0097                     	;# 
   108  0098                     	;# 
   109  0099                     	;# 
   110  009A                     	;# 
   111  009B                     	;# 
   112  009C                     	;# 
   113  009D                     	;# 
   114  009E                     	;# 
   115  009F                     	;# 
   116  0105                     	;# 
   117  0107                     	;# 
   118  0108                     	;# 
   119  0109                     	;# 
   120  010C                     	;# 
   121  010C                     	;# 
   122  010D                     	;# 
   123  010E                     	;# 
   124  010F                     	;# 
   125  0185                     	;# 
   126  0187                     	;# 
   127  0188                     	;# 
   128  0189                     	;# 
   129  018C                     	;# 
   130  018D                     	;# 
   131  0000                     	;# 
   132  0001                     	;# 
   133  0002                     	;# 
   134  0003                     	;# 
   135  0004                     	;# 
   136  0005                     	;# 
   137  0006                     	;# 
   138  0007                     	;# 
   139  0008                     	;# 
   140  0009                     	;# 
   141  000A                     	;# 
   142  000B                     	;# 
   143  000C                     	;# 
   144  000D                     	;# 
   145  000E                     	;# 
   146  000E                     	;# 
   147  000F                     	;# 
   148  0010                     	;# 
   149  0011                     	;# 
   150  0012                     	;# 
   151  0013                     	;# 
   152  0014                     	;# 
   153  0015                     	;# 
   154  0015                     	;# 
   155  0016                     	;# 
   156  0017                     	;# 
   157  0018                     	;# 
   158  0019                     	;# 
   159  001A                     	;# 
   160  001B                     	;# 
   161  001B                     	;# 
   162  001C                     	;# 
   163  001D                     	;# 
   164  001E                     	;# 
   165  001F                     	;# 
   166  0081                     	;# 
   167  0085                     	;# 
   168  0086                     	;# 
   169  0087                     	;# 
   170  0088                     	;# 
   171  0089                     	;# 
   172  008C                     	;# 
   173  008D                     	;# 
   174  008E                     	;# 
   175  008F                     	;# 
   176  0090                     	;# 
   177  0091                     	;# 
   178  0092                     	;# 
   179  0093                     	;# 
   180  0093                     	;# 
   181  0093                     	;# 
   182  0094                     	;# 
   183  0095                     	;# 
   184  0096                     	;# 
   185  0097                     	;# 
   186  0098                     	;# 
   187  0099                     	;# 
   188  009A                     	;# 
   189  009B                     	;# 
   190  009C                     	;# 
   191  009D                     	;# 
   192  009E                     	;# 
   193  009F                     	;# 
   194  0105                     	;# 
   195  0107                     	;# 
   196  0108                     	;# 
   197  0109                     	;# 
   198  010C                     	;# 
   199  010C                     	;# 
   200  010D                     	;# 
   201  010E                     	;# 
   202  010F                     	;# 
   203  0185                     	;# 
   204  0187                     	;# 
   205  0188                     	;# 
   206  0189                     	;# 
   207  018C                     	;# 
   208  018D                     	;# 
   209  0000                     	;# 
   210  0001                     	;# 
   211  0002                     	;# 
   212  0003                     	;# 
   213  0004                     	;# 
   214  0005                     	;# 
   215  0006                     	;# 
   216  0007                     	;# 
   217  0008                     	;# 
   218  0009                     	;# 
   219  000A                     	;# 
   220  000B                     	;# 
   221  000C                     	;# 
   222  000D                     	;# 
   223  000E                     	;# 
   224  000E                     	;# 
   225  000F                     	;# 
   226  0010                     	;# 
   227  0011                     	;# 
   228  0012                     	;# 
   229  0013                     	;# 
   230  0014                     	;# 
   231  0015                     	;# 
   232  0015                     	;# 
   233  0016                     	;# 
   234  0017                     	;# 
   235  0018                     	;# 
   236  0019                     	;# 
   237  001A                     	;# 
   238  001B                     	;# 
   239  001B                     	;# 
   240  001C                     	;# 
   241  001D                     	;# 
   242  001E                     	;# 
   243  001F                     	;# 
   244  0081                     	;# 
   245  0085                     	;# 
   246  0086                     	;# 
   247  0087                     	;# 
   248  0088                     	;# 
   249  0089                     	;# 
   250  008C                     	;# 
   251  008D                     	;# 
   252  008E                     	;# 
   253  008F                     	;# 
   254  0090                     	;# 
   255  0091                     	;# 
   256  0092                     	;# 
   257  0093                     	;# 
   258  0093                     	;# 
   259  0093                     	;# 
   260  0094                     	;# 
   261  0095                     	;# 
   262  0096                     	;# 
   263  0097                     	;# 
   264  0098                     	;# 
   265  0099                     	;# 
   266  009A                     	;# 
   267  009B                     	;# 
   268  009C                     	;# 
   269  009D                     	;# 
   270  009E                     	;# 
   271  009F                     	;# 
   272  0105                     	;# 
   273  0107                     	;# 
   274  0108                     	;# 
   275  0109                     	;# 
   276  010C                     	;# 
   277  010C                     	;# 
   278  010D                     	;# 
   279  010E                     	;# 
   280  010F                     	;# 
   281  0185                     	;# 
   282  0187                     	;# 
   283  0188                     	;# 
   284  0189                     	;# 
   285  018C                     	;# 
   286  018D                     	;# 
   287  0000                     	;# 
   288  0001                     	;# 
   289  0002                     	;# 
   290  0003                     	;# 
   291  0004                     	;# 
   292  0005                     	;# 
   293  0006                     	;# 
   294  0007                     	;# 
   295  0008                     	;# 
   296  0009                     	;# 
   297  000A                     	;# 
   298  000B                     	;# 
   299  000C                     	;# 
   300  000D                     	;# 
   301  000E                     	;# 
   302  000E                     	;# 
   303  000F                     	;# 
   304  0010                     	;# 
   305  0011                     	;# 
   306  0012                     	;# 
   307  0013                     	;# 
   308  0014                     	;# 
   309  0015                     	;# 
   310  0015                     	;# 
   311  0016                     	;# 
   312  0017                     	;# 
   313  0018                     	;# 
   314  0019                     	;# 
   315  001A                     	;# 
   316  001B                     	;# 
   317  001B                     	;# 
   318  001C                     	;# 
   319  001D                     	;# 
   320  001E                     	;# 
   321  001F                     	;# 
   322  0081                     	;# 
   323  0085                     	;# 
   324  0086                     	;# 
   325  0087                     	;# 
   326  0088                     	;# 
   327  0089                     	;# 
   328  008C                     	;# 
   329  008D                     	;# 
   330  008E                     	;# 
   331  008F                     	;# 
   332  0090                     	;# 
   333  0091                     	;# 
   334  0092                     	;# 
   335  0093                     	;# 
   336  0093                     	;# 
   337  0093                     	;# 
   338  0094                     	;# 
   339  0095                     	;# 
   340  0096                     	;# 
   341  0097                     	;# 
   342  0098                     	;# 
   343  0099                     	;# 
   344  009A                     	;# 
   345  009B                     	;# 
   346  009C                     	;# 
   347  009D                     	;# 
   348  009E                     	;# 
   349  009F                     	;# 
   350  0105                     	;# 
   351  0107                     	;# 
   352  0108                     	;# 
   353  0109                     	;# 
   354  010C                     	;# 
   355  010C                     	;# 
   356  010D                     	;# 
   357  010E                     	;# 
   358  010F                     	;# 
   359  0185                     	;# 
   360  0187                     	;# 
   361  0188                     	;# 
   362  0189                     	;# 
   363  018C                     	;# 
   364  018D                     	;# 
   365  0000                     	;# 
   366  0001                     	;# 
   367  0002                     	;# 
   368  0003                     	;# 
   369  0004                     	;# 
   370  0005                     	;# 
   371  0006                     	;# 
   372  0007                     	;# 
   373  0008                     	;# 
   374  0009                     	;# 
   375  000A                     	;# 
   376  000B                     	;# 
   377  000C                     	;# 
   378  000D                     	;# 
   379  000E                     	;# 
   380  000E                     	;# 
   381  000F                     	;# 
   382  0010                     	;# 
   383  0011                     	;# 
   384  0012                     	;# 
   385  0013                     	;# 
   386  0014                     	;# 
   387  0015                     	;# 
   388  0015                     	;# 
   389  0016                     	;# 
   390  0017                     	;# 
   391  0018                     	;# 
   392  0019                     	;# 
   393  001A                     	;# 
   394  001B                     	;# 
   395  001B                     	;# 
   396  001C                     	;# 
   397  001D                     	;# 
   398  001E                     	;# 
   399  001F                     	;# 
   400  0081                     	;# 
   401  0085                     	;# 
   402  0086                     	;# 
   403  0087                     	;# 
   404  0088                     	;# 
   405  0089                     	;# 
   406  008C                     	;# 
   407  008D                     	;# 
   408  008E                     	;# 
   409  008F                     	;# 
   410  0090                     	;# 
   411  0091                     	;# 
   412  0092                     	;# 
   413  0093                     	;# 
   414  0093                     	;# 
   415  0093                     	;# 
   416  0094                     	;# 
   417  0095                     	;# 
   418  0096                     	;# 
   419  0097                     	;# 
   420  0098                     	;# 
   421  0099                     	;# 
   422  009A                     	;# 
   423  009B                     	;# 
   424  009C                     	;# 
   425  009D                     	;# 
   426  009E                     	;# 
   427  009F                     	;# 
   428  0105                     	;# 
   429  0107                     	;# 
   430  0108                     	;# 
   431  0109                     	;# 
   432  010C                     	;# 
   433  010C                     	;# 
   434  010D                     	;# 
   435  010E                     	;# 
   436  010F                     	;# 
   437  0185                     	;# 
   438  0187                     	;# 
   439  0188                     	;# 
   440  0189                     	;# 
   441  018C                     	;# 
   442  018D                     	;# 
   443  0005                     _PORTA	set	5
   444  0009                     _PORTE	set	9
   445  0006                     _PORTB	set	6
   446  0008                     _PORTD	set	8
   447  0007                     _PORTC	set	7
   448  001E                     _ADRESH	set	30
   449  000C                     _PIR1bits	set	12
   450  0001                     _TMR0	set	1
   451  000B                     _INTCONbits	set	11
   452  0013                     _SSPBUF	set	19
   453  0014                     _SSPCON	set	20
   454  001F                     _ADCON0bits	set	31
   455  008C                     _PIE1bits	set	140
   456  0087                     _TRISCbits	set	135
   457  0085                     _TRISAbits	set	133
   458  0089                     _TRISE	set	137
   459  0086                     _TRISB	set	134
   460  0088                     _TRISD	set	136
   461  0087                     _TRISC	set	135
   462  0081                     _OPTION_REG	set	129
   463  008F                     _OSCCONbits	set	143
   464  0094                     _SSPSTATbits	set	148
   465  0094                     _SSPSTAT	set	148
   466  009F                     _ADCON1	set	159
   467  043B                     _TRISC3	set	1083
   468  043D                     _TRISC5	set	1085
   469  0189                     _ANSELH	set	393
   470  0188                     _ANSELbits	set	392
   471  0188                     _ANSEL	set	392
   472                           
   473                           	psect	cinit
   474  0013                     start_initialization:	
   475                           ; #config settings
   476                           
   477  0013                     __initialization:
   478                           
   479                           ; Clear objects allocated to COMMON
   480  0013  01F7               	clrf	__pbssCOMMON& (0+127)
   481  0014  01F8               	clrf	(__pbssCOMMON+1)& (0+127)
   482  0015                     end_of_initialization:	
   483                           ;End of C runtime variable initialization code
   484                           
   485  0015                     __end_of__initialization:
   486  0015  0183               	clrf	3
   487  0016  120A  118A  29D3   	ljmp	_main	;jump to C main() function
   488                           
   489                           	psect	bssCOMMON
   490  0077                     __pbssCOMMON:
   491  0077                     _ADC_GO:
   492  0077                     	ds	1
   493  0078                     _ADC:
   494  0078                     	ds	1
   495                           
   496                           	psect	cstackCOMMON
   497  0070                     __pcstackCOMMON:
   498  0070                     ?_setup:
   499  0070                     ?_GO_ADC:	
   500                           ; 1 bytes @ 0x0
   501                           
   502  0070                     ?_LEDS:	
   503                           ; 1 bytes @ 0x0
   504                           
   505  0070                     ?_initOsc:	
   506                           ; 1 bytes @ 0x0
   507                           
   508  0070                     ?_isr:	
   509                           ; 1 bytes @ 0x0
   510                           
   511  0070                     ??_isr:	
   512                           ; 1 bytes @ 0x0
   513                           
   514  0070                     ?_main:	
   515                           ; 1 bytes @ 0x0
   516                           
   517                           
   518                           ; 1 bytes @ 0x0
   519  0070                     	ds	3
   520  0073                     ??_GO_ADC:
   521  0073                     ??_LEDS:	
   522                           ; 1 bytes @ 0x3
   523                           
   524  0073                     ?_configADC:	
   525                           ; 1 bytes @ 0x3
   526                           
   527  0073                     ?_spiInit:	
   528                           ; 1 bytes @ 0x3
   529                           
   530  0073                     ??_initOsc:	
   531                           ; 1 bytes @ 0x3
   532                           
   533  0073                     configADC@vel:	
   534                           ; 1 bytes @ 0x3
   535                           
   536  0073                     spiInit@sDataSample:	
   537                           ; 1 bytes @ 0x3
   538                           
   539                           
   540                           ; 1 bytes @ 0x3
   541  0073                     	ds	1
   542  0074                     ??_configADC:
   543  0074                     spiInit@sClockIdle:	
   544                           ; 1 bytes @ 0x4
   545                           
   546                           
   547                           ; 1 bytes @ 0x4
   548  0074                     	ds	1
   549  0075                     spiInit@sTransmitEdge:
   550  0075                     initOsc@option:	
   551                           ; 1 bytes @ 0x5
   552                           
   553                           
   554                           ; 1 bytes @ 0x5
   555  0075                     	ds	1
   556  0076                     ??_spiInit:
   557  0076                     configADC@canal:	
   558                           ; 1 bytes @ 0x6
   559                           
   560  0076                     spiInit@sType:	
   561                           ; 1 bytes @ 0x6
   562                           
   563                           
   564                           ; 1 bytes @ 0x6
   565  0076                     	ds	1
   566  0077                     ??_setup:
   567  0077                     ??_main:	
   568                           ; 1 bytes @ 0x7
   569                           
   570                           
   571                           	psect	maintext
   572  01D3                     __pmaintext:	
   573                           ; 1 bytes @ 0x7
   574 ;;
   575 ;;Main: autosize = 0, tempsize = 0, incstack = 0, save=0
   576 ;;
   577 ;; *************** function _main *****************
   578 ;; Defined at:
   579 ;;		line 67 in file "C:/MPlab_Digital2/Digital_2/Esclavo3proyecto1Digital2.X/main.c"
   580 ;; Parameters:    Size  Location     Type
   581 ;;		None
   582 ;; Auto vars:     Size  Location     Type
   583 ;;		None
   584 ;; Return value:  Size  Location     Type
   585 ;;                  1    wreg      void 
   586 ;; Registers used:
   587 ;;		wreg, fsr0l, fsr0h, status,2, status,0, btemp+1, pclath, cstack
   588 ;; Tracked objects:
   589 ;;		On entry : B00/0
   590 ;;		On exit  : 0/0
   591 ;;		Unchanged: 0/0
   592 ;; Data sizes:     COMMON   BANK0   BANK1   BANK3   BANK2
   593 ;;      Params:         0       0       0       0       0
   594 ;;      Locals:         0       0       0       0       0
   595 ;;      Temps:          0       0       0       0       0
   596 ;;      Totals:         0       0       0       0       0
   597 ;;Total ram usage:        0 bytes
   598 ;; Hardware stack levels required when called:    3
   599 ;; This function calls:
   600 ;;		_GO_ADC
   601 ;;		_LEDS
   602 ;;		_setup
   603 ;; This function is called by:
   604 ;;		Startup code after reset
   605 ;; This function uses a non-reentrant model
   606 ;;
   607                           
   608                           
   609                           ;psect for function _main
   610  01D3                     _main:
   611  01D3                     l1067:	
   612                           ;incstack = 0
   613                           ; Regs used in _main: [wreg-fsr0h+status,2+status,0+btemp+1+pclath+cstack]
   614                           
   615                           
   616                           ;C:/MPlab_Digital2/Digital_2/Esclavo3proyecto1Digital2.X/main.c: 68:     TRISCbits.TRISC
      +                          5 = 0;
   617  01D3  120A  118A  2150  120A  118A  	fcall	_setup
   618  01D8                     l1069:
   619                           
   620                           ;C:/MPlab_Digital2/Digital_2/Esclavo3proyecto1Digital2.X/main.c: 73:     INTCONbits.PEIE
      +                           = 1;
   621  01D8  120A  118A  21F6  120A  118A  	fcall	_GO_ADC
   622  01DD                     l1071:
   623                           
   624                           ;C:/MPlab_Digital2/Digital_2/Esclavo3proyecto1Digital2.X/main.c: 74:     INTCONbits.TMR0
      +                          IE = 1;
   625  01DD  120A  118A  21E6  120A  118A  	fcall	_LEDS
   626  01E2  29D8               	goto	l1069
   627  01E3  120A  118A  2810   	ljmp	start
   628  01E6                     __end_of_main:
   629                           
   630                           	psect	text1
   631  0150                     __ptext1:	
   632 ;; *************** function _setup *****************
   633 ;; Defined at:
   634 ;;		line 83 in file "C:/MPlab_Digital2/Digital_2/Esclavo3proyecto1Digital2.X/main.c"
   635 ;; Parameters:    Size  Location     Type
   636 ;;		None
   637 ;; Auto vars:     Size  Location     Type
   638 ;;		None
   639 ;; Return value:  Size  Location     Type
   640 ;;                  1    wreg      void 
   641 ;; Registers used:
   642 ;;		wreg, fsr0l, fsr0h, status,2, status,0, btemp+1, pclath, cstack
   643 ;; Tracked objects:
   644 ;;		On entry : 0/0
   645 ;;		On exit  : 0/0
   646 ;;		Unchanged: 0/0
   647 ;; Data sizes:     COMMON   BANK0   BANK1   BANK3   BANK2
   648 ;;      Params:         0       0       0       0       0
   649 ;;      Locals:         0       0       0       0       0
   650 ;;      Temps:          0       0       0       0       0
   651 ;;      Totals:         0       0       0       0       0
   652 ;;Total ram usage:        0 bytes
   653 ;; Hardware stack levels used:    1
   654 ;; Hardware stack levels required when called:    2
   655 ;; This function calls:
   656 ;;		_configADC
   657 ;;		_initOsc
   658 ;;		_spiInit
   659 ;; This function is called by:
   660 ;;		_main
   661 ;; This function uses a non-reentrant model
   662 ;;
   663                           
   664                           
   665                           ;psect for function _setup
   666  0150                     _setup:
   667  0150                     l1013:	
   668                           ;incstack = 0
   669                           ; Regs used in _setup: [wreg-fsr0h+status,2+status,0+btemp+1+pclath+cstack]
   670                           
   671                           
   672                           ;C:/MPlab_Digital2/Digital_2/Esclavo3proyecto1Digital2.X/main.c: 84:        }
   673  0150  3006               	movlw	6
   674  0151  120A  118A  20FB  120A  118A  	fcall	_initOsc
   675  0156                     l1015:
   676                           
   677                           ;C:/MPlab_Digital2/Digital_2/Esclavo3proyecto1Digital2.X/main.c: 85:     }
   678  0156  3002               	movlw	2
   679  0157  00FF               	movwf	btemp+1
   680  0158  087F               	movf	btemp+1,w
   681  0159  00F3               	movwf	configADC@vel
   682  015A  3000               	movlw	0
   683  015B  120A  118A  2019  120A  118A  	fcall	_configADC
   684  0160                     l1017:
   685                           
   686                           ;C:/MPlab_Digital2/Digital_2/Esclavo3proyecto1Digital2.X/main.c: 86: void LEDS (void){
   687  0160  3010               	movlw	16
   688  0161  1683               	bsf	3,5	;RP0=1, select bank1
   689  0162  1303               	bcf	3,6	;RP1=0, select bank1
   690  0163  009F               	movwf	31	;volatile
   691  0164                     l1019:
   692                           
   693                           ;C:/MPlab_Digital2/Digital_2/Esclavo3proyecto1Digital2.X/main.c: 87:     if (ADC <= 0x29
      +                          ){
   694  0164  3057               	movlw	87
   695  0165  0081               	movwf	1	;volatile
   696  0166                     l1021:
   697                           
   698                           ;C:/MPlab_Digital2/Digital_2/Esclavo3proyecto1Digital2.X/main.c: 88:         PORTE = 1;
   699  0166  1683               	bsf	3,5	;RP0=1, select bank3
   700  0167  1703               	bsf	3,6	;RP1=1, select bank3
   701  0168  0188               	clrf	8	;volatile
   702  0169                     l1023:
   703                           
   704                           ;C:/MPlab_Digital2/Digital_2/Esclavo3proyecto1Digital2.X/main.c: 89:     }else if (0x29 
      +                          < ADC <= 0x2E){
   705  0169  1408               	bsf	8,0	;volatile
   706  016A                     l1025:
   707                           
   708                           ;C:/MPlab_Digital2/Digital_2/Esclavo3proyecto1Digital2.X/main.c: 90:         PORTE = 2;
   709  016A  0189               	clrf	9	;volatile
   710  016B                     l1027:
   711                           
   712                           ;C:/MPlab_Digital2/Digital_2/Esclavo3proyecto1Digital2.X/main.c: 91:     }else if (ADC >
      +                           0x2E){
   713  016B  1283               	bcf	3,5	;RP0=0, select bank0
   714  016C  1303               	bcf	3,6	;RP1=0, select bank0
   715  016D  0187               	clrf	7	;volatile
   716  016E                     l1029:
   717                           
   718                           ;C:/MPlab_Digital2/Digital_2/Esclavo3proyecto1Digital2.X/main.c: 92:         PORTE = 3;
   719  016E  1683               	bsf	3,5	;RP0=1, select bank1
   720  016F  1303               	bcf	3,6	;RP1=0, select bank1
   721  0170  0187               	clrf	7	;volatile
   722  0171                     l1031:
   723                           
   724                           ;C:/MPlab_Digital2/Digital_2/Esclavo3proyecto1Digital2.X/main.c: 93:     }
   725  0171  1283               	bcf	3,5	;RP0=0, select bank0
   726  0172  1303               	bcf	3,6	;RP1=0, select bank0
   727  0173  0188               	clrf	8	;volatile
   728  0174                     l1033:
   729                           
   730                           ;C:/MPlab_Digital2/Digital_2/Esclavo3proyecto1Digital2.X/main.c: 94: }
   731  0174  1683               	bsf	3,5	;RP0=1, select bank1
   732  0175  1303               	bcf	3,6	;RP1=0, select bank1
   733  0176  0188               	clrf	8	;volatile
   734  0177                     l1035:
   735  0177  0186               	clrf	6	;volatile
   736  0178                     l1037:
   737  0178  1283               	bcf	3,5	;RP0=0, select bank0
   738  0179  1303               	bcf	3,6	;RP1=0, select bank0
   739  017A  0186               	clrf	6	;volatile
   740  017B                     l1039:
   741  017B  1683               	bsf	3,5	;RP0=1, select bank1
   742  017C  1303               	bcf	3,6	;RP1=0, select bank1
   743  017D  0189               	clrf	9	;volatile
   744  017E                     l1041:
   745  017E  1283               	bcf	3,5	;RP0=0, select bank0
   746  017F  1303               	bcf	3,6	;RP1=0, select bank0
   747  0180  0189               	clrf	9	;volatile
   748  0181                     l1043:
   749  0181  0185               	clrf	5	;volatile
   750  0182                     l1045:
   751  0182  1683               	bsf	3,5	;RP0=1, select bank1
   752  0183  1303               	bcf	3,6	;RP1=0, select bank1
   753  0184  1585               	bsf	5,3	;volatile
   754  0185                     l1047:
   755  0185  1405               	bsf	5,0	;volatile
   756  0186                     l1049:
   757  0186  1287               	bcf	7,5	;volatile
   758  0187                     l1051:
   759  0187  1685               	bsf	5,5	;volatile
   760  0188                     l1053:
   761  0188  01F3               	clrf	spiInit@sDataSample
   762  0189  01F4               	clrf	spiInit@sClockIdle
   763  018A  01F5               	clrf	spiInit@sTransmitEdge
   764  018B  3024               	movlw	36
   765  018C  120A  118A  21BD  120A  118A  	fcall	_spiInit
   766  0191                     l1055:
   767  0191  178B               	bsf	11,7	;volatile
   768  0192                     l1057:
   769  0192  170B               	bsf	11,6	;volatile
   770  0193                     l1059:
   771  0193  168B               	bsf	11,5	;volatile
   772  0194                     l1061:
   773  0194  1683               	bsf	3,5	;RP0=1, select bank1
   774  0195  1303               	bcf	3,6	;RP1=0, select bank1
   775  0196  170C               	bsf	12,6	;volatile
   776  0197                     l1063:
   777  0197  158C               	bsf	12,3	;volatile
   778  0198                     l1065:
   779  0198  1283               	bcf	3,5	;RP0=0, select bank0
   780  0199  1303               	bcf	3,6	;RP1=0, select bank0
   781  019A  118C               	bcf	12,3	;volatile
   782  019B                     l163:
   783  019B  0008               	return
   784  019C                     __end_of_setup:
   785                           
   786                           	psect	text2
   787  01BD                     __ptext2:	
   788 ;; *************** function _spiInit *****************
   789 ;; Defined at:
   790 ;;		line 12 in file "C:/MPlab_Digital2/Digital_2/Esclavo3proyecto1Digital2.X/SPI.c"
   791 ;; Parameters:    Size  Location     Type
   792 ;;  sType           1    wreg     enum E1264
   793 ;;  sDataSample     1    3[COMMON] enum E1272
   794 ;;  sClockIdle      1    4[COMMON] enum E1276
   795 ;;  sTransmitEdg    1    5[COMMON] enum E1280
   796 ;; Auto vars:     Size  Location     Type
   797 ;;  sType           1    6[COMMON] enum E1264
   798 ;; Return value:  Size  Location     Type
   799 ;;                  1    wreg      void 
   800 ;; Registers used:
   801 ;;		wreg, status,2, status,0
   802 ;; Tracked objects:
   803 ;;		On entry : 0/0
   804 ;;		On exit  : 0/0
   805 ;;		Unchanged: 0/0
   806 ;; Data sizes:     COMMON   BANK0   BANK1   BANK3   BANK2
   807 ;;      Params:         3       0       0       0       0
   808 ;;      Locals:         1       0       0       0       0
   809 ;;      Temps:          0       0       0       0       0
   810 ;;      Totals:         4       0       0       0       0
   811 ;;Total ram usage:        4 bytes
   812 ;; Hardware stack levels used:    1
   813 ;; Hardware stack levels required when called:    1
   814 ;; This function calls:
   815 ;;		Nothing
   816 ;; This function is called by:
   817 ;;		_setup
   818 ;; This function uses a non-reentrant model
   819 ;;
   820                           
   821                           
   822                           ;psect for function _spiInit
   823  01BD                     _spiInit:
   824                           
   825                           ;incstack = 0
   826                           ; Regs used in _spiInit: [wreg+status,2+status,0]
   827                           ;spiInit@sType stored from wreg
   828  01BD  00F6               	movwf	spiInit@sType
   829  01BE                     l1003:
   830                           
   831                           ;C:/MPlab_Digital2/Digital_2/Esclavo3proyecto1Digital2.X/SPI.c: 12: void spiInit(Spi_Typ
      +                          e sType, Spi_Data_Sample sDataSample, Spi_Clock_Idle sClockIdle, Spi_Transmit_Edge sTran
      +                          smitEdge);C:/MPlab_Digital2/Digital_2/Esclavo3proyecto1Digital2.X/SPI.c: 13: {;C:/MPlab_
      +                          Digital2/Digital_2/Esclavo3proyecto1Digital2.X/SPI.c: 14:     TRISC5 = 0;
   832  01BE  1683               	bsf	3,5	;RP0=1, select bank1
   833  01BF  1303               	bcf	3,6	;RP1=0, select bank1
   834  01C0  1287               	bcf	7,5	;volatile
   835                           
   836                           ;C:/MPlab_Digital2/Digital_2/Esclavo3proyecto1Digital2.X/SPI.c: 15:     if(sType & 0b000
      +                          00100)
   837  01C1  1D76               	btfss	spiInit@sType,2
   838  01C2  29C4               	goto	u71
   839  01C3  29C5               	goto	u70
   840  01C4                     u71:
   841  01C4  29C9               	goto	l1009
   842  01C5                     u70:
   843  01C5                     l1005:
   844                           
   845                           ;C:/MPlab_Digital2/Digital_2/Esclavo3proyecto1Digital2.X/SPI.c: 16:     {;C:/MPlab_Digit
      +                          al2/Digital_2/Esclavo3proyecto1Digital2.X/SPI.c: 17:         SSPSTAT = sTransmitEdge;
   846  01C5  0875               	movf	spiInit@sTransmitEdge,w
   847  01C6  0094               	movwf	20	;volatile
   848  01C7                     l1007:
   849                           
   850                           ;C:/MPlab_Digital2/Digital_2/Esclavo3proyecto1Digital2.X/SPI.c: 18:         TRISC3 = 1;
   851  01C7  1587               	bsf	7,3	;volatile
   852                           
   853                           ;C:/MPlab_Digital2/Digital_2/Esclavo3proyecto1Digital2.X/SPI.c: 19:     }
   854  01C8  29CD               	goto	l49
   855  01C9                     l1009:
   856                           
   857                           ;C:/MPlab_Digital2/Digital_2/Esclavo3proyecto1Digital2.X/SPI.c: 21:     {;C:/MPlab_Digit
      +                          al2/Digital_2/Esclavo3proyecto1Digital2.X/SPI.c: 22:         SSPSTAT = sDataSample | sTr
      +                          ansmitEdge;
   858  01C9  0873               	movf	spiInit@sDataSample,w
   859  01CA  0475               	iorwf	spiInit@sTransmitEdge,w
   860  01CB  0094               	movwf	20	;volatile
   861  01CC                     l1011:
   862                           
   863                           ;C:/MPlab_Digital2/Digital_2/Esclavo3proyecto1Digital2.X/SPI.c: 23:         TRISC3 = 0;
   864  01CC  1187               	bcf	7,3	;volatile
   865  01CD                     l49:	
   866                           ;C:/MPlab_Digital2/Digital_2/Esclavo3proyecto1Digital2.X/SPI.c: 24:     }
   867                           
   868                           
   869                           ;C:/MPlab_Digital2/Digital_2/Esclavo3proyecto1Digital2.X/SPI.c: 26:     SSPCON = sType |
      +                           sClockIdle;
   870  01CD  0876               	movf	spiInit@sType,w
   871  01CE  0474               	iorwf	spiInit@sClockIdle,w
   872  01CF  1283               	bcf	3,5	;RP0=0, select bank0
   873  01D0  1303               	bcf	3,6	;RP1=0, select bank0
   874  01D1  0094               	movwf	20	;volatile
   875  01D2                     l50:
   876  01D2  0008               	return
   877  01D3                     __end_of_spiInit:
   878                           
   879                           	psect	text3
   880  00FB                     __ptext3:	
   881 ;; *************** function _initOsc *****************
   882 ;; Defined at:
   883 ;;		line 8 in file "C:/MPlab_Digital2/Digital_2/Esclavo3proyecto1Digital2.X/librerias2.c"
   884 ;; Parameters:    Size  Location     Type
   885 ;;  option          1    wreg     unsigned char 
   886 ;; Auto vars:     Size  Location     Type
   887 ;;  option          1    5[COMMON] unsigned char 
   888 ;; Return value:  Size  Location     Type
   889 ;;                  1    wreg      void 
   890 ;; Registers used:
   891 ;;		wreg, fsr0l, fsr0h, status,2, status,0
   892 ;; Tracked objects:
   893 ;;		On entry : 0/0
   894 ;;		On exit  : 0/0
   895 ;;		Unchanged: 0/0
   896 ;; Data sizes:     COMMON   BANK0   BANK1   BANK3   BANK2
   897 ;;      Params:         0       0       0       0       0
   898 ;;      Locals:         1       0       0       0       0
   899 ;;      Temps:          2       0       0       0       0
   900 ;;      Totals:         3       0       0       0       0
   901 ;;Total ram usage:        3 bytes
   902 ;; Hardware stack levels used:    1
   903 ;; Hardware stack levels required when called:    1
   904 ;; This function calls:
   905 ;;		Nothing
   906 ;; This function is called by:
   907 ;;		_setup
   908 ;; This function uses a non-reentrant model
   909 ;;
   910                           
   911                           
   912                           ;psect for function _initOsc
   913  00FB                     _initOsc:
   914                           
   915                           ;incstack = 0
   916                           ; Regs used in _initOsc: [wreg-fsr0h+status,2+status,0]
   917                           ;initOsc@option stored from wreg
   918  00FB  00F5               	movwf	initOsc@option
   919  00FC                     l799:
   920                           
   921                           ;C:/MPlab_Digital2/Digital_2/Esclavo3proyecto1Digital2.X/librerias2.c: 9:     switch (op
      +                          tion){
   922  00FC  292D               	goto	l803
   923  00FD                     l73:	
   924                           ;C:/MPlab_Digital2/Digital_2/Esclavo3proyecto1Digital2.X/librerias2.c: 10:         case 
      +                          0:
   925                           
   926                           
   927                           ;C:/MPlab_Digital2/Digital_2/Esclavo3proyecto1Digital2.X/librerias2.c: 11:             O
      +                          SCCONbits.IRCF2 = 0;
   928  00FD  1683               	bsf	3,5	;RP0=1, select bank1
   929  00FE  1303               	bcf	3,6	;RP1=0, select bank1
   930  00FF  130F               	bcf	15,6	;volatile
   931                           
   932                           ;C:/MPlab_Digital2/Digital_2/Esclavo3proyecto1Digital2.X/librerias2.c: 12:             O
      +                          SCCONbits.IRCF1 = 0;
   933  0100  128F               	bcf	15,5	;volatile
   934                           
   935                           ;C:/MPlab_Digital2/Digital_2/Esclavo3proyecto1Digital2.X/librerias2.c: 13:             O
      +                          SCCONbits.IRCF0 = 0;
   936  0101  120F               	bcf	15,4	;volatile
   937                           
   938                           ;C:/MPlab_Digital2/Digital_2/Esclavo3proyecto1Digital2.X/librerias2.c: 14:             b
      +                          reak;
   939  0102  294F               	goto	l82
   940  0103                     l75:	
   941                           ;C:/MPlab_Digital2/Digital_2/Esclavo3proyecto1Digital2.X/librerias2.c: 15:         case 
      +                          1:
   942                           
   943                           
   944                           ;C:/MPlab_Digital2/Digital_2/Esclavo3proyecto1Digital2.X/librerias2.c: 16:             O
      +                          SCCONbits.IRCF2 = 0;
   945  0103  1683               	bsf	3,5	;RP0=1, select bank1
   946  0104  1303               	bcf	3,6	;RP1=0, select bank1
   947  0105  130F               	bcf	15,6	;volatile
   948                           
   949                           ;C:/MPlab_Digital2/Digital_2/Esclavo3proyecto1Digital2.X/librerias2.c: 17:             O
      +                          SCCONbits.IRCF1 = 0;
   950  0106  128F               	bcf	15,5	;volatile
   951                           
   952                           ;C:/MPlab_Digital2/Digital_2/Esclavo3proyecto1Digital2.X/librerias2.c: 18:             O
      +                          SCCONbits.IRCF0 = 1;
   953  0107  160F               	bsf	15,4	;volatile
   954                           
   955                           ;C:/MPlab_Digital2/Digital_2/Esclavo3proyecto1Digital2.X/librerias2.c: 19:             b
      +                          reak;
   956  0108  294F               	goto	l82
   957  0109                     l76:	
   958                           ;C:/MPlab_Digital2/Digital_2/Esclavo3proyecto1Digital2.X/librerias2.c: 20:         case 
      +                          2:
   959                           
   960                           
   961                           ;C:/MPlab_Digital2/Digital_2/Esclavo3proyecto1Digital2.X/librerias2.c: 21:             O
      +                          SCCONbits.IRCF2 = 0;
   962  0109  1683               	bsf	3,5	;RP0=1, select bank1
   963  010A  1303               	bcf	3,6	;RP1=0, select bank1
   964  010B  130F               	bcf	15,6	;volatile
   965                           
   966                           ;C:/MPlab_Digital2/Digital_2/Esclavo3proyecto1Digital2.X/librerias2.c: 22:             O
      +                          SCCONbits.IRCF1 = 1;
   967  010C  168F               	bsf	15,5	;volatile
   968                           
   969                           ;C:/MPlab_Digital2/Digital_2/Esclavo3proyecto1Digital2.X/librerias2.c: 23:             O
      +                          SCCONbits.IRCF0 = 0;
   970  010D  120F               	bcf	15,4	;volatile
   971                           
   972                           ;C:/MPlab_Digital2/Digital_2/Esclavo3proyecto1Digital2.X/librerias2.c: 24:             b
      +                          reak;
   973  010E  294F               	goto	l82
   974  010F                     l77:	
   975                           ;C:/MPlab_Digital2/Digital_2/Esclavo3proyecto1Digital2.X/librerias2.c: 25:         case 
      +                          3:
   976                           
   977                           
   978                           ;C:/MPlab_Digital2/Digital_2/Esclavo3proyecto1Digital2.X/librerias2.c: 26:             O
      +                          SCCONbits.IRCF2 = 0;
   979  010F  1683               	bsf	3,5	;RP0=1, select bank1
   980  0110  1303               	bcf	3,6	;RP1=0, select bank1
   981  0111  130F               	bcf	15,6	;volatile
   982                           
   983                           ;C:/MPlab_Digital2/Digital_2/Esclavo3proyecto1Digital2.X/librerias2.c: 27:             O
      +                          SCCONbits.IRCF1 = 1;
   984  0112  168F               	bsf	15,5	;volatile
   985                           
   986                           ;C:/MPlab_Digital2/Digital_2/Esclavo3proyecto1Digital2.X/librerias2.c: 28:             O
      +                          SCCONbits.IRCF0 = 1;
   987  0113  160F               	bsf	15,4	;volatile
   988                           
   989                           ;C:/MPlab_Digital2/Digital_2/Esclavo3proyecto1Digital2.X/librerias2.c: 29:             b
      +                          reak;
   990  0114  294F               	goto	l82
   991  0115                     l78:	
   992                           ;C:/MPlab_Digital2/Digital_2/Esclavo3proyecto1Digital2.X/librerias2.c: 30:         case 
      +                          4:
   993                           
   994                           
   995                           ;C:/MPlab_Digital2/Digital_2/Esclavo3proyecto1Digital2.X/librerias2.c: 31:             O
      +                          SCCONbits.IRCF2 = 1;
   996  0115  1683               	bsf	3,5	;RP0=1, select bank1
   997  0116  1303               	bcf	3,6	;RP1=0, select bank1
   998  0117  170F               	bsf	15,6	;volatile
   999                           
  1000                           ;C:/MPlab_Digital2/Digital_2/Esclavo3proyecto1Digital2.X/librerias2.c: 32:             O
      +                          SCCONbits.IRCF1 = 0;
  1001  0118  128F               	bcf	15,5	;volatile
  1002                           
  1003                           ;C:/MPlab_Digital2/Digital_2/Esclavo3proyecto1Digital2.X/librerias2.c: 33:             O
      +                          SCCONbits.IRCF0 = 0;
  1004  0119  120F               	bcf	15,4	;volatile
  1005                           
  1006                           ;C:/MPlab_Digital2/Digital_2/Esclavo3proyecto1Digital2.X/librerias2.c: 34:             b
      +                          reak;
  1007  011A  294F               	goto	l82
  1008  011B                     l79:	
  1009                           ;C:/MPlab_Digital2/Digital_2/Esclavo3proyecto1Digital2.X/librerias2.c: 35:         case 
      +                          5:
  1010                           
  1011                           
  1012                           ;C:/MPlab_Digital2/Digital_2/Esclavo3proyecto1Digital2.X/librerias2.c: 36:             O
      +                          SCCONbits.IRCF2 = 1;
  1013  011B  1683               	bsf	3,5	;RP0=1, select bank1
  1014  011C  1303               	bcf	3,6	;RP1=0, select bank1
  1015  011D  170F               	bsf	15,6	;volatile
  1016                           
  1017                           ;C:/MPlab_Digital2/Digital_2/Esclavo3proyecto1Digital2.X/librerias2.c: 37:             O
      +                          SCCONbits.IRCF1 = 0;
  1018  011E  128F               	bcf	15,5	;volatile
  1019                           
  1020                           ;C:/MPlab_Digital2/Digital_2/Esclavo3proyecto1Digital2.X/librerias2.c: 38:             O
      +                          SCCONbits.IRCF0 = 1;
  1021  011F  160F               	bsf	15,4	;volatile
  1022                           
  1023                           ;C:/MPlab_Digital2/Digital_2/Esclavo3proyecto1Digital2.X/librerias2.c: 39:             b
      +                          reak;
  1024  0120  294F               	goto	l82
  1025  0121                     l80:	
  1026                           ;C:/MPlab_Digital2/Digital_2/Esclavo3proyecto1Digital2.X/librerias2.c: 40:         case 
      +                          6:
  1027                           
  1028                           
  1029                           ;C:/MPlab_Digital2/Digital_2/Esclavo3proyecto1Digital2.X/librerias2.c: 41:             O
      +                          SCCONbits.IRCF2 = 1;
  1030  0121  1683               	bsf	3,5	;RP0=1, select bank1
  1031  0122  1303               	bcf	3,6	;RP1=0, select bank1
  1032  0123  170F               	bsf	15,6	;volatile
  1033                           
  1034                           ;C:/MPlab_Digital2/Digital_2/Esclavo3proyecto1Digital2.X/librerias2.c: 42:             O
      +                          SCCONbits.IRCF1 = 1;
  1035  0124  168F               	bsf	15,5	;volatile
  1036                           
  1037                           ;C:/MPlab_Digital2/Digital_2/Esclavo3proyecto1Digital2.X/librerias2.c: 43:             O
      +                          SCCONbits.IRCF0 = 0;
  1038  0125  120F               	bcf	15,4	;volatile
  1039                           
  1040                           ;C:/MPlab_Digital2/Digital_2/Esclavo3proyecto1Digital2.X/librerias2.c: 44:             b
      +                          reak;
  1041  0126  294F               	goto	l82
  1042  0127                     l81:	
  1043                           ;C:/MPlab_Digital2/Digital_2/Esclavo3proyecto1Digital2.X/librerias2.c: 45:         case 
      +                          7:
  1044                           
  1045                           
  1046                           ;C:/MPlab_Digital2/Digital_2/Esclavo3proyecto1Digital2.X/librerias2.c: 46:             O
      +                          SCCONbits.IRCF2 = 1;
  1047  0127  1683               	bsf	3,5	;RP0=1, select bank1
  1048  0128  1303               	bcf	3,6	;RP1=0, select bank1
  1049  0129  170F               	bsf	15,6	;volatile
  1050                           
  1051                           ;C:/MPlab_Digital2/Digital_2/Esclavo3proyecto1Digital2.X/librerias2.c: 47:             O
      +                          SCCONbits.IRCF1 = 1;
  1052  012A  168F               	bsf	15,5	;volatile
  1053                           
  1054                           ;C:/MPlab_Digital2/Digital_2/Esclavo3proyecto1Digital2.X/librerias2.c: 48:             O
      +                          SCCONbits.IRCF0 = 1;
  1055  012B  160F               	bsf	15,4	;volatile
  1056                           
  1057                           ;C:/MPlab_Digital2/Digital_2/Esclavo3proyecto1Digital2.X/librerias2.c: 49:             b
      +                          reak;
  1058  012C  294F               	goto	l82
  1059  012D                     l803:
  1060  012D  0875               	movf	initOsc@option,w
  1061  012E  00F3               	movwf	??_initOsc
  1062  012F  01F4               	clrf	??_initOsc+1
  1063                           
  1064                           ; Switch on 2 bytes has been partitioned into a top level switch of size 1, and 1 sub-sw
      +                          itches
  1065                           ; Switch size 1, requested type "simple"
  1066                           ; Number of cases is 1, Range of values is 0 to 0
  1067                           ; switch strategies available:
  1068                           ; Name         Instructions Cycles
  1069                           ; simple_byte            4     3 (average)
  1070                           ; direct_byte           11     8 (fixed)
  1071                           ; jumptable            260     6 (fixed)
  1072                           ;	Chosen strategy is simple_byte
  1073  0130  0874               	movf	??_initOsc+1,w
  1074  0131  3A00               	xorlw	0	; case 0
  1075  0132  1903               	skipnz
  1076  0133  2935               	goto	l1133
  1077  0134  294F               	goto	l82
  1078  0135                     l1133:
  1079                           
  1080                           ; Switch size 1, requested type "simple"
  1081                           ; Number of cases is 8, Range of values is 0 to 7
  1082                           ; switch strategies available:
  1083                           ; Name         Instructions Cycles
  1084                           ; simple_byte           25    13 (average)
  1085                           ; direct_byte           32     8 (fixed)
  1086                           ; jumptable            260     6 (fixed)
  1087                           ;	Chosen strategy is simple_byte
  1088  0135  0873               	movf	??_initOsc,w
  1089  0136  3A00               	xorlw	0	; case 0
  1090  0137  1903               	skipnz
  1091  0138  28FD               	goto	l73
  1092  0139  3A01               	xorlw	1	; case 1
  1093  013A  1903               	skipnz
  1094  013B  2903               	goto	l75
  1095  013C  3A03               	xorlw	3	; case 2
  1096  013D  1903               	skipnz
  1097  013E  2909               	goto	l76
  1098  013F  3A01               	xorlw	1	; case 3
  1099  0140  1903               	skipnz
  1100  0141  290F               	goto	l77
  1101  0142  3A07               	xorlw	7	; case 4
  1102  0143  1903               	skipnz
  1103  0144  2915               	goto	l78
  1104  0145  3A01               	xorlw	1	; case 5
  1105  0146  1903               	skipnz
  1106  0147  291B               	goto	l79
  1107  0148  3A03               	xorlw	3	; case 6
  1108  0149  1903               	skipnz
  1109  014A  2921               	goto	l80
  1110  014B  3A01               	xorlw	1	; case 7
  1111  014C  1903               	skipnz
  1112  014D  2927               	goto	l81
  1113  014E  294F               	goto	l82
  1114  014F                     l82:
  1115  014F  0008               	return
  1116  0150                     __end_of_initOsc:
  1117                           
  1118                           	psect	text4
  1119  0019                     __ptext4:	
  1120 ;; *************** function _configADC *****************
  1121 ;; Defined at:
  1122 ;;		line 4 in file "C:/MPlab_Digital2/Digital_2/Esclavo3proyecto1Digital2.X/configuracionADC.c"
  1123 ;; Parameters:    Size  Location     Type
  1124 ;;  canal           1    wreg     unsigned char 
  1125 ;;  vel             1    3[COMMON] unsigned char 
  1126 ;; Auto vars:     Size  Location     Type
  1127 ;;  canal           1    6[COMMON] unsigned char 
  1128 ;; Return value:  Size  Location     Type
  1129 ;;                  1    wreg      void 
  1130 ;; Registers used:
  1131 ;;		wreg, fsr0l, fsr0h, status,2, status,0
  1132 ;; Tracked objects:
  1133 ;;		On entry : 0/0
  1134 ;;		On exit  : 0/0
  1135 ;;		Unchanged: 0/0
  1136 ;; Data sizes:     COMMON   BANK0   BANK1   BANK3   BANK2
  1137 ;;      Params:         1       0       0       0       0
  1138 ;;      Locals:         1       0       0       0       0
  1139 ;;      Temps:          2       0       0       0       0
  1140 ;;      Totals:         4       0       0       0       0
  1141 ;;Total ram usage:        4 bytes
  1142 ;; Hardware stack levels used:    1
  1143 ;; Hardware stack levels required when called:    1
  1144 ;; This function calls:
  1145 ;;		Nothing
  1146 ;; This function is called by:
  1147 ;;		_setup
  1148 ;; This function uses a non-reentrant model
  1149 ;;
  1150                           
  1151                           
  1152                           ;psect for function _configADC
  1153  0019                     _configADC:
  1154                           
  1155                           ;incstack = 0
  1156                           ; Regs used in _configADC: [wreg-fsr0h+status,2+status,0]
  1157                           ;configADC@canal stored from wreg
  1158  0019  00F6               	movwf	configADC@canal
  1159  001A                     l981:
  1160                           
  1161                           ;C:/MPlab_Digital2/Digital_2/Esclavo3proyecto1Digital2.X/configuracionADC.c: 5:     ADCO
      +                          N1 = 0;
  1162  001A  1683               	bsf	3,5	;RP0=1, select bank1
  1163  001B  1303               	bcf	3,6	;RP1=0, select bank1
  1164  001C  019F               	clrf	31	;volatile
  1165                           
  1166                           ;C:/MPlab_Digital2/Digital_2/Esclavo3proyecto1Digital2.X/configuracionADC.c: 6:     swit
      +                          ch (canal){
  1167  001D  288E               	goto	l985
  1168  001E                     l10:	
  1169                           ;C:/MPlab_Digital2/Digital_2/Esclavo3proyecto1Digital2.X/configuracionADC.c: 7:         
      +                          case 0:
  1170                           
  1171                           
  1172                           ;C:/MPlab_Digital2/Digital_2/Esclavo3proyecto1Digital2.X/configuracionADC.c: 8:         
      +                              ADCON0bits.CHS3 = 0;
  1173  001E  1283               	bcf	3,5	;RP0=0, select bank0
  1174  001F  1303               	bcf	3,6	;RP1=0, select bank0
  1175  0020  129F               	bcf	31,5	;volatile
  1176                           
  1177                           ;C:/MPlab_Digital2/Digital_2/Esclavo3proyecto1Digital2.X/configuracionADC.c: 9:         
      +                              ADCON0bits.CHS2 = 0;
  1178  0021  121F               	bcf	31,4	;volatile
  1179                           
  1180                           ;C:/MPlab_Digital2/Digital_2/Esclavo3proyecto1Digital2.X/configuracionADC.c: 10:        
      +                               ADCON0bits.CHS1 = 0;
  1181  0022  119F               	bcf	31,3	;volatile
  1182                           
  1183                           ;C:/MPlab_Digital2/Digital_2/Esclavo3proyecto1Digital2.X/configuracionADC.c: 11:        
      +                               ADCON0bits.CHS0 = 0;
  1184  0023  111F               	bcf	31,2	;volatile
  1185                           
  1186                           ;C:/MPlab_Digital2/Digital_2/Esclavo3proyecto1Digital2.X/configuracionADC.c: 12:        
      +                               break;
  1187  0024  28D8               	goto	l989
  1188  0025                     l12:	
  1189                           ;C:/MPlab_Digital2/Digital_2/Esclavo3proyecto1Digital2.X/configuracionADC.c: 13:        
      +                           case 1:
  1190                           
  1191                           
  1192                           ;C:/MPlab_Digital2/Digital_2/Esclavo3proyecto1Digital2.X/configuracionADC.c: 14:        
      +                               ADCON0bits.CHS3 = 0;
  1193  0025  1283               	bcf	3,5	;RP0=0, select bank0
  1194  0026  1303               	bcf	3,6	;RP1=0, select bank0
  1195  0027  129F               	bcf	31,5	;volatile
  1196                           
  1197                           ;C:/MPlab_Digital2/Digital_2/Esclavo3proyecto1Digital2.X/configuracionADC.c: 15:        
      +                               ADCON0bits.CHS2 = 0;
  1198  0028  121F               	bcf	31,4	;volatile
  1199                           
  1200                           ;C:/MPlab_Digital2/Digital_2/Esclavo3proyecto1Digital2.X/configuracionADC.c: 16:        
      +                               ADCON0bits.CHS1 = 0;
  1201  0029  119F               	bcf	31,3	;volatile
  1202                           
  1203                           ;C:/MPlab_Digital2/Digital_2/Esclavo3proyecto1Digital2.X/configuracionADC.c: 17:        
      +                               ADCON0bits.CHS0 = 1;
  1204  002A  151F               	bsf	31,2	;volatile
  1205                           
  1206                           ;C:/MPlab_Digital2/Digital_2/Esclavo3proyecto1Digital2.X/configuracionADC.c: 18:        
      +                               break;
  1207  002B  28D8               	goto	l989
  1208  002C                     l13:	
  1209                           ;C:/MPlab_Digital2/Digital_2/Esclavo3proyecto1Digital2.X/configuracionADC.c: 19:        
      +                           case 2:
  1210                           
  1211                           
  1212                           ;C:/MPlab_Digital2/Digital_2/Esclavo3proyecto1Digital2.X/configuracionADC.c: 20:        
      +                               ADCON0bits.CHS3 = 0;
  1213  002C  1283               	bcf	3,5	;RP0=0, select bank0
  1214  002D  1303               	bcf	3,6	;RP1=0, select bank0
  1215  002E  129F               	bcf	31,5	;volatile
  1216                           
  1217                           ;C:/MPlab_Digital2/Digital_2/Esclavo3proyecto1Digital2.X/configuracionADC.c: 21:        
      +                               ADCON0bits.CHS2 = 0;
  1218  002F  121F               	bcf	31,4	;volatile
  1219                           
  1220                           ;C:/MPlab_Digital2/Digital_2/Esclavo3proyecto1Digital2.X/configuracionADC.c: 22:        
      +                               ADCON0bits.CHS1 = 1;
  1221  0030  159F               	bsf	31,3	;volatile
  1222                           
  1223                           ;C:/MPlab_Digital2/Digital_2/Esclavo3proyecto1Digital2.X/configuracionADC.c: 23:        
      +                               ADCON0bits.CHS0 = 0;
  1224  0031  111F               	bcf	31,2	;volatile
  1225                           
  1226                           ;C:/MPlab_Digital2/Digital_2/Esclavo3proyecto1Digital2.X/configuracionADC.c: 24:        
      +                               break;
  1227  0032  28D8               	goto	l989
  1228  0033                     l14:	
  1229                           ;C:/MPlab_Digital2/Digital_2/Esclavo3proyecto1Digital2.X/configuracionADC.c: 25:        
      +                           case 3:
  1230                           
  1231                           
  1232                           ;C:/MPlab_Digital2/Digital_2/Esclavo3proyecto1Digital2.X/configuracionADC.c: 26:        
      +                               ADCON0bits.CHS3 = 0;
  1233  0033  1283               	bcf	3,5	;RP0=0, select bank0
  1234  0034  1303               	bcf	3,6	;RP1=0, select bank0
  1235  0035  129F               	bcf	31,5	;volatile
  1236                           
  1237                           ;C:/MPlab_Digital2/Digital_2/Esclavo3proyecto1Digital2.X/configuracionADC.c: 27:        
      +                               ADCON0bits.CHS2 = 0;
  1238  0036  121F               	bcf	31,4	;volatile
  1239                           
  1240                           ;C:/MPlab_Digital2/Digital_2/Esclavo3proyecto1Digital2.X/configuracionADC.c: 28:        
      +                               ADCON0bits.CHS1 = 1;
  1241  0037  159F               	bsf	31,3	;volatile
  1242                           
  1243                           ;C:/MPlab_Digital2/Digital_2/Esclavo3proyecto1Digital2.X/configuracionADC.c: 29:        
      +                               ADCON0bits.CHS0 = 1;
  1244  0038  151F               	bsf	31,2	;volatile
  1245                           
  1246                           ;C:/MPlab_Digital2/Digital_2/Esclavo3proyecto1Digital2.X/configuracionADC.c: 30:        
      +                               break;
  1247  0039  28D8               	goto	l989
  1248  003A                     l15:	
  1249                           ;C:/MPlab_Digital2/Digital_2/Esclavo3proyecto1Digital2.X/configuracionADC.c: 31:        
      +                           case 4:
  1250                           
  1251                           
  1252                           ;C:/MPlab_Digital2/Digital_2/Esclavo3proyecto1Digital2.X/configuracionADC.c: 32:        
      +                               ADCON0bits.CHS3 = 0;
  1253  003A  1283               	bcf	3,5	;RP0=0, select bank0
  1254  003B  1303               	bcf	3,6	;RP1=0, select bank0
  1255  003C  129F               	bcf	31,5	;volatile
  1256                           
  1257                           ;C:/MPlab_Digital2/Digital_2/Esclavo3proyecto1Digital2.X/configuracionADC.c: 33:        
      +                               ADCON0bits.CHS2 = 1;
  1258  003D  161F               	bsf	31,4	;volatile
  1259                           
  1260                           ;C:/MPlab_Digital2/Digital_2/Esclavo3proyecto1Digital2.X/configuracionADC.c: 34:        
      +                               ADCON0bits.CHS1 = 0;
  1261  003E  119F               	bcf	31,3	;volatile
  1262                           
  1263                           ;C:/MPlab_Digital2/Digital_2/Esclavo3proyecto1Digital2.X/configuracionADC.c: 35:        
      +                               ADCON0bits.CHS0 = 0;
  1264  003F  111F               	bcf	31,2	;volatile
  1265                           
  1266                           ;C:/MPlab_Digital2/Digital_2/Esclavo3proyecto1Digital2.X/configuracionADC.c: 36:        
      +                               break;
  1267  0040  28D8               	goto	l989
  1268  0041                     l16:	
  1269                           ;C:/MPlab_Digital2/Digital_2/Esclavo3proyecto1Digital2.X/configuracionADC.c: 37:        
      +                           case 5:
  1270                           
  1271                           
  1272                           ;C:/MPlab_Digital2/Digital_2/Esclavo3proyecto1Digital2.X/configuracionADC.c: 38:        
      +                               ADCON0bits.CHS3 = 0;
  1273  0041  1283               	bcf	3,5	;RP0=0, select bank0
  1274  0042  1303               	bcf	3,6	;RP1=0, select bank0
  1275  0043  129F               	bcf	31,5	;volatile
  1276                           
  1277                           ;C:/MPlab_Digital2/Digital_2/Esclavo3proyecto1Digital2.X/configuracionADC.c: 39:        
      +                               ADCON0bits.CHS2 = 1;
  1278  0044  161F               	bsf	31,4	;volatile
  1279                           
  1280                           ;C:/MPlab_Digital2/Digital_2/Esclavo3proyecto1Digital2.X/configuracionADC.c: 40:        
      +                               ADCON0bits.CHS1 = 0;
  1281  0045  119F               	bcf	31,3	;volatile
  1282                           
  1283                           ;C:/MPlab_Digital2/Digital_2/Esclavo3proyecto1Digital2.X/configuracionADC.c: 41:        
      +                               ADCON0bits.CHS0 = 1;
  1284  0046  151F               	bsf	31,2	;volatile
  1285                           
  1286                           ;C:/MPlab_Digital2/Digital_2/Esclavo3proyecto1Digital2.X/configuracionADC.c: 42:        
      +                               break;
  1287  0047  28D8               	goto	l989
  1288  0048                     l17:	
  1289                           ;C:/MPlab_Digital2/Digital_2/Esclavo3proyecto1Digital2.X/configuracionADC.c: 43:        
      +                           case 6:
  1290                           
  1291                           
  1292                           ;C:/MPlab_Digital2/Digital_2/Esclavo3proyecto1Digital2.X/configuracionADC.c: 44:        
      +                               ADCON0bits.CHS3 = 0;
  1293  0048  1283               	bcf	3,5	;RP0=0, select bank0
  1294  0049  1303               	bcf	3,6	;RP1=0, select bank0
  1295  004A  129F               	bcf	31,5	;volatile
  1296                           
  1297                           ;C:/MPlab_Digital2/Digital_2/Esclavo3proyecto1Digital2.X/configuracionADC.c: 45:        
      +                               ADCON0bits.CHS2 = 1;
  1298  004B  161F               	bsf	31,4	;volatile
  1299                           
  1300                           ;C:/MPlab_Digital2/Digital_2/Esclavo3proyecto1Digital2.X/configuracionADC.c: 46:        
      +                               ADCON0bits.CHS1 = 1;
  1301  004C  159F               	bsf	31,3	;volatile
  1302                           
  1303                           ;C:/MPlab_Digital2/Digital_2/Esclavo3proyecto1Digital2.X/configuracionADC.c: 47:        
      +                               ADCON0bits.CHS0 = 0;
  1304  004D  111F               	bcf	31,2	;volatile
  1305                           
  1306                           ;C:/MPlab_Digital2/Digital_2/Esclavo3proyecto1Digital2.X/configuracionADC.c: 48:        
      +                               break;
  1307  004E  28D8               	goto	l989
  1308  004F                     l18:	
  1309                           ;C:/MPlab_Digital2/Digital_2/Esclavo3proyecto1Digital2.X/configuracionADC.c: 49:        
      +                           case 7:
  1310                           
  1311                           
  1312                           ;C:/MPlab_Digital2/Digital_2/Esclavo3proyecto1Digital2.X/configuracionADC.c: 50:        
      +                               ADCON0bits.CHS3 = 0;
  1313  004F  1283               	bcf	3,5	;RP0=0, select bank0
  1314  0050  1303               	bcf	3,6	;RP1=0, select bank0
  1315  0051  129F               	bcf	31,5	;volatile
  1316                           
  1317                           ;C:/MPlab_Digital2/Digital_2/Esclavo3proyecto1Digital2.X/configuracionADC.c: 51:        
      +                               ADCON0bits.CHS2 = 1;
  1318  0052  161F               	bsf	31,4	;volatile
  1319                           
  1320                           ;C:/MPlab_Digital2/Digital_2/Esclavo3proyecto1Digital2.X/configuracionADC.c: 52:        
      +                               ADCON0bits.CHS1 = 1;
  1321  0053  159F               	bsf	31,3	;volatile
  1322                           
  1323                           ;C:/MPlab_Digital2/Digital_2/Esclavo3proyecto1Digital2.X/configuracionADC.c: 53:        
      +                               ADCON0bits.CHS0 = 1;
  1324  0054  151F               	bsf	31,2	;volatile
  1325                           
  1326                           ;C:/MPlab_Digital2/Digital_2/Esclavo3proyecto1Digital2.X/configuracionADC.c: 54:        
      +                               break;
  1327  0055  28D8               	goto	l989
  1328  0056                     l19:	
  1329                           ;C:/MPlab_Digital2/Digital_2/Esclavo3proyecto1Digital2.X/configuracionADC.c: 55:        
      +                           case 8:
  1330                           
  1331                           
  1332                           ;C:/MPlab_Digital2/Digital_2/Esclavo3proyecto1Digital2.X/configuracionADC.c: 56:        
      +                               ADCON0bits.CHS3 = 1;
  1333  0056  1283               	bcf	3,5	;RP0=0, select bank0
  1334  0057  1303               	bcf	3,6	;RP1=0, select bank0
  1335  0058  169F               	bsf	31,5	;volatile
  1336                           
  1337                           ;C:/MPlab_Digital2/Digital_2/Esclavo3proyecto1Digital2.X/configuracionADC.c: 57:        
      +                               ADCON0bits.CHS2 = 0;
  1338  0059  121F               	bcf	31,4	;volatile
  1339                           
  1340                           ;C:/MPlab_Digital2/Digital_2/Esclavo3proyecto1Digital2.X/configuracionADC.c: 58:        
      +                               ADCON0bits.CHS1 = 0;
  1341  005A  119F               	bcf	31,3	;volatile
  1342                           
  1343                           ;C:/MPlab_Digital2/Digital_2/Esclavo3proyecto1Digital2.X/configuracionADC.c: 59:        
      +                               ADCON0bits.CHS0 = 0;
  1344  005B  111F               	bcf	31,2	;volatile
  1345                           
  1346                           ;C:/MPlab_Digital2/Digital_2/Esclavo3proyecto1Digital2.X/configuracionADC.c: 60:        
      +                               break;
  1347  005C  28D8               	goto	l989
  1348  005D                     l20:	
  1349                           ;C:/MPlab_Digital2/Digital_2/Esclavo3proyecto1Digital2.X/configuracionADC.c: 61:        
      +                           case 9:
  1350                           
  1351                           
  1352                           ;C:/MPlab_Digital2/Digital_2/Esclavo3proyecto1Digital2.X/configuracionADC.c: 62:        
      +                               ADCON0bits.CHS3 = 1;
  1353  005D  1283               	bcf	3,5	;RP0=0, select bank0
  1354  005E  1303               	bcf	3,6	;RP1=0, select bank0
  1355  005F  169F               	bsf	31,5	;volatile
  1356                           
  1357                           ;C:/MPlab_Digital2/Digital_2/Esclavo3proyecto1Digital2.X/configuracionADC.c: 63:        
      +                               ADCON0bits.CHS2 = 0;
  1358  0060  121F               	bcf	31,4	;volatile
  1359                           
  1360                           ;C:/MPlab_Digital2/Digital_2/Esclavo3proyecto1Digital2.X/configuracionADC.c: 64:        
      +                               ADCON0bits.CHS1 = 0;
  1361  0061  119F               	bcf	31,3	;volatile
  1362                           
  1363                           ;C:/MPlab_Digital2/Digital_2/Esclavo3proyecto1Digital2.X/configuracionADC.c: 65:        
      +                               ADCON0bits.CHS0 = 1;
  1364  0062  151F               	bsf	31,2	;volatile
  1365                           
  1366                           ;C:/MPlab_Digital2/Digital_2/Esclavo3proyecto1Digital2.X/configuracionADC.c: 66:        
      +                               break;
  1367  0063  28D8               	goto	l989
  1368  0064                     l21:	
  1369                           ;C:/MPlab_Digital2/Digital_2/Esclavo3proyecto1Digital2.X/configuracionADC.c: 67:        
      +                           case 10:
  1370                           
  1371                           
  1372                           ;C:/MPlab_Digital2/Digital_2/Esclavo3proyecto1Digital2.X/configuracionADC.c: 68:        
      +                               ADCON0bits.CHS3 = 1;
  1373  0064  1283               	bcf	3,5	;RP0=0, select bank0
  1374  0065  1303               	bcf	3,6	;RP1=0, select bank0
  1375  0066  169F               	bsf	31,5	;volatile
  1376                           
  1377                           ;C:/MPlab_Digital2/Digital_2/Esclavo3proyecto1Digital2.X/configuracionADC.c: 69:        
      +                               ADCON0bits.CHS2 = 0;
  1378  0067  121F               	bcf	31,4	;volatile
  1379                           
  1380                           ;C:/MPlab_Digital2/Digital_2/Esclavo3proyecto1Digital2.X/configuracionADC.c: 70:        
      +                               ADCON0bits.CHS1 = 1;
  1381  0068  159F               	bsf	31,3	;volatile
  1382                           
  1383                           ;C:/MPlab_Digital2/Digital_2/Esclavo3proyecto1Digital2.X/configuracionADC.c: 71:        
      +                               ADCON0bits.CHS0 = 0;
  1384  0069  111F               	bcf	31,2	;volatile
  1385                           
  1386                           ;C:/MPlab_Digital2/Digital_2/Esclavo3proyecto1Digital2.X/configuracionADC.c: 72:        
      +                               break;
  1387  006A  28D8               	goto	l989
  1388  006B                     l22:	
  1389                           ;C:/MPlab_Digital2/Digital_2/Esclavo3proyecto1Digital2.X/configuracionADC.c: 73:        
      +                           case 11:
  1390                           
  1391                           
  1392                           ;C:/MPlab_Digital2/Digital_2/Esclavo3proyecto1Digital2.X/configuracionADC.c: 74:        
      +                               ADCON0bits.CHS3 = 1;
  1393  006B  1283               	bcf	3,5	;RP0=0, select bank0
  1394  006C  1303               	bcf	3,6	;RP1=0, select bank0
  1395  006D  169F               	bsf	31,5	;volatile
  1396                           
  1397                           ;C:/MPlab_Digital2/Digital_2/Esclavo3proyecto1Digital2.X/configuracionADC.c: 75:        
      +                               ADCON0bits.CHS2 = 0;
  1398  006E  121F               	bcf	31,4	;volatile
  1399                           
  1400                           ;C:/MPlab_Digital2/Digital_2/Esclavo3proyecto1Digital2.X/configuracionADC.c: 76:        
      +                               ADCON0bits.CHS1 = 1;
  1401  006F  159F               	bsf	31,3	;volatile
  1402                           
  1403                           ;C:/MPlab_Digital2/Digital_2/Esclavo3proyecto1Digital2.X/configuracionADC.c: 77:        
      +                               ADCON0bits.CHS0 = 1;
  1404  0070  151F               	bsf	31,2	;volatile
  1405                           
  1406                           ;C:/MPlab_Digital2/Digital_2/Esclavo3proyecto1Digital2.X/configuracionADC.c: 78:        
      +                               break;
  1407  0071  28D8               	goto	l989
  1408  0072                     l23:	
  1409                           ;C:/MPlab_Digital2/Digital_2/Esclavo3proyecto1Digital2.X/configuracionADC.c: 79:        
      +                           case 12:
  1410                           
  1411                           
  1412                           ;C:/MPlab_Digital2/Digital_2/Esclavo3proyecto1Digital2.X/configuracionADC.c: 80:        
      +                               ADCON0bits.CHS3 = 1;
  1413  0072  1283               	bcf	3,5	;RP0=0, select bank0
  1414  0073  1303               	bcf	3,6	;RP1=0, select bank0
  1415  0074  169F               	bsf	31,5	;volatile
  1416                           
  1417                           ;C:/MPlab_Digital2/Digital_2/Esclavo3proyecto1Digital2.X/configuracionADC.c: 81:        
      +                               ADCON0bits.CHS2 = 1;
  1418  0075  161F               	bsf	31,4	;volatile
  1419                           
  1420                           ;C:/MPlab_Digital2/Digital_2/Esclavo3proyecto1Digital2.X/configuracionADC.c: 82:        
      +                               ADCON0bits.CHS1 = 0;
  1421  0076  119F               	bcf	31,3	;volatile
  1422                           
  1423                           ;C:/MPlab_Digital2/Digital_2/Esclavo3proyecto1Digital2.X/configuracionADC.c: 83:        
      +                               ADCON0bits.CHS0 = 0;
  1424  0077  111F               	bcf	31,2	;volatile
  1425                           
  1426                           ;C:/MPlab_Digital2/Digital_2/Esclavo3proyecto1Digital2.X/configuracionADC.c: 84:        
      +                               break;
  1427  0078  28D8               	goto	l989
  1428  0079                     l24:	
  1429                           ;C:/MPlab_Digital2/Digital_2/Esclavo3proyecto1Digital2.X/configuracionADC.c: 85:        
      +                           case 13:
  1430                           
  1431                           
  1432                           ;C:/MPlab_Digital2/Digital_2/Esclavo3proyecto1Digital2.X/configuracionADC.c: 86:        
      +                               ADCON0bits.CHS3 = 1;
  1433  0079  1283               	bcf	3,5	;RP0=0, select bank0
  1434  007A  1303               	bcf	3,6	;RP1=0, select bank0
  1435  007B  169F               	bsf	31,5	;volatile
  1436                           
  1437                           ;C:/MPlab_Digital2/Digital_2/Esclavo3proyecto1Digital2.X/configuracionADC.c: 87:        
      +                               ADCON0bits.CHS2 = 1;
  1438  007C  161F               	bsf	31,4	;volatile
  1439                           
  1440                           ;C:/MPlab_Digital2/Digital_2/Esclavo3proyecto1Digital2.X/configuracionADC.c: 88:        
      +                               ADCON0bits.CHS1 = 0;
  1441  007D  119F               	bcf	31,3	;volatile
  1442                           
  1443                           ;C:/MPlab_Digital2/Digital_2/Esclavo3proyecto1Digital2.X/configuracionADC.c: 89:        
      +                               ADCON0bits.CHS0 = 1;
  1444  007E  151F               	bsf	31,2	;volatile
  1445                           
  1446                           ;C:/MPlab_Digital2/Digital_2/Esclavo3proyecto1Digital2.X/configuracionADC.c: 90:        
      +                               break;
  1447  007F  28D8               	goto	l989
  1448  0080                     l25:	
  1449                           ;C:/MPlab_Digital2/Digital_2/Esclavo3proyecto1Digital2.X/configuracionADC.c: 91:        
      +                           case 14:
  1450                           
  1451                           
  1452                           ;C:/MPlab_Digital2/Digital_2/Esclavo3proyecto1Digital2.X/configuracionADC.c: 92:        
      +                               ADCON0bits.CHS3 = 1;
  1453  0080  1283               	bcf	3,5	;RP0=0, select bank0
  1454  0081  1303               	bcf	3,6	;RP1=0, select bank0
  1455  0082  169F               	bsf	31,5	;volatile
  1456                           
  1457                           ;C:/MPlab_Digital2/Digital_2/Esclavo3proyecto1Digital2.X/configuracionADC.c: 93:        
      +                               ADCON0bits.CHS2 = 1;
  1458  0083  161F               	bsf	31,4	;volatile
  1459                           
  1460                           ;C:/MPlab_Digital2/Digital_2/Esclavo3proyecto1Digital2.X/configuracionADC.c: 94:        
      +                               ADCON0bits.CHS1 = 1;
  1461  0084  159F               	bsf	31,3	;volatile
  1462                           
  1463                           ;C:/MPlab_Digital2/Digital_2/Esclavo3proyecto1Digital2.X/configuracionADC.c: 95:        
      +                               ADCON0bits.CHS0 = 0;
  1464  0085  111F               	bcf	31,2	;volatile
  1465                           
  1466                           ;C:/MPlab_Digital2/Digital_2/Esclavo3proyecto1Digital2.X/configuracionADC.c: 96:        
      +                               break;
  1467  0086  28D8               	goto	l989
  1468  0087                     l26:	
  1469                           ;C:/MPlab_Digital2/Digital_2/Esclavo3proyecto1Digital2.X/configuracionADC.c: 97:        
      +                           case 15:
  1470                           
  1471                           
  1472                           ;C:/MPlab_Digital2/Digital_2/Esclavo3proyecto1Digital2.X/configuracionADC.c: 98:        
      +                               ADCON0bits.CHS3 = 1;
  1473  0087  1283               	bcf	3,5	;RP0=0, select bank0
  1474  0088  1303               	bcf	3,6	;RP1=0, select bank0
  1475  0089  169F               	bsf	31,5	;volatile
  1476                           
  1477                           ;C:/MPlab_Digital2/Digital_2/Esclavo3proyecto1Digital2.X/configuracionADC.c: 99:        
      +                               ADCON0bits.CHS2 = 1;
  1478  008A  161F               	bsf	31,4	;volatile
  1479                           
  1480                           ;C:/MPlab_Digital2/Digital_2/Esclavo3proyecto1Digital2.X/configuracionADC.c: 100:       
      +                                ADCON0bits.CHS1 = 1;
  1481  008B  159F               	bsf	31,3	;volatile
  1482                           
  1483                           ;C:/MPlab_Digital2/Digital_2/Esclavo3proyecto1Digital2.X/configuracionADC.c: 101:       
      +                                ADCON0bits.CHS0 = 1;
  1484  008C  151F               	bsf	31,2	;volatile
  1485                           
  1486                           ;C:/MPlab_Digital2/Digital_2/Esclavo3proyecto1Digital2.X/configuracionADC.c: 102:       
      +                                break;
  1487  008D  28D8               	goto	l989
  1488  008E                     l985:
  1489  008E  0876               	movf	configADC@canal,w
  1490  008F  00F4               	movwf	??_configADC
  1491  0090  01F5               	clrf	??_configADC+1
  1492                           
  1493                           ; Switch on 2 bytes has been partitioned into a top level switch of size 1, and 1 sub-sw
      +                          itches
  1494                           ; Switch size 1, requested type "simple"
  1495                           ; Number of cases is 1, Range of values is 0 to 0
  1496                           ; switch strategies available:
  1497                           ; Name         Instructions Cycles
  1498                           ; simple_byte            4     3 (average)
  1499                           ; direct_byte           11     8 (fixed)
  1500                           ; jumptable            260     6 (fixed)
  1501                           ;	Chosen strategy is simple_byte
  1502  0091  0875               	movf	??_configADC+1,w
  1503  0092  3A00               	xorlw	0	; case 0
  1504  0093  1903               	skipnz
  1505  0094  2896               	goto	l1135
  1506  0095  28D8               	goto	l989
  1507  0096                     l1135:
  1508                           
  1509                           ; Switch size 1, requested type "simple"
  1510                           ; Number of cases is 16, Range of values is 0 to 15
  1511                           ; switch strategies available:
  1512                           ; Name         Instructions Cycles
  1513                           ; simple_byte           49    25 (average)
  1514                           ; direct_byte           56     8 (fixed)
  1515                           ; jumptable            260     6 (fixed)
  1516                           ;	Chosen strategy is simple_byte
  1517  0096  0874               	movf	??_configADC,w
  1518  0097  3A00               	xorlw	0	; case 0
  1519  0098  1903               	skipnz
  1520  0099  281E               	goto	l10
  1521  009A  3A01               	xorlw	1	; case 1
  1522  009B  1903               	skipnz
  1523  009C  2825               	goto	l12
  1524  009D  3A03               	xorlw	3	; case 2
  1525  009E  1903               	skipnz
  1526  009F  282C               	goto	l13
  1527  00A0  3A01               	xorlw	1	; case 3
  1528  00A1  1903               	skipnz
  1529  00A2  2833               	goto	l14
  1530  00A3  3A07               	xorlw	7	; case 4
  1531  00A4  1903               	skipnz
  1532  00A5  283A               	goto	l15
  1533  00A6  3A01               	xorlw	1	; case 5
  1534  00A7  1903               	skipnz
  1535  00A8  2841               	goto	l16
  1536  00A9  3A03               	xorlw	3	; case 6
  1537  00AA  1903               	skipnz
  1538  00AB  2848               	goto	l17
  1539  00AC  3A01               	xorlw	1	; case 7
  1540  00AD  1903               	skipnz
  1541  00AE  284F               	goto	l18
  1542  00AF  3A0F               	xorlw	15	; case 8
  1543  00B0  1903               	skipnz
  1544  00B1  2856               	goto	l19
  1545  00B2  3A01               	xorlw	1	; case 9
  1546  00B3  1903               	skipnz
  1547  00B4  285D               	goto	l20
  1548  00B5  3A03               	xorlw	3	; case 10
  1549  00B6  1903               	skipnz
  1550  00B7  2864               	goto	l21
  1551  00B8  3A01               	xorlw	1	; case 11
  1552  00B9  1903               	skipnz
  1553  00BA  286B               	goto	l22
  1554  00BB  3A07               	xorlw	7	; case 12
  1555  00BC  1903               	skipnz
  1556  00BD  2872               	goto	l23
  1557  00BE  3A01               	xorlw	1	; case 13
  1558  00BF  1903               	skipnz
  1559  00C0  2879               	goto	l24
  1560  00C1  3A03               	xorlw	3	; case 14
  1561  00C2  1903               	skipnz
  1562  00C3  2880               	goto	l25
  1563  00C4  3A01               	xorlw	1	; case 15
  1564  00C5  1903               	skipnz
  1565  00C6  2887               	goto	l26
  1566  00C7  28D8               	goto	l989
  1567  00C8                     l28:	
  1568                           ;C:/MPlab_Digital2/Digital_2/Esclavo3proyecto1Digital2.X/configuracionADC.c: 105:       
      +                            case 0:
  1569                           
  1570                           
  1571                           ;C:/MPlab_Digital2/Digital_2/Esclavo3proyecto1Digital2.X/configuracionADC.c: 106:       
      +                                ADCON0bits.ADCS1 = 0;
  1572  00C8  1283               	bcf	3,5	;RP0=0, select bank0
  1573  00C9  139F               	bcf	31,7	;volatile
  1574                           
  1575                           ;C:/MPlab_Digital2/Digital_2/Esclavo3proyecto1Digital2.X/configuracionADC.c: 107:       
      +                                ADCON0bits.ADCS0 = 0;
  1576  00CA  131F               	bcf	31,6	;volatile
  1577                           
  1578                           ;C:/MPlab_Digital2/Digital_2/Esclavo3proyecto1Digital2.X/configuracionADC.c: 108:       
      +                                break;
  1579  00CB  28EE               	goto	l29
  1580  00CC                     l30:	
  1581                           ;C:/MPlab_Digital2/Digital_2/Esclavo3proyecto1Digital2.X/configuracionADC.c: 109:       
      +                            case 1:
  1582                           
  1583                           
  1584                           ;C:/MPlab_Digital2/Digital_2/Esclavo3proyecto1Digital2.X/configuracionADC.c: 110:       
      +                                ADCON0bits.ADCS1 = 0;
  1585  00CC  1283               	bcf	3,5	;RP0=0, select bank0
  1586  00CD  139F               	bcf	31,7	;volatile
  1587                           
  1588                           ;C:/MPlab_Digital2/Digital_2/Esclavo3proyecto1Digital2.X/configuracionADC.c: 111:       
      +                                ADCON0bits.ADCS0 = 1;
  1589  00CE  171F               	bsf	31,6	;volatile
  1590                           
  1591                           ;C:/MPlab_Digital2/Digital_2/Esclavo3proyecto1Digital2.X/configuracionADC.c: 112:       
      +                                break;
  1592  00CF  28EE               	goto	l29
  1593  00D0                     l31:	
  1594                           ;C:/MPlab_Digital2/Digital_2/Esclavo3proyecto1Digital2.X/configuracionADC.c: 113:       
      +                            case 2:
  1595                           
  1596                           
  1597                           ;C:/MPlab_Digital2/Digital_2/Esclavo3proyecto1Digital2.X/configuracionADC.c: 114:       
      +                                ADCON0bits.ADCS1 = 1;
  1598  00D0  1283               	bcf	3,5	;RP0=0, select bank0
  1599  00D1  179F               	bsf	31,7	;volatile
  1600                           
  1601                           ;C:/MPlab_Digital2/Digital_2/Esclavo3proyecto1Digital2.X/configuracionADC.c: 115:       
      +                                ADCON0bits.ADCS0 = 0;
  1602  00D2  131F               	bcf	31,6	;volatile
  1603                           
  1604                           ;C:/MPlab_Digital2/Digital_2/Esclavo3proyecto1Digital2.X/configuracionADC.c: 116:       
      +                                break;
  1605  00D3  28EE               	goto	l29
  1606  00D4                     l32:	
  1607                           ;C:/MPlab_Digital2/Digital_2/Esclavo3proyecto1Digital2.X/configuracionADC.c: 117:       
      +                            case 3:
  1608                           
  1609                           
  1610                           ;C:/MPlab_Digital2/Digital_2/Esclavo3proyecto1Digital2.X/configuracionADC.c: 118:       
      +                                ADCON0bits.ADCS1 = 1;
  1611  00D4  1283               	bcf	3,5	;RP0=0, select bank0
  1612  00D5  179F               	bsf	31,7	;volatile
  1613                           
  1614                           ;C:/MPlab_Digital2/Digital_2/Esclavo3proyecto1Digital2.X/configuracionADC.c: 119:       
      +                                ADCON0bits.ADCS0 = 1;
  1615  00D6  171F               	bsf	31,6	;volatile
  1616                           
  1617                           ;C:/MPlab_Digital2/Digital_2/Esclavo3proyecto1Digital2.X/configuracionADC.c: 120:       
      +                                break;
  1618  00D7  28EE               	goto	l29
  1619  00D8                     l989:
  1620  00D8  0873               	movf	configADC@vel,w
  1621  00D9  00F4               	movwf	??_configADC
  1622  00DA  01F5               	clrf	??_configADC+1
  1623                           
  1624                           ; Switch on 2 bytes has been partitioned into a top level switch of size 1, and 1 sub-sw
      +                          itches
  1625                           ; Switch size 1, requested type "simple"
  1626                           ; Number of cases is 1, Range of values is 0 to 0
  1627                           ; switch strategies available:
  1628                           ; Name         Instructions Cycles
  1629                           ; simple_byte            4     3 (average)
  1630                           ; direct_byte           11     8 (fixed)
  1631                           ; jumptable            260     6 (fixed)
  1632                           ;	Chosen strategy is simple_byte
  1633  00DB  0875               	movf	??_configADC+1,w
  1634  00DC  3A00               	xorlw	0	; case 0
  1635  00DD  1903               	skipnz
  1636  00DE  28E0               	goto	l1137
  1637  00DF  28EE               	goto	l29
  1638  00E0                     l1137:
  1639                           
  1640                           ; Switch size 1, requested type "simple"
  1641                           ; Number of cases is 4, Range of values is 0 to 3
  1642                           ; switch strategies available:
  1643                           ; Name         Instructions Cycles
  1644                           ; simple_byte           13     7 (average)
  1645                           ; direct_byte           20     8 (fixed)
  1646                           ; jumptable            260     6 (fixed)
  1647                           ;	Chosen strategy is simple_byte
  1648  00E0  0874               	movf	??_configADC,w
  1649  00E1  3A00               	xorlw	0	; case 0
  1650  00E2  1903               	skipnz
  1651  00E3  28C8               	goto	l28
  1652  00E4  3A01               	xorlw	1	; case 1
  1653  00E5  1903               	skipnz
  1654  00E6  28CC               	goto	l30
  1655  00E7  3A03               	xorlw	3	; case 2
  1656  00E8  1903               	skipnz
  1657  00E9  28D0               	goto	l31
  1658  00EA  3A01               	xorlw	1	; case 3
  1659  00EB  1903               	skipnz
  1660  00EC  28D4               	goto	l32
  1661  00ED  28EE               	goto	l29
  1662  00EE                     l29:
  1663                           
  1664                           ;C:/MPlab_Digital2/Digital_2/Esclavo3proyecto1Digital2.X/configuracionADC.c: 123:     AD
      +                          CON0bits.ADON = 1;
  1665  00EE  1283               	bcf	3,5	;RP0=0, select bank0
  1666  00EF  141F               	bsf	31,0	;volatile
  1667  00F0                     l991:
  1668                           
  1669                           ;C:/MPlab_Digital2/Digital_2/Esclavo3proyecto1Digital2.X/configuracionADC.c: 124:     _d
      +                          elay((unsigned long)((11)*(400000/4000.0)));
  1670  00F0  30DB               	movlw	219
  1671  00F1  00F4               	movwf	??_configADC
  1672  00F2                     u87:
  1673  00F2  28F3               	nop2
  1674  00F3  0BF4               	decfsz	??_configADC,f
  1675  00F4  28F2               	goto	u87
  1676  00F5  28F6               	nop2
  1677  00F6  28F7               	nop2
  1678  00F7                     l993:
  1679                           
  1680                           ;C:/MPlab_Digital2/Digital_2/Esclavo3proyecto1Digital2.X/configuracionADC.c: 125:     AD
      +                          CON0bits.GO_nDONE = 1;
  1681  00F7  1283               	bcf	3,5	;RP0=0, select bank0
  1682  00F8  1303               	bcf	3,6	;RP1=0, select bank0
  1683  00F9  149F               	bsf	31,1	;volatile
  1684  00FA                     l33:
  1685  00FA  0008               	return
  1686  00FB                     __end_of_configADC:
  1687                           
  1688                           	psect	text5
  1689  01E6                     __ptext5:	
  1690 ;; *************** function _LEDS *****************
  1691 ;; Defined at:
  1692 ;;		line 120 in file "C:/MPlab_Digital2/Digital_2/Esclavo3proyecto1Digital2.X/main.c"
  1693 ;; Parameters:    Size  Location     Type
  1694 ;;		None
  1695 ;; Auto vars:     Size  Location     Type
  1696 ;;		None
  1697 ;; Return value:  Size  Location     Type
  1698 ;;                  1    wreg      void 
  1699 ;; Registers used:
  1700 ;;		wreg
  1701 ;; Tracked objects:
  1702 ;;		On entry : 0/0
  1703 ;;		On exit  : 0/0
  1704 ;;		Unchanged: 0/0
  1705 ;; Data sizes:     COMMON   BANK0   BANK1   BANK3   BANK2
  1706 ;;      Params:         0       0       0       0       0
  1707 ;;      Locals:         0       0       0       0       0
  1708 ;;      Temps:          0       0       0       0       0
  1709 ;;      Totals:         0       0       0       0       0
  1710 ;;Total ram usage:        0 bytes
  1711 ;; Hardware stack levels used:    1
  1712 ;; Hardware stack levels required when called:    1
  1713 ;; This function calls:
  1714 ;;		Nothing
  1715 ;; This function is called by:
  1716 ;;		_main
  1717 ;; This function uses a non-reentrant model
  1718 ;;
  1719                           
  1720                           
  1721                           ;psect for function _LEDS
  1722  01E6                     _LEDS:
  1723  01E6                     l871:	
  1724                           ;incstack = 0
  1725                           ; Regs used in _LEDS: [wreg]
  1726                           
  1727  01E6  302A               	movlw	42
  1728  01E7  0278               	subwf	_ADC,w
  1729  01E8  1803               	skipnc
  1730  01E9  29EB               	goto	u41
  1731  01EA  29EC               	goto	u40
  1732  01EB                     u41:
  1733  01EB  29F1               	goto	l875
  1734  01EC                     u40:
  1735  01EC                     l873:
  1736  01EC  3001               	movlw	1
  1737  01ED  1283               	bcf	3,5	;RP0=0, select bank0
  1738  01EE  1303               	bcf	3,6	;RP1=0, select bank0
  1739  01EF  0089               	movwf	9	;volatile
  1740  01F0  29F5               	goto	l175
  1741  01F1                     l875:
  1742  01F1  3002               	movlw	2
  1743  01F2  1283               	bcf	3,5	;RP0=0, select bank0
  1744  01F3  1303               	bcf	3,6	;RP1=0, select bank0
  1745  01F4  0089               	movwf	9	;volatile
  1746  01F5                     l175:
  1747  01F5  0008               	return
  1748  01F6                     __end_of_LEDS:
  1749                           
  1750                           	psect	text6
  1751  01F6                     __ptext6:	
  1752 ;; *************** function _GO_ADC *****************
  1753 ;; Defined at:
  1754 ;;		line 114 in file "C:/MPlab_Digital2/Digital_2/Esclavo3proyecto1Digital2.X/main.c"
  1755 ;; Parameters:    Size  Location     Type
  1756 ;;		None
  1757 ;; Auto vars:     Size  Location     Type
  1758 ;;		None
  1759 ;; Return value:  Size  Location     Type
  1760 ;;                  1    wreg      void 
  1761 ;; Registers used:
  1762 ;;		wreg, status,2
  1763 ;; Tracked objects:
  1764 ;;		On entry : 0/0
  1765 ;;		On exit  : 0/0
  1766 ;;		Unchanged: 0/0
  1767 ;; Data sizes:     COMMON   BANK0   BANK1   BANK3   BANK2
  1768 ;;      Params:         0       0       0       0       0
  1769 ;;      Locals:         0       0       0       0       0
  1770 ;;      Temps:          0       0       0       0       0
  1771 ;;      Totals:         0       0       0       0       0
  1772 ;;Total ram usage:        0 bytes
  1773 ;; Hardware stack levels used:    1
  1774 ;; Hardware stack levels required when called:    1
  1775 ;; This function calls:
  1776 ;;		Nothing
  1777 ;; This function is called by:
  1778 ;;		_main
  1779 ;; This function uses a non-reentrant model
  1780 ;;
  1781                           
  1782                           
  1783                           ;psect for function _GO_ADC
  1784  01F6                     _GO_ADC:
  1785  01F6                     l865:	
  1786                           ;incstack = 0
  1787                           ; Regs used in _GO_ADC: [wreg+status,2]
  1788                           
  1789  01F6  300B               	movlw	11
  1790  01F7  0277               	subwf	_ADC_GO,w
  1791  01F8  1C03               	skipc
  1792  01F9  29FB               	goto	u31
  1793  01FA  29FC               	goto	u30
  1794  01FB                     u31:
  1795  01FB  2A00               	goto	l167
  1796  01FC                     u30:
  1797  01FC                     l867:
  1798  01FC  01F7               	clrf	_ADC_GO
  1799  01FD                     l869:
  1800  01FD  1283               	bcf	3,5	;RP0=0, select bank0
  1801  01FE  1303               	bcf	3,6	;RP1=0, select bank0
  1802  01FF  149F               	bsf	31,1	;volatile
  1803  0200                     l167:
  1804  0200  0008               	return
  1805  0201                     __end_of_GO_ADC:
  1806                           
  1807                           	psect	text7
  1808  019C                     __ptext7:	
  1809 ;; *************** function _isr *****************
  1810 ;; Defined at:
  1811 ;;		line 47 in file "C:/MPlab_Digital2/Digital_2/Esclavo3proyecto1Digital2.X/main.c"
  1812 ;; Parameters:    Size  Location     Type
  1813 ;;		None
  1814 ;; Auto vars:     Size  Location     Type
  1815 ;;		None
  1816 ;; Return value:  Size  Location     Type
  1817 ;;                  1    wreg      void 
  1818 ;; Registers used:
  1819 ;;		wreg, status,2, status,0, btemp+1
  1820 ;; Tracked objects:
  1821 ;;		On entry : 0/0
  1822 ;;		On exit  : 0/0
  1823 ;;		Unchanged: 0/0
  1824 ;; Data sizes:     COMMON   BANK0   BANK1   BANK3   BANK2
  1825 ;;      Params:         0       0       0       0       0
  1826 ;;      Locals:         0       0       0       0       0
  1827 ;;      Temps:          3       0       0       0       0
  1828 ;;      Totals:         3       0       0       0       0
  1829 ;;Total ram usage:        3 bytes
  1830 ;; Hardware stack levels used:    1
  1831 ;; This function calls:
  1832 ;;		Nothing
  1833 ;; This function is called by:
  1834 ;;		Interrupt level 1
  1835 ;; This function uses a non-reentrant model
  1836 ;;
  1837                           
  1838                           
  1839                           ;psect for function _isr
  1840  019C                     _isr:
  1841  019C                     i1l895:
  1842                           
  1843                           ;C:/MPlab_Digital2/Digital_2/Esclavo3proyecto1Digital2.X/main.c: 48: 
  1844  019C  1D0B               	btfss	11,2	;volatile
  1845  019D  299F               	goto	u5_21
  1846  019E  29A0               	goto	u5_20
  1847  019F                     u5_21:
  1848  019F  29A7               	goto	i1l903
  1849  01A0                     u5_20:
  1850  01A0                     i1l897:
  1851                           
  1852                           ;C:/MPlab_Digital2/Digital_2/Esclavo3proyecto1Digital2.X/main.c: 49: void setup(void) {
  1853  01A0  30EC               	movlw	236
  1854  01A1  0081               	movwf	1	;volatile
  1855  01A2                     i1l899:
  1856                           
  1857                           ;C:/MPlab_Digital2/Digital_2/Esclavo3proyecto1Digital2.X/main.c: 50:     initOsc(6);
  1858  01A2  3001               	movlw	1
  1859  01A3  00FF               	movwf	btemp+1
  1860  01A4  087F               	movf	btemp+1,w
  1861  01A5  07F7               	addwf	_ADC_GO,f
  1862  01A6                     i1l901:
  1863                           
  1864                           ;C:/MPlab_Digital2/Digital_2/Esclavo3proyecto1Digital2.X/main.c: 51:     configADC(0,2);
  1865  01A6  110B               	bcf	11,2	;volatile
  1866  01A7                     i1l903:
  1867                           
  1868                           ;C:/MPlab_Digital2/Digital_2/Esclavo3proyecto1Digital2.X/main.c: 54:     ANSEL = 0;
  1869  01A7  1F0C               	btfss	12,6	;volatile
  1870  01A8  29AA               	goto	u6_21
  1871  01A9  29AB               	goto	u6_20
  1872  01AA                     u6_21:
  1873  01AA  29B0               	goto	i1l909
  1874  01AB                     u6_20:
  1875  01AB                     i1l905:
  1876                           
  1877                           ;C:/MPlab_Digital2/Digital_2/Esclavo3proyecto1Digital2.X/main.c: 55:     ANSELbits.ANS0 
      +                          = 1;
  1878  01AB  081E               	movf	30,w	;volatile
  1879  01AC  00FF               	movwf	btemp+1
  1880  01AD  087F               	movf	btemp+1,w
  1881  01AE  00F8               	movwf	_ADC
  1882  01AF                     i1l907:
  1883                           
  1884                           ;C:/MPlab_Digital2/Digital_2/Esclavo3proyecto1Digital2.X/main.c: 56:     ANSELH = 0;
  1885  01AF  130C               	bcf	12,6	;volatile
  1886  01B0                     i1l909:
  1887                           
  1888                           ;C:/MPlab_Digital2/Digital_2/Esclavo3proyecto1Digital2.X/main.c: 58:     TRISC = 0;
  1889  01B0  158C               	bsf	12,3	;volatile
  1890  01B1                     i1l911:
  1891                           
  1892                           ;C:/MPlab_Digital2/Digital_2/Esclavo3proyecto1Digital2.X/main.c: 59:     PORTD = 0;
  1893  01B1  0878               	movf	_ADC,w
  1894  01B2  0093               	movwf	19	;volatile
  1895  01B3                     i1l913:
  1896                           
  1897                           ;C:/MPlab_Digital2/Digital_2/Esclavo3proyecto1Digital2.X/main.c: 60:     TRISD = 0;
  1898  01B3  118C               	bcf	12,3	;volatile
  1899  01B4                     i1l152:
  1900  01B4  0872               	movf	??_isr+2,w
  1901  01B5  00FF               	movwf	btemp+1
  1902  01B6  0871               	movf	??_isr+1,w
  1903  01B7  008A               	movwf	10
  1904  01B8  0E70               	swapf	??_isr^(0+4294967168),w
  1905  01B9  0083               	movwf	3
  1906  01BA  0EFE               	swapf	btemp,f
  1907  01BB  0E7E               	swapf	btemp,w
  1908  01BC  0009               	retfie
  1909  01BD                     __end_of_isr:
  1910  007E                     btemp	set	126	;btemp
  1911  007E                     wtemp0	set	126
  1912                           
  1913                           	psect	intentry
  1914  0004                     __pintentry:	
  1915                           ;incstack = 0
  1916                           ; Regs used in _isr: [wreg+status,2+status,0+btemp+1]
  1917                           
  1918  0004                     interrupt_function:
  1919  007E                     saved_w	set	btemp
  1920  0004  00FE               	movwf	btemp
  1921  0005  0E03               	swapf	3,w
  1922  0006  00F0               	movwf	??_isr
  1923  0007  080A               	movf	10,w
  1924  0008  00F1               	movwf	??_isr+1
  1925  0009  1283               	bcf	3,5	;RP0=0, select bank0
  1926  000A  1303               	bcf	3,6	;RP1=0, select bank0
  1927  000B  087F               	movf	btemp+1,w
  1928  000C  00F2               	movwf	??_isr+2
  1929  000D  120A  118A  299C   	ljmp	_isr
  1930                           
  1931                           	psect	config
  1932                           
  1933                           ;Config register CONFIG1 @ 0x2007
  1934                           ;	Oscillator Selection bits
  1935                           ;	FOSC = INTRC_NOCLKOUT, INTOSCIO oscillator: I/O function on RA6/OSC2/CLKOUT pin, I/O f
      +                          unction on RA7/OSC1/CLKIN
  1936                           ;	Watchdog Timer Enable bit
  1937                           ;	WDTE = OFF, WDT disabled and can be enabled by SWDTEN bit of the WDTCON register
  1938                           ;	Power-up Timer Enable bit
  1939                           ;	PWRTE = OFF, PWRT disabled
  1940                           ;	RE3/MCLR pin function select bit
  1941                           ;	MCLRE = OFF, RE3/MCLR pin function is digital input, MCLR internally tied to VDD
  1942                           ;	Code Protection bit
  1943                           ;	CP = OFF, Program memory code protection is disabled
  1944                           ;	Data Code Protection bit
  1945                           ;	CPD = OFF, Data memory code protection is disabled
  1946                           ;	Brown Out Reset Selection bits
  1947                           ;	BOREN = OFF, BOR disabled
  1948                           ;	Internal External Switchover bit
  1949                           ;	IESO = OFF, Internal/External Switchover mode is disabled
  1950                           ;	Fail-Safe Clock Monitor Enabled bit
  1951                           ;	FCMEN = OFF, Fail-Safe Clock Monitor is disabled
  1952                           ;	Low Voltage Programming Enable bit
  1953                           ;	LVP = OFF, RB3 pin has digital I/O, HV on MCLR must be used for programming
  1954                           ;	In-Circuit Debugger Mode bit
  1955                           ;	DEBUG = 0x1, unprogrammed default
  1956  2007                     	org	8199
  1957  2007  20D4               	dw	8404
  1958                           
  1959                           ;Config register CONFIG2 @ 0x2008
  1960                           ;	Brown-out Reset Selection bit
  1961                           ;	BOR4V = BOR40V, Brown-out Reset set to 4.0V
  1962                           ;	Flash Program Memory Self Write Enable bits
  1963                           ;	WRT = OFF, Write protection off
  1964  2008                     	org	8200
  1965  2008  3FFF               	dw	16383

Data Sizes:
    Strings     0
    Constant    0
    Data        0
    BSS         2
    Persistent  0
    Stack       0

Auto Spaces:
    Space          Size  Autos    Used
    COMMON           14      7       9
    BANK0            80      0       0
    BANK1            80      0       0
    BANK3            96      0       0
    BANK2            96      0       0

Pointer List with Targets:

    None.

Critical Paths under _main in COMMON

    _setup->_configADC
    _setup->_spiInit

Critical Paths under _isr in COMMON

    None.

Critical Paths under _main in BANK0

    None.

Critical Paths under _isr in BANK0

    None.

Critical Paths under _main in BANK1

    None.

Critical Paths under _isr in BANK1

    None.

Critical Paths under _main in BANK3

    None.

Critical Paths under _isr in BANK3

    None.

Critical Paths under _main in BANK2

    None.

Critical Paths under _isr in BANK2

    None.

Call Graph Tables:

 ---------------------------------------------------------------------------------
 (Depth) Function   	        Calls       Base Space   Used Autos Params    Refs
 ---------------------------------------------------------------------------------
 (0) _main                                                 0     0      0     495
                             _GO_ADC
                               _LEDS
                              _setup
 ---------------------------------------------------------------------------------
 (1) _setup                                                0     0      0     495
                          _configADC
                            _initOsc
                            _spiInit
 ---------------------------------------------------------------------------------
 (2) _spiInit                                              4     1      3     360
                                              3 COMMON     4     1      3
 ---------------------------------------------------------------------------------
 (2) _initOsc                                              3     3      0      15
                                              3 COMMON     3     3      0
 ---------------------------------------------------------------------------------
 (2) _configADC                                            4     3      1     120
                                              3 COMMON     4     3      1
 ---------------------------------------------------------------------------------
 (1) _LEDS                                                 0     0      0       0
 ---------------------------------------------------------------------------------
 (1) _GO_ADC                                               0     0      0       0
 ---------------------------------------------------------------------------------
 Estimated maximum stack depth 2
 ---------------------------------------------------------------------------------
 (Depth) Function   	        Calls       Base Space   Used Autos Params    Refs
 ---------------------------------------------------------------------------------
 (3) _isr                                                  3     3      0       0
                                              0 COMMON     3     3      0
 ---------------------------------------------------------------------------------
 Estimated maximum stack depth 3
 ---------------------------------------------------------------------------------

 Call Graph Graphs:

 _main (ROOT)
   _GO_ADC
   _LEDS
   _setup
     _configADC
     _initOsc
     _spiInit

 _isr (ROOT)

 Address spaces:
Name               Size   Autos  Total    Cost      Usage
BITCOMMON            E      0       0       0        0.0%
EEDATA             100      0       0       0        0.0%
NULL                 0      0       0       0        0.0%
CODE                 0      0       0       0        0.0%
COMMON               E      7       9       1       64.3%
BITSFR0              0      0       0       1        0.0%
SFR0                 0      0       0       1        0.0%
BITSFR1              0      0       0       2        0.0%
SFR1                 0      0       0       2        0.0%
STACK                0      0       0       2        0.0%
ABS                  0      0       9       3        0.0%
BITBANK0            50      0       0       4        0.0%
BITSFR3              0      0       0       4        0.0%
SFR3                 0      0       0       4        0.0%
BANK0               50      0       0       5        0.0%
BITSFR2              0      0       0       5        0.0%
SFR2                 0      0       0       5        0.0%
BITBANK1            50      0       0       6        0.0%
BANK1               50      0       0       7        0.0%
BITBANK3            60      0       0       8        0.0%
BANK3               60      0       0       9        0.0%
BITBANK2            60      0       0      10        0.0%
BANK2               60      0       0      11        0.0%
DATA                 0      0       9      12        0.0%


Microchip Technology PIC Macro Assembler V2.20 build 20200408173844 
Symbol Table                                                                                   Tue Feb 16 00:15:58 2021

            _SSPSTATbits 0094                       l10 001E                       l20 005D  
                     l12 0025                       l21 0064                       l13 002C  
                     l30 00CC                       l22 006B                       l14 0033  
                     l31 00D0                       l23 0072                       l15 003A  
                     l32 00D4                       l24 0079                       l16 0041  
                     l33 00FA                       l25 0080                       l17 0048  
                     l26 0087                       l18 004F                       l50 01D2  
                     l19 0056                       l28 00C8                       l29 00EE  
                     l80 0121                       l81 0127                       l73 00FD  
                     l49 01CD                       l82 014F                       l75 0103  
                     l76 0109                       l77 010F                       l78 0115  
                     l79 011B                       u30 01FC                       u31 01FB  
                     u40 01EC                       u41 01EB                       u70 01C5  
                     u71 01C4                       u87 00F2                      l163 019B  
                    l167 0200                      l175 01F5                      _ADC 0078  
                    l803 012D                      l871 01E6                      l865 01F6  
                    l873 01EC                      l867 01FC                      l875 01F1  
                    l869 01FD                      l981 001A                      l991 00F0  
                    l799 00FC                      l993 00F7                      l985 008E  
                    l989 00D8                      _isr 019C                     l1011 01CC  
                   l1003 01BE                     l1005 01C5                     l1021 0166  
                   l1013 0150                     l1007 01C7                     l1031 0171  
                   l1023 0169                     l1015 0156                     l1009 01C9  
                   l1041 017E                     l1033 0174                     l1025 016A  
                   l1017 0160                     l1051 0187                     l1043 0181  
                   l1035 0177                     l1027 016B                     l1019 0164  
                   l1133 0135                     l1061 0194                     l1053 0188  
                   l1045 0182                     l1037 0178                     l1029 016E  
                   l1135 0096                     l1063 0197                     l1055 0191  
                   l1047 0185                     l1039 017B                     l1071 01DD  
                   l1137 00E0                     l1065 0198                     l1057 0192  
                   l1049 0186                     l1059 0193                     l1067 01D3  
                   l1069 01D8                     ?_isr 0070                     _LEDS 01E6  
                   _TMR0 0001                     u5_20 01A0                     u5_21 019F  
                   u6_20 01AB                     u6_21 01AA                     _main 01D3  
                   btemp 007E                     start 0010                    ??_isr 0070  
                  ?_LEDS 0070                    ?_main 0070                    _ANSEL 0188  
                  i1l152 01B4                    i1l901 01A6                    i1l911 01B1  
                  i1l903 01A7                    i1l913 01B3                    i1l905 01AB  
                  i1l907 01AF                    i1l909 01B0                    i1l895 019C  
                  i1l897 01A0                    i1l899 01A2                    _PORTA 0005  
                  _PORTB 0006                    _PORTC 0007                    _PORTD 0008  
                  _PORTE 0009                    _TRISB 0086                    _TRISC 0087  
                  _TRISD 0088                    _TRISE 0089          __end_of_initOsc 0150  
                  _setup 0150                    pclath 000A          __end_of_spiInit 01D3  
                  status 0003                    wtemp0 007E             __end_of_LEDS 01F6  
        __initialization 0013             __end_of_main 01E6                   ??_LEDS 0073  
                 ??_main 0077                   _ADCON1 009F                   _ADC_GO 0077  
                 _ADRESH 001E                   ?_setup 0070                   _ANSELH 0189  
                 _GO_ADC 01F6                   _TRISC3 043B                   _TRISC5 043D  
                 _SSPCON 0014                   _SSPBUF 0013                ??_initOsc 0073  
                 saved_w 007E                ??_spiInit 0076  __end_of__initialization 0015  
         __pcstackCOMMON 0070            __end_of_setup 019C       __size_of_configADC 00E2  
                ??_setup 0077                  ?_GO_ADC 0070               __pmaintext 01D3  
             __pintentry 0004                  _SSPSTAT 0094          __size_of_GO_ADC 000B  
      __end_of_configADC 00FB                _ANSELbits 0188                  __ptext1 0150  
                __ptext2 01BD                  __ptext3 00FB                  __ptext4 0019  
                __ptext5 01E6                  __ptext6 01F6                  __ptext7 019C  
                _initOsc 00FB             __size_of_isr 0021                  _spiInit 01BD  
   end_of_initialization 0015                _TRISAbits 0085                _TRISCbits 0087  
         __end_of_GO_ADC 0201      start_initialization 0013              __end_of_isr 01BD  
               ??_GO_ADC 0073              __pbssCOMMON 0077                ___latbits 0002  
              _configADC 0019                 ?_initOsc 0070                 ?_spiInit 0073  
         __size_of_setup 004C     spiInit@sTransmitEdge 0075        interrupt_function 0004  
               _PIE1bits 008C       spiInit@sDataSample 0073                 _PIR1bits 000C  
          initOsc@option 0075               ?_configADC 0073               _ADCON0bits 001F  
       __size_of_initOsc 0055         __size_of_spiInit 0016            __size_of_LEDS 0010  
          __size_of_main 0013             spiInit@sType 0076              ??_configADC 0074  
      spiInit@sClockIdle 0074               _INTCONbits 000B                 intlevel1 0000  
             _OSCCONbits 008F               _OPTION_REG 0081           configADC@canal 0076  
           configADC@vel 0073  
